
tx-siyi-f103c8.elf:     file format elf32-littlearm

Sections:
Idx Name          Size      VMA       LMA       File off  Algn
  0 .isr_vector   0000010c  08000000  08000000  00010000  2**0
                  CONTENTS, ALLOC, LOAD, READONLY, DATA
  1 .text         00003090  0800010c  0800010c  0001010c  2**2
                  CONTENTS, ALLOC, LOAD, READONLY, CODE
  2 .rodata       000001bc  0800319c  0800319c  0001319c  2**2
                  CONTENTS, ALLOC, LOAD, READONLY, DATA
  3 .ARM.extab    00000000  08003358  08003358  0002000c  2**0
                  CONTENTS
  4 .ARM          00000000  08003358  08003358  0002000c  2**0
                  CONTENTS
  5 .preinit_array 00000000  08003358  08003358  0002000c  2**0
                  CONTENTS, ALLOC, LOAD, DATA
  6 .init_array   00000008  08003358  08003358  00013358  2**2
                  CONTENTS, ALLOC, LOAD, DATA
  7 .fini_array   00000004  08003360  08003360  00013360  2**2
                  CONTENTS, ALLOC, LOAD, DATA
  8 .data         0000000c  20000000  08003364  00020000  2**2
                  CONTENTS, ALLOC, LOAD, DATA
  9 .bss          000012b0  20000010  08003370  00020010  2**3
                  ALLOC
 10 ._user_heap_stack 00000400  200012c0  08003370  000212c0  2**0
                  ALLOC
 11 .ARM.attributes 00000029  00000000  00000000  0002000c  2**0
                  CONTENTS, READONLY
 12 .comment      00000053  00000000  00000000  00020035  2**0
                  CONTENTS, READONLY
 13 .debug_frame  00000074  00000000  00000000  00020088  2**2
                  CONTENTS, READONLY, DEBUGGING, OCTETS

Disassembly of section .text:

0800010c <__do_global_dtors_aux>:
 800010c:	b510      	push	{r4, lr}
 800010e:	4c05      	ldr	r4, [pc, #20]	; (8000124 <__do_global_dtors_aux+0x18>)
 8000110:	7823      	ldrb	r3, [r4, #0]
 8000112:	b933      	cbnz	r3, 8000122 <__do_global_dtors_aux+0x16>
 8000114:	4b04      	ldr	r3, [pc, #16]	; (8000128 <__do_global_dtors_aux+0x1c>)
 8000116:	b113      	cbz	r3, 800011e <__do_global_dtors_aux+0x12>
 8000118:	4804      	ldr	r0, [pc, #16]	; (800012c <__do_global_dtors_aux+0x20>)
 800011a:	f3af 8000 	nop.w
 800011e:	2301      	movs	r3, #1
 8000120:	7023      	strb	r3, [r4, #0]
 8000122:	bd10      	pop	{r4, pc}
 8000124:	20000010 	.word	0x20000010
 8000128:	00000000 	.word	0x00000000
 800012c:	08003184 	.word	0x08003184

08000130 <frame_dummy>:
 8000130:	b508      	push	{r3, lr}
 8000132:	4b03      	ldr	r3, [pc, #12]	; (8000140 <frame_dummy+0x10>)
 8000134:	b11b      	cbz	r3, 800013e <frame_dummy+0xe>
 8000136:	4903      	ldr	r1, [pc, #12]	; (8000144 <frame_dummy+0x14>)
 8000138:	4803      	ldr	r0, [pc, #12]	; (8000148 <frame_dummy+0x18>)
 800013a:	f3af 8000 	nop.w
 800013e:	bd08      	pop	{r3, pc}
 8000140:	00000000 	.word	0x00000000
 8000144:	20000014 	.word	0x20000014
 8000148:	08003184 	.word	0x08003184

0800014c <_ZN8FhssBase4prngEv>:
 800014c:	6843      	ldr	r3, [r0, #4]
 800014e:	4904      	ldr	r1, [pc, #16]	; (8000160 <_ZN8FhssBase4prngEv+0x14>)
 8000150:	4a04      	ldr	r2, [pc, #16]	; (8000164 <_ZN8FhssBase4prngEv+0x18>)
 8000152:	fb01 2303 	mla	r3, r1, r3, r2
 8000156:	f023 4300 	bic.w	r3, r3, #2147483648	; 0x80000000
 800015a:	6043      	str	r3, [r0, #4]
 800015c:	0c18      	lsrs	r0, r3, #16
 800015e:	4770      	bx	lr
 8000160:	000343fd 	.word	0x000343fd
 8000164:	00269ec3 	.word	0x00269ec3

08000168 <_ZN8FhssBase8generateEm>:
 8000168:	e92d 41f0 	stmdb	sp!, {r4, r5, r6, r7, r8, lr}
 800016c:	2344      	movs	r3, #68	; 0x44
 800016e:	6041      	str	r1, [r0, #4]
 8000170:	4604      	mov	r4, r0
 8000172:	2100      	movs	r1, #0
 8000174:	b092      	sub	sp, #72	; 0x48
 8000176:	aa01      	add	r2, sp, #4
 8000178:	3b01      	subs	r3, #1
 800017a:	f013 03ff 	ands.w	r3, r3, #255	; 0xff
 800017e:	f802 1b01 	strb.w	r1, [r2], #1
 8000182:	d1f9      	bne.n	8000178 <_ZN8FhssBase8generateEm+0x10>
 8000184:	2544      	movs	r5, #68	; 0x44
 8000186:	2701      	movs	r7, #1
 8000188:	f8df 805c 	ldr.w	r8, [pc, #92]	; 80001e8 <_ZN8FhssBase8generateEm+0x80>
 800018c:	f104 060c 	add.w	r6, r4, #12
 8000190:	4620      	mov	r0, r4
 8000192:	f7ff ffdb 	bl	800014c <_ZN8FhssBase4prngEv>
 8000196:	fbb0 f3f5 	udiv	r3, r0, r5
 800019a:	fb03 0015 	mls	r0, r3, r5, r0
 800019e:	2300      	movs	r3, #0
 80001a0:	461a      	mov	r2, r3
 80001a2:	b2c0      	uxtb	r0, r0
 80001a4:	a901      	add	r1, sp, #4
 80001a6:	f811 cb01 	ldrb.w	ip, [r1], #1
 80001aa:	f1bc 0f00 	cmp.w	ip, #0
 80001ae:	d103      	bne.n	80001b8 <_ZN8FhssBase8generateEm+0x50>
 80001b0:	4282      	cmp	r2, r0
 80001b2:	d006      	beq.n	80001c2 <_ZN8FhssBase8generateEm+0x5a>
 80001b4:	3201      	adds	r2, #1
 80001b6:	b2d2      	uxtb	r2, r2
 80001b8:	3301      	adds	r3, #1
 80001ba:	b2db      	uxtb	r3, r3
 80001bc:	2b44      	cmp	r3, #68	; 0x44
 80001be:	d1f2      	bne.n	80001a6 <_ZN8FhssBase8generateEm+0x3e>
 80001c0:	2300      	movs	r3, #0
 80001c2:	f858 2023 	ldr.w	r2, [r8, r3, lsl #2]
 80001c6:	3d01      	subs	r5, #1
 80001c8:	f846 2b04 	str.w	r2, [r6], #4
 80001cc:	aa12      	add	r2, sp, #72	; 0x48
 80001ce:	4413      	add	r3, r2
 80001d0:	2d40      	cmp	r5, #64	; 0x40
 80001d2:	f803 7c44 	strb.w	r7, [r3, #-68]
 80001d6:	d1db      	bne.n	8000190 <_ZN8FhssBase8generateEm+0x28>
 80001d8:	2300      	movs	r3, #0
 80001da:	7223      	strb	r3, [r4, #8]
 80001dc:	f04f 3380 	mov.w	r3, #2155905152	; 0x80808080
 80001e0:	61e3      	str	r3, [r4, #28]
 80001e2:	b012      	add	sp, #72	; 0x48
 80001e4:	e8bd 81f0 	ldmia.w	sp!, {r4, r5, r6, r7, r8, pc}
 80001e8:	0800319c 	.word	0x0800319c

080001ec <_ZN8FifoBaseC1Ev>:
 80001ec:	2200      	movs	r2, #0
 80001ee:	8042      	strh	r2, [r0, #2]
 80001f0:	8002      	strh	r2, [r0, #0]
 80001f2:	f240 12ff 	movw	r2, #511	; 0x1ff
 80001f6:	8082      	strh	r2, [r0, #4]
 80001f8:	4770      	bx	lr

080001fa <_ZN8FifoBase4InitEv>:
 80001fa:	2300      	movs	r3, #0
 80001fc:	8043      	strh	r3, [r0, #2]
 80001fe:	8003      	strh	r3, [r0, #0]
 8000200:	f240 13ff 	movw	r3, #511	; 0x1ff
 8000204:	8083      	strh	r3, [r0, #4]
 8000206:	4770      	bx	lr

08000208 <_ZN8FifoBase4putcEc>:
 8000208:	8802      	ldrh	r2, [r0, #0]
 800020a:	b510      	push	{r4, lr}
 800020c:	8884      	ldrh	r4, [r0, #4]
 800020e:	1c53      	adds	r3, r2, #1
 8000210:	4023      	ands	r3, r4
 8000212:	8844      	ldrh	r4, [r0, #2]
 8000214:	429c      	cmp	r4, r3
 8000216:	bf1b      	ittet	ne
 8000218:	1812      	addne	r2, r2, r0
 800021a:	7191      	strbne	r1, [r2, #6]
 800021c:	2000      	moveq	r0, #0
 800021e:	8003      	strhne	r3, [r0, #0]
 8000220:	bf18      	it	ne
 8000222:	2001      	movne	r0, #1
 8000224:	bd10      	pop	{r4, pc}

08000226 <_ZN8FifoBase6putbufEPvt>:
 8000226:	b570      	push	{r4, r5, r6, lr}
 8000228:	4605      	mov	r5, r0
 800022a:	460c      	mov	r4, r1
 800022c:	188e      	adds	r6, r1, r2
 800022e:	42b4      	cmp	r4, r6
 8000230:	d005      	beq.n	800023e <_ZN8FifoBase6putbufEPvt+0x18>
 8000232:	4628      	mov	r0, r5
 8000234:	f814 1b01 	ldrb.w	r1, [r4], #1
 8000238:	f7ff ffe6 	bl	8000208 <_ZN8FifoBase4putcEc>
 800023c:	e7f7      	b.n	800022e <_ZN8FifoBase6putbufEPvt+0x8>
 800023e:	bd70      	pop	{r4, r5, r6, pc}

08000240 <_ZN8FifoBase9availableEv>:
 8000240:	8803      	ldrh	r3, [r0, #0]
 8000242:	8842      	ldrh	r2, [r0, #2]
 8000244:	1a9b      	subs	r3, r3, r2
 8000246:	b21b      	sxth	r3, r3
 8000248:	2b00      	cmp	r3, #0
 800024a:	da06      	bge.n	800025a <_ZN8FifoBase9availableEv+0x1a>
 800024c:	8882      	ldrh	r2, [r0, #4]
 800024e:	3201      	adds	r2, #1
 8000250:	42da      	cmn	r2, r3
 8000252:	bf14      	ite	ne
 8000254:	2001      	movne	r0, #1
 8000256:	2000      	moveq	r0, #0
 8000258:	4770      	bx	lr
 800025a:	bf14      	ite	ne
 800025c:	2001      	movne	r0, #1
 800025e:	2000      	moveq	r0, #0
 8000260:	4770      	bx	lr

08000262 <_ZN8FifoBase4getcEv>:
 8000262:	4603      	mov	r3, r0
 8000264:	8842      	ldrh	r2, [r0, #2]
 8000266:	8801      	ldrh	r1, [r0, #0]
 8000268:	4291      	cmp	r1, r2
 800026a:	bf1f      	itttt	ne
 800026c:	1881      	addne	r1, r0, r2
 800026e:	7988      	ldrbne	r0, [r1, #6]
 8000270:	8899      	ldrhne	r1, [r3, #4]
 8000272:	3201      	addne	r2, #1
 8000274:	bf1a      	itte	ne
 8000276:	400a      	andne	r2, r1
 8000278:	805a      	strhne	r2, [r3, #2]
 800027a:	2000      	moveq	r0, #0
 800027c:	4770      	bx	lr

0800027e <_ZN12tMBridgeBase4InitEv>:
 800027e:	2300      	movs	r3, #0
 8000280:	6043      	str	r3, [r0, #4]
 8000282:	8103      	strh	r3, [r0, #8]
 8000284:	f880 3020 	strb.w	r3, [r0, #32]
 8000288:	f880 3038 	strb.w	r3, [r0, #56]	; 0x38
 800028c:	f880 3046 	strb.w	r3, [r0, #70]	; 0x46
 8000290:	4770      	bx	lr

08000292 <_ZN12tMBridgeBase14parse_nextcharEh>:
 8000292:	b538      	push	{r3, r4, r5, lr}
 8000294:	7903      	ldrb	r3, [r0, #4]
 8000296:	4604      	mov	r4, r0
 8000298:	460d      	mov	r5, r1
 800029a:	2b05      	cmp	r3, #5
 800029c:	d80c      	bhi.n	80002b8 <_ZN12tMBridgeBase14parse_nextcharEh+0x26>
 800029e:	e8df f003 	tbb	[pc, r3]
 80002a2:	0c03      	.short	0x0c03
 80002a4:	64534120 	.word	0x64534120
 80002a8:	6803      	ldr	r3, [r0, #0]
 80002aa:	681b      	ldr	r3, [r3, #0]
 80002ac:	4798      	blx	r3
 80002ae:	2d4f      	cmp	r5, #79	; 0x4f
 80002b0:	8120      	strh	r0, [r4, #8]
 80002b2:	d101      	bne.n	80002b8 <_ZN12tMBridgeBase14parse_nextcharEh+0x26>
 80002b4:	2301      	movs	r3, #1
 80002b6:	7123      	strb	r3, [r4, #4]
 80002b8:	bd38      	pop	{r3, r4, r5, pc}
 80002ba:	6803      	ldr	r3, [r0, #0]
 80002bc:	681b      	ldr	r3, [r3, #0]
 80002be:	4798      	blx	r3
 80002c0:	2d57      	cmp	r5, #87	; 0x57
 80002c2:	bf0c      	ite	eq
 80002c4:	2302      	moveq	r3, #2
 80002c6:	2300      	movne	r3, #0
 80002c8:	8120      	strh	r0, [r4, #8]
 80002ca:	7123      	strb	r3, [r4, #4]
 80002cc:	6823      	ldr	r3, [r4, #0]
 80002ce:	4620      	mov	r0, r4
 80002d0:	681b      	ldr	r3, [r3, #0]
 80002d2:	4798      	blx	r3
 80002d4:	8923      	ldrh	r3, [r4, #8]
 80002d6:	1ac0      	subs	r0, r0, r3
 80002d8:	b280      	uxth	r0, r0
 80002da:	2832      	cmp	r0, #50	; 0x32
 80002dc:	d9ec      	bls.n	80002b8 <_ZN12tMBridgeBase14parse_nextcharEh+0x26>
 80002de:	2300      	movs	r3, #0
 80002e0:	e7e9      	b.n	80002b6 <_ZN12tMBridgeBase14parse_nextcharEh+0x24>
 80002e2:	6803      	ldr	r3, [r0, #0]
 80002e4:	681b      	ldr	r3, [r3, #0]
 80002e6:	4798      	blx	r3
 80002e8:	2300      	movs	r3, #0
 80002ea:	2dff      	cmp	r5, #255	; 0xff
 80002ec:	8120      	strh	r0, [r4, #8]
 80002ee:	71e3      	strb	r3, [r4, #7]
 80002f0:	d105      	bne.n	80002fe <_ZN12tMBridgeBase14parse_nextcharEh+0x6c>
 80002f2:	f44f 7301 	mov.w	r3, #516	; 0x204
 80002f6:	80a3      	strh	r3, [r4, #4]
 80002f8:	2316      	movs	r3, #22
 80002fa:	71a3      	strb	r3, [r4, #6]
 80002fc:	e7e6      	b.n	80002cc <_ZN12tMBridgeBase14parse_nextcharEh+0x3a>
 80002fe:	2d9f      	cmp	r5, #159	; 0x9f
 8000300:	d906      	bls.n	8000310 <_ZN12tMBridgeBase14parse_nextcharEh+0x7e>
 8000302:	f005 051f 	and.w	r5, r5, #31
 8000306:	f240 3305 	movw	r3, #773	; 0x305
 800030a:	f884 5021 	strb.w	r5, [r4, #33]	; 0x21
 800030e:	e7f2      	b.n	80002f6 <_ZN12tMBridgeBase14parse_nextcharEh+0x64>
 8000310:	2d11      	cmp	r5, #17
 8000312:	d8da      	bhi.n	80002ca <_ZN12tMBridgeBase14parse_nextcharEh+0x38>
 8000314:	b125      	cbz	r5, 8000320 <_ZN12tMBridgeBase14parse_nextcharEh+0x8e>
 8000316:	f240 1303 	movw	r3, #259	; 0x103
 800031a:	71a5      	strb	r5, [r4, #6]
 800031c:	80a3      	strh	r3, [r4, #4]
 800031e:	e7d5      	b.n	80002cc <_ZN12tMBridgeBase14parse_nextcharEh+0x3a>
 8000320:	2306      	movs	r3, #6
 8000322:	e7fb      	b.n	800031c <_ZN12tMBridgeBase14parse_nextcharEh+0x8a>
 8000324:	6803      	ldr	r3, [r0, #0]
 8000326:	681b      	ldr	r3, [r3, #0]
 8000328:	4798      	blx	r3
 800032a:	6823      	ldr	r3, [r4, #0]
 800032c:	8120      	strh	r0, [r4, #8]
 800032e:	69db      	ldr	r3, [r3, #28]
 8000330:	4629      	mov	r1, r5
 8000332:	4620      	mov	r0, r4
 8000334:	4798      	blx	r3
 8000336:	79e3      	ldrb	r3, [r4, #7]
 8000338:	79a2      	ldrb	r2, [r4, #6]
 800033a:	3301      	adds	r3, #1
 800033c:	b2db      	uxtb	r3, r3
 800033e:	429a      	cmp	r2, r3
 8000340:	71e3      	strb	r3, [r4, #7]
 8000342:	d8c3      	bhi.n	80002cc <_ZN12tMBridgeBase14parse_nextcharEh+0x3a>
 8000344:	2306      	movs	r3, #6
 8000346:	e7c0      	b.n	80002ca <_ZN12tMBridgeBase14parse_nextcharEh+0x38>
 8000348:	6803      	ldr	r3, [r0, #0]
 800034a:	681b      	ldr	r3, [r3, #0]
 800034c:	4798      	blx	r3
 800034e:	79e3      	ldrb	r3, [r4, #7]
 8000350:	8120      	strh	r0, [r4, #8]
 8000352:	18e2      	adds	r2, r4, r3
 8000354:	7295      	strb	r5, [r2, #10]
 8000356:	79a2      	ldrb	r2, [r4, #6]
 8000358:	3301      	adds	r3, #1
 800035a:	b2db      	uxtb	r3, r3
 800035c:	429a      	cmp	r2, r3
 800035e:	71e3      	strb	r3, [r4, #7]
 8000360:	d8b4      	bhi.n	80002cc <_ZN12tMBridgeBase14parse_nextcharEh+0x3a>
 8000362:	2301      	movs	r3, #1
 8000364:	f884 3020 	strb.w	r3, [r4, #32]
 8000368:	e7ec      	b.n	8000344 <_ZN12tMBridgeBase14parse_nextcharEh+0xb2>
 800036a:	6803      	ldr	r3, [r0, #0]
 800036c:	681b      	ldr	r3, [r3, #0]
 800036e:	4798      	blx	r3
 8000370:	79e3      	ldrb	r3, [r4, #7]
 8000372:	8120      	strh	r0, [r4, #8]
 8000374:	18e2      	adds	r2, r4, r3
 8000376:	f882 5022 	strb.w	r5, [r2, #34]	; 0x22
 800037a:	79a2      	ldrb	r2, [r4, #6]
 800037c:	3301      	adds	r3, #1
 800037e:	b2db      	uxtb	r3, r3
 8000380:	429a      	cmp	r2, r3
 8000382:	71e3      	strb	r3, [r4, #7]
 8000384:	d8a2      	bhi.n	80002cc <_ZN12tMBridgeBase14parse_nextcharEh+0x3a>
 8000386:	2301      	movs	r3, #1
 8000388:	f884 3038 	strb.w	r3, [r4, #56]	; 0x38
 800038c:	e7da      	b.n	8000344 <_ZN12tMBridgeBase14parse_nextcharEh+0xb2>

0800038e <_ZN12tMBridgeBase15transmit_serialEv>:
 800038e:	b570      	push	{r4, r5, r6, lr}
 8000390:	7943      	ldrb	r3, [r0, #5]
 8000392:	4604      	mov	r4, r0
 8000394:	2b01      	cmp	r3, #1
 8000396:	bf8c      	ite	hi
 8000398:	260b      	movhi	r6, #11
 800039a:	2610      	movls	r6, #16
 800039c:	2500      	movs	r5, #0
 800039e:	6823      	ldr	r3, [r4, #0]
 80003a0:	4620      	mov	r0, r4
 80003a2:	695b      	ldr	r3, [r3, #20]
 80003a4:	4798      	blx	r3
 80003a6:	b190      	cbz	r0, 80003ce <_ZN12tMBridgeBase15transmit_serialEv+0x40>
 80003a8:	b925      	cbnz	r5, 80003b4 <_ZN12tMBridgeBase15transmit_serialEv+0x26>
 80003aa:	6823      	ldr	r3, [r4, #0]
 80003ac:	4629      	mov	r1, r5
 80003ae:	4620      	mov	r0, r4
 80003b0:	691b      	ldr	r3, [r3, #16]
 80003b2:	4798      	blx	r3
 80003b4:	6823      	ldr	r3, [r4, #0]
 80003b6:	4620      	mov	r0, r4
 80003b8:	699b      	ldr	r3, [r3, #24]
 80003ba:	4798      	blx	r3
 80003bc:	6823      	ldr	r3, [r4, #0]
 80003be:	3501      	adds	r5, #1
 80003c0:	4601      	mov	r1, r0
 80003c2:	691b      	ldr	r3, [r3, #16]
 80003c4:	4620      	mov	r0, r4
 80003c6:	b2ed      	uxtb	r5, r5
 80003c8:	4798      	blx	r3
 80003ca:	42ae      	cmp	r6, r5
 80003cc:	d1e7      	bne.n	800039e <_ZN12tMBridgeBase15transmit_serialEv+0x10>
 80003ce:	4628      	mov	r0, r5
 80003d0:	bd70      	pop	{r4, r5, r6, pc}

080003d2 <_ZN12tMBridgeBase12transmit_cmdEv>:
 80003d2:	2300      	movs	r3, #0
 80003d4:	b570      	push	{r4, r5, r6, lr}
 80003d6:	4605      	mov	r5, r0
 80003d8:	f890 1039 	ldrb.w	r1, [r0, #57]	; 0x39
 80003dc:	f880 3046 	strb.w	r3, [r0, #70]	; 0x46
 80003e0:	f855 3b3a 	ldr.w	r3, [r5], #58
 80003e4:	f001 011f 	and.w	r1, r1, #31
 80003e8:	3960      	subs	r1, #96	; 0x60
 80003ea:	4604      	mov	r4, r0
 80003ec:	691b      	ldr	r3, [r3, #16]
 80003ee:	b2c9      	uxtb	r1, r1
 80003f0:	4798      	blx	r3
 80003f2:	f104 0646 	add.w	r6, r4, #70	; 0x46
 80003f6:	6823      	ldr	r3, [r4, #0]
 80003f8:	f815 1b01 	ldrb.w	r1, [r5], #1
 80003fc:	4620      	mov	r0, r4
 80003fe:	691b      	ldr	r3, [r3, #16]
 8000400:	4798      	blx	r3
 8000402:	42b5      	cmp	r5, r6
 8000404:	d1f7      	bne.n	80003f6 <_ZN12tMBridgeBase12transmit_cmdEv+0x24>
 8000406:	200c      	movs	r0, #12
 8000408:	bd70      	pop	{r4, r5, r6, pc}

0800040a <_ZN12tMBridgeBase14transmit_startEv>:
 800040a:	b538      	push	{r3, r4, r5, lr}
 800040c:	4604      	mov	r4, r0
 800040e:	6803      	ldr	r3, [r0, #0]
 8000410:	2101      	movs	r1, #1
 8000412:	685b      	ldr	r3, [r3, #4]
 8000414:	4798      	blx	r3
 8000416:	f894 3046 	ldrb.w	r3, [r4, #70]	; 0x46
 800041a:	4620      	mov	r0, r4
 800041c:	b133      	cbz	r3, 800042c <_ZN12tMBridgeBase14transmit_startEv+0x22>
 800041e:	f7ff ffd8 	bl	80003d2 <_ZN12tMBridgeBase12transmit_cmdEv>
 8000422:	4605      	mov	r5, r0
 8000424:	b128      	cbz	r0, 8000432 <_ZN12tMBridgeBase14transmit_startEv+0x28>
 8000426:	2308      	movs	r3, #8
 8000428:	7123      	strb	r3, [r4, #4]
 800042a:	bd38      	pop	{r3, r4, r5, pc}
 800042c:	f7ff ffaf 	bl	800038e <_ZN12tMBridgeBase15transmit_serialEv>
 8000430:	e7f7      	b.n	8000422 <_ZN12tMBridgeBase14transmit_startEv+0x18>
 8000432:	6823      	ldr	r3, [r4, #0]
 8000434:	4601      	mov	r1, r0
 8000436:	685b      	ldr	r3, [r3, #4]
 8000438:	4620      	mov	r0, r4
 800043a:	4798      	blx	r3
 800043c:	7125      	strb	r5, [r4, #4]
 800043e:	e7f4      	b.n	800042a <_ZN12tMBridgeBase14transmit_startEv+0x20>

08000440 <_ZN12tMBridgeBase20cmd_from_transmitterEPhS0_>:
 8000440:	b510      	push	{r4, lr}
 8000442:	f890 3038 	ldrb.w	r3, [r0, #56]	; 0x38
 8000446:	b19b      	cbz	r3, 8000470 <_ZN12tMBridgeBase20cmd_from_transmitterEPhS0_+0x30>
 8000448:	f890 3021 	ldrb.w	r3, [r0, #33]	; 0x21
 800044c:	700b      	strb	r3, [r1, #0]
 800044e:	f100 0322 	add.w	r3, r0, #34	; 0x22
 8000452:	f100 0136 	add.w	r1, r0, #54	; 0x36
 8000456:	f853 4b04 	ldr.w	r4, [r3], #4
 800045a:	428b      	cmp	r3, r1
 800045c:	f842 4b04 	str.w	r4, [r2], #4
 8000460:	d1f9      	bne.n	8000456 <_ZN12tMBridgeBase20cmd_from_transmitterEPhS0_+0x16>
 8000462:	881b      	ldrh	r3, [r3, #0]
 8000464:	8013      	strh	r3, [r2, #0]
 8000466:	2300      	movs	r3, #0
 8000468:	f880 3038 	strb.w	r3, [r0, #56]	; 0x38
 800046c:	2001      	movs	r0, #1
 800046e:	bd10      	pop	{r4, pc}
 8000470:	4618      	mov	r0, r3
 8000472:	700b      	strb	r3, [r1, #0]
 8000474:	e7fb      	b.n	800046e <_ZN12tMBridgeBase20cmd_from_transmitterEPhS0_+0x2e>

08000476 <_ZN12tMBridgeBase18cmd_to_transmitterEhPhh>:
 8000476:	b510      	push	{r4, lr}
 8000478:	4604      	mov	r4, r0
 800047a:	4608      	mov	r0, r1
 800047c:	2b0c      	cmp	r3, #12
 800047e:	bf28      	it	cs
 8000480:	230c      	movcs	r3, #12
 8000482:	f884 0039 	strb.w	r0, [r4, #57]	; 0x39
 8000486:	2000      	movs	r0, #0
 8000488:	4611      	mov	r1, r2
 800048a:	f8c4 003a 	str.w	r0, [r4, #58]	; 0x3a
 800048e:	461a      	mov	r2, r3
 8000490:	f8c4 003e 	str.w	r0, [r4, #62]	; 0x3e
 8000494:	f8c4 0042 	str.w	r0, [r4, #66]	; 0x42
 8000498:	f104 003a 	add.w	r0, r4, #58	; 0x3a
 800049c:	f002 fe5c 	bl	8003158 <memcpy>
 80004a0:	2301      	movs	r3, #1
 80004a2:	f884 3046 	strb.w	r3, [r4, #70]	; 0x46
 80004a6:	bd10      	pop	{r4, pc}

080004a8 <LL_APB1_GRP1_EnableClock>:
 80004a8:	4b05      	ldr	r3, [pc, #20]	; (80004c0 <LL_APB1_GRP1_EnableClock+0x18>)
 80004aa:	b082      	sub	sp, #8
 80004ac:	69da      	ldr	r2, [r3, #28]
 80004ae:	4302      	orrs	r2, r0
 80004b0:	61da      	str	r2, [r3, #28]
 80004b2:	69db      	ldr	r3, [r3, #28]
 80004b4:	4018      	ands	r0, r3
 80004b6:	9001      	str	r0, [sp, #4]
 80004b8:	9b01      	ldr	r3, [sp, #4]
 80004ba:	b002      	add	sp, #8
 80004bc:	4770      	bx	lr
 80004be:	bf00      	nop
 80004c0:	40021000 	.word	0x40021000

080004c4 <LL_APB2_GRP1_EnableClock>:
 80004c4:	4b05      	ldr	r3, [pc, #20]	; (80004dc <LL_APB2_GRP1_EnableClock+0x18>)
 80004c6:	b082      	sub	sp, #8
 80004c8:	699a      	ldr	r2, [r3, #24]
 80004ca:	4302      	orrs	r2, r0
 80004cc:	619a      	str	r2, [r3, #24]
 80004ce:	699b      	ldr	r3, [r3, #24]
 80004d0:	4018      	ands	r0, r3
 80004d2:	9001      	str	r0, [sp, #4]
 80004d4:	9b01      	ldr	r3, [sp, #4]
 80004d6:	b002      	add	sp, #8
 80004d8:	4770      	bx	lr
 80004da:	bf00      	nop
 80004dc:	40021000 	.word	0x40021000

080004e0 <delay_ns>:
 80004e0:	4a0b      	ldr	r2, [pc, #44]	; (8000510 <delay_ns+0x30>)
 80004e2:	4b0c      	ldr	r3, [pc, #48]	; (8000514 <delay_ns+0x34>)
 80004e4:	b430      	push	{r4, r5}
 80004e6:	6812      	ldr	r2, [r2, #0]
 80004e8:	4d0b      	ldr	r5, [pc, #44]	; (8000518 <delay_ns+0x38>)
 80004ea:	461c      	mov	r4, r3
 80004ec:	6859      	ldr	r1, [r3, #4]
 80004ee:	fba5 3202 	umull	r3, r2, r5, r2
 80004f2:	0c92      	lsrs	r2, r2, #18
 80004f4:	fb00 f202 	mul.w	r2, r0, r2
 80004f8:	4b08      	ldr	r3, [pc, #32]	; (800051c <delay_ns+0x3c>)
 80004fa:	f502 72fa 	add.w	r2, r2, #500	; 0x1f4
 80004fe:	fba3 3202 	umull	r3, r2, r3, r2
 8000502:	0992      	lsrs	r2, r2, #6
 8000504:	6863      	ldr	r3, [r4, #4]
 8000506:	1a5b      	subs	r3, r3, r1
 8000508:	4293      	cmp	r3, r2
 800050a:	d3fb      	bcc.n	8000504 <delay_ns+0x24>
 800050c:	bc30      	pop	{r4, r5}
 800050e:	4770      	bx	lr
 8000510:	20000000 	.word	0x20000000
 8000514:	e0001000 	.word	0xe0001000
 8000518:	431bde83 	.word	0x431bde83
 800051c:	10624dd3 	.word	0x10624dd3

08000520 <fmav_crc_accumulate>:
 8000520:	8802      	ldrh	r2, [r0, #0]
 8000522:	4051      	eors	r1, r2
 8000524:	ea81 1101 	eor.w	r1, r1, r1, lsl #4
 8000528:	b2c9      	uxtb	r1, r1
 800052a:	00cb      	lsls	r3, r1, #3
 800052c:	ea83 2301 	eor.w	r3, r3, r1, lsl #8
 8000530:	ea83 2312 	eor.w	r3, r3, r2, lsr #8
 8000534:	ea83 1111 	eor.w	r1, r3, r1, lsr #4
 8000538:	8001      	strh	r1, [r0, #0]
 800053a:	4770      	bx	lr

0800053c <fmav_crc_accumulate_buf>:
 800053c:	b538      	push	{r3, r4, r5, lr}
 800053e:	460c      	mov	r4, r1
 8000540:	188d      	adds	r5, r1, r2
 8000542:	42ac      	cmp	r4, r5
 8000544:	d004      	beq.n	8000550 <fmav_crc_accumulate_buf+0x14>
 8000546:	f814 1b01 	ldrb.w	r1, [r4], #1
 800054a:	f7ff ffe9 	bl	8000520 <fmav_crc_accumulate>
 800054e:	e7f8      	b.n	8000542 <fmav_crc_accumulate_buf+0x6>
 8000550:	bd38      	pop	{r3, r4, r5, pc}
	...

08000554 <_ZN8SxDriver8SetDelayEt>:
 8000554:	4b05      	ldr	r3, [pc, #20]	; (800056c <_ZN8SxDriver8SetDelayEt+0x18>)
 8000556:	4a06      	ldr	r2, [pc, #24]	; (8000570 <_ZN8SxDriver8SetDelayEt+0x1c>)
 8000558:	681b      	ldr	r3, [r3, #0]
 800055a:	fbb3 f3f2 	udiv	r3, r3, r2
 800055e:	4359      	muls	r1, r3
 8000560:	4b04      	ldr	r3, [pc, #16]	; (8000574 <_ZN8SxDriver8SetDelayEt+0x20>)
 8000562:	6081      	str	r1, [r0, #8]
 8000564:	685b      	ldr	r3, [r3, #4]
 8000566:	60c3      	str	r3, [r0, #12]
 8000568:	4770      	bx	lr
 800056a:	bf00      	nop
 800056c:	20000000 	.word	0x20000000
 8000570:	000f4240 	.word	0x000f4240
 8000574:	e0001000 	.word	0xe0001000

08000578 <_ZN8SxDriver9SpiSelectEv>:
 8000578:	b508      	push	{r3, lr}
 800057a:	2096      	movs	r0, #150	; 0x96
 800057c:	f7ff ffb0 	bl	80004e0 <delay_ns>
 8000580:	f44f 5280 	mov.w	r2, #4096	; 0x1000
 8000584:	4b03      	ldr	r3, [pc, #12]	; (8000594 <_ZN8SxDriver9SpiSelectEv+0x1c>)
 8000586:	2032      	movs	r0, #50	; 0x32
 8000588:	615a      	str	r2, [r3, #20]
 800058a:	e8bd 4008 	ldmia.w	sp!, {r3, lr}
 800058e:	f7ff bfa7 	b.w	80004e0 <delay_ns>
 8000592:	bf00      	nop
 8000594:	40010c00 	.word	0x40010c00

08000598 <_ZN8SxDriver11SpiDeselectEv>:
 8000598:	b508      	push	{r3, lr}
 800059a:	2032      	movs	r0, #50	; 0x32
 800059c:	f7ff ffa0 	bl	80004e0 <delay_ns>
 80005a0:	f44f 5280 	mov.w	r2, #4096	; 0x1000
 80005a4:	4b03      	ldr	r3, [pc, #12]	; (80005b4 <_ZN8SxDriver11SpiDeselectEv+0x1c>)
 80005a6:	2064      	movs	r0, #100	; 0x64
 80005a8:	611a      	str	r2, [r3, #16]
 80005aa:	e8bd 4008 	ldmia.w	sp!, {r3, lr}
 80005ae:	f7ff bf97 	b.w	80004e0 <delay_ns>
 80005b2:	bf00      	nop
 80005b4:	40010c00 	.word	0x40010c00

080005b8 <_ZN8tMBridge6tim_usEv>:
 80005b8:	4b01      	ldr	r3, [pc, #4]	; (80005c0 <_ZN8tMBridge6tim_usEv+0x8>)
 80005ba:	6a58      	ldr	r0, [r3, #36]	; 0x24
 80005bc:	b280      	uxth	r0, r0
 80005be:	4770      	bx	lr
 80005c0:	40000400 	.word	0x40000400

080005c4 <_ZN8tMBridge15mb_rx_availableEv>:
 80005c4:	4b04      	ldr	r3, [pc, #16]	; (80005d8 <_ZN8tMBridge15mb_rx_availableEv+0x14>)
 80005c6:	8818      	ldrh	r0, [r3, #0]
 80005c8:	4b04      	ldr	r3, [pc, #16]	; (80005dc <_ZN8tMBridge15mb_rx_availableEv+0x18>)
 80005ca:	b280      	uxth	r0, r0
 80005cc:	881b      	ldrh	r3, [r3, #0]
 80005ce:	b29b      	uxth	r3, r3
 80005d0:	1ac0      	subs	r0, r0, r3
 80005d2:	bf18      	it	ne
 80005d4:	2001      	movne	r0, #1
 80005d6:	4770      	bx	lr
 80005d8:	20000a8a 	.word	0x20000a8a
 80005dc:	20000a88 	.word	0x20000a88

080005e0 <_ZN8tMBridge19serial_rx_availableEv>:
 80005e0:	f200 2052 	addw	r0, r0, #594	; 0x252
 80005e4:	f7ff be2c 	b.w	8000240 <_ZN8FifoBase9availableEv>

080005e8 <_ZN8tMBridge11serial_getcEv>:
 80005e8:	f200 2052 	addw	r0, r0, #594	; 0x252
 80005ec:	f7ff be39 	b.w	8000262 <_ZN8FifoBase4getcEv>

080005f0 <_ZN8tMBridge4putcEc>:
 80005f0:	f200 2052 	addw	r0, r0, #594	; 0x252
 80005f4:	f7ff be08 	b.w	8000208 <_ZN8FifoBase4putcEc>

080005f8 <_ZThn72_N8tMBridge4putcEc>:
 80005f8:	f1a0 0048 	sub.w	r0, r0, #72	; 0x48
 80005fc:	e7f8      	b.n	80005f0 <_ZN8tMBridge4putcEc>

080005fe <_ZN8tMBridge11serial_putcEc>:
 80005fe:	304c      	adds	r0, #76	; 0x4c
 8000600:	f7ff be02 	b.w	8000208 <_ZN8FifoBase4putcEc>

08000604 <_ZN8SxDriver10WaitOnBusyEv>:
 8000604:	6883      	ldr	r3, [r0, #8]
 8000606:	b153      	cbz	r3, 800061e <_ZN8SxDriver10WaitOnBusyEv+0x1a>
 8000608:	4a05      	ldr	r2, [pc, #20]	; (8000620 <_ZN8SxDriver10WaitOnBusyEv+0x1c>)
 800060a:	68c1      	ldr	r1, [r0, #12]
 800060c:	6853      	ldr	r3, [r2, #4]
 800060e:	1a5b      	subs	r3, r3, r1
 8000610:	6881      	ldr	r1, [r0, #8]
 8000612:	428b      	cmp	r3, r1
 8000614:	d201      	bcs.n	800061a <_ZN8SxDriver10WaitOnBusyEv+0x16>
 8000616:	bf00      	nop
 8000618:	e7f7      	b.n	800060a <_ZN8SxDriver10WaitOnBusyEv+0x6>
 800061a:	2300      	movs	r3, #0
 800061c:	6083      	str	r3, [r0, #8]
 800061e:	4770      	bx	lr
 8000620:	e0001000 	.word	0xe0001000

08000624 <uart_rx_enableisr.part.0>:
 8000624:	f06f 0220 	mvn.w	r2, #32
 8000628:	4b03      	ldr	r3, [pc, #12]	; (8000638 <uart_rx_enableisr.part.0+0x14>)
 800062a:	601a      	str	r2, [r3, #0]
 800062c:	68da      	ldr	r2, [r3, #12]
 800062e:	f042 0220 	orr.w	r2, r2, #32
 8000632:	60da      	str	r2, [r3, #12]
 8000634:	4770      	bx	lr
 8000636:	bf00      	nop
 8000638:	40013800 	.word	0x40013800

0800063c <fmav_finalize_msg.isra.0.constprop.0>:
 800063c:	b57f      	push	{r0, r1, r2, r3, r4, r5, r6, lr}
 800063e:	23fd      	movs	r3, #253	; 0xfd
 8000640:	4c2e      	ldr	r4, [pc, #184]	; (80006fc <fmav_finalize_msg.isra.0.constprop.0+0xc0>)
 8000642:	f88d 3004 	strb.w	r3, [sp, #4]
 8000646:	7023      	strb	r3, [r4, #0]
 8000648:	f894 3124 	ldrb.w	r3, [r4, #292]	; 0x124
 800064c:	f103 020b 	add.w	r2, r3, #11
 8000650:	4422      	add	r2, r4
 8000652:	2b01      	cmp	r3, #1
 8000654:	d905      	bls.n	8000662 <fmav_finalize_msg.isra.0.constprop.0+0x26>
 8000656:	f812 1901 	ldrb.w	r1, [r2], #-1
 800065a:	b911      	cbnz	r1, 8000662 <fmav_finalize_msg.isra.0.constprop.0+0x26>
 800065c:	3b01      	subs	r3, #1
 800065e:	b2db      	uxtb	r3, r3
 8000660:	e7f7      	b.n	8000652 <fmav_finalize_msg.isra.0.constprop.0+0x16>
 8000662:	4a27      	ldr	r2, [pc, #156]	; (8000700 <fmav_finalize_msg.isra.0.constprop.0+0xc4>)
 8000664:	7063      	strb	r3, [r4, #1]
 8000666:	f88d 3005 	strb.w	r3, [sp, #5]
 800066a:	7a93      	ldrb	r3, [r2, #10]
 800066c:	2500      	movs	r5, #0
 800066e:	7123      	strb	r3, [r4, #4]
 8000670:	f88d 3008 	strb.w	r3, [sp, #8]
 8000674:	3301      	adds	r3, #1
 8000676:	7293      	strb	r3, [r2, #10]
 8000678:	7963      	ldrb	r3, [r4, #5]
 800067a:	8065      	strh	r5, [r4, #2]
 800067c:	f88d 3009 	strb.w	r3, [sp, #9]
 8000680:	79a3      	ldrb	r3, [r4, #6]
 8000682:	f8ad 5006 	strh.w	r5, [sp, #6]
 8000686:	f88d 300a 	strb.w	r3, [sp, #10]
 800068a:	68a3      	ldr	r3, [r4, #8]
 800068c:	ae01      	add	r6, sp, #4
 800068e:	f3c3 0317 	ubfx	r3, r3, #0, #24
 8000692:	121a      	asrs	r2, r3, #8
 8000694:	f88d 300b 	strb.w	r3, [sp, #11]
 8000698:	141b      	asrs	r3, r3, #16
 800069a:	f88d 300d 	strb.w	r3, [sp, #13]
 800069e:	f64f 73ff 	movw	r3, #65535	; 0xffff
 80006a2:	f88d 200c 	strb.w	r2, [sp, #12]
 80006a6:	f8ad 3002 	strh.w	r3, [sp, #2]
 80006aa:	3501      	adds	r5, #1
 80006ac:	2d0a      	cmp	r5, #10
 80006ae:	d005      	beq.n	80006bc <fmav_finalize_msg.isra.0.constprop.0+0x80>
 80006b0:	5d71      	ldrb	r1, [r6, r5]
 80006b2:	f10d 0002 	add.w	r0, sp, #2
 80006b6:	f7ff ff33 	bl	8000520 <fmav_crc_accumulate>
 80006ba:	e7f6      	b.n	80006aa <fmav_finalize_msg.isra.0.constprop.0+0x6e>
 80006bc:	7862      	ldrb	r2, [r4, #1]
 80006be:	4911      	ldr	r1, [pc, #68]	; (8000704 <fmav_finalize_msg.isra.0.constprop.0+0xc8>)
 80006c0:	f10d 0002 	add.w	r0, sp, #2
 80006c4:	f7ff ff3a 	bl	800053c <fmav_crc_accumulate_buf>
 80006c8:	f894 1123 	ldrb.w	r1, [r4, #291]	; 0x123
 80006cc:	f10d 0002 	add.w	r0, sp, #2
 80006d0:	f7ff ff26 	bl	8000520 <fmav_crc_accumulate>
 80006d4:	f8bd 3002 	ldrh.w	r3, [sp, #2]
 80006d8:	f894 2124 	ldrb.w	r2, [r4, #292]	; 0x124
 80006dc:	f8a4 310c 	strh.w	r3, [r4, #268]	; 0x10c
 80006e0:	7863      	ldrb	r3, [r4, #1]
 80006e2:	4293      	cmp	r3, r2
 80006e4:	d206      	bcs.n	80006f4 <fmav_finalize_msg.isra.0.constprop.0+0xb8>
 80006e6:	f103 000c 	add.w	r0, r3, #12
 80006ea:	2100      	movs	r1, #0
 80006ec:	1ad2      	subs	r2, r2, r3
 80006ee:	4420      	add	r0, r4
 80006f0:	f002 fd40 	bl	8003174 <memset>
 80006f4:	7860      	ldrb	r0, [r4, #1]
 80006f6:	300c      	adds	r0, #12
 80006f8:	b004      	add	sp, #16
 80006fa:	bd70      	pop	{r4, r5, r6, pc}
 80006fc:	200005b8 	.word	0x200005b8
 8000700:	200006f0 	.word	0x200006f0
 8000704:	200005c4 	.word	0x200005c4

08000708 <rcc_init_afio>:
 8000708:	2001      	movs	r0, #1
 800070a:	f7ff bedb 	b.w	80004c4 <LL_APB2_GRP1_EnableClock>
	...

08000710 <rcc_init_gpio>:
 8000710:	4b0f      	ldr	r3, [pc, #60]	; (8000750 <rcc_init_gpio+0x40>)
 8000712:	4298      	cmp	r0, r3
 8000714:	d102      	bne.n	800071c <rcc_init_gpio+0xc>
 8000716:	2004      	movs	r0, #4
 8000718:	f7ff bed4 	b.w	80004c4 <LL_APB2_GRP1_EnableClock>
 800071c:	4b0d      	ldr	r3, [pc, #52]	; (8000754 <rcc_init_gpio+0x44>)
 800071e:	4298      	cmp	r0, r3
 8000720:	d006      	beq.n	8000730 <rcc_init_gpio+0x20>
 8000722:	f503 6380 	add.w	r3, r3, #1024	; 0x400
 8000726:	4298      	cmp	r0, r3
 8000728:	d105      	bne.n	8000736 <rcc_init_gpio+0x26>
 800072a:	2010      	movs	r0, #16
 800072c:	f7ff beca 	b.w	80004c4 <LL_APB2_GRP1_EnableClock>
 8000730:	2008      	movs	r0, #8
 8000732:	f7ff bec7 	b.w	80004c4 <LL_APB2_GRP1_EnableClock>
 8000736:	4b08      	ldr	r3, [pc, #32]	; (8000758 <rcc_init_gpio+0x48>)
 8000738:	4298      	cmp	r0, r3
 800073a:	d102      	bne.n	8000742 <rcc_init_gpio+0x32>
 800073c:	2020      	movs	r0, #32
 800073e:	f7ff bec1 	b.w	80004c4 <LL_APB2_GRP1_EnableClock>
 8000742:	4b06      	ldr	r3, [pc, #24]	; (800075c <rcc_init_gpio+0x4c>)
 8000744:	4298      	cmp	r0, r3
 8000746:	d000      	beq.n	800074a <rcc_init_gpio+0x3a>
 8000748:	4770      	bx	lr
 800074a:	2040      	movs	r0, #64	; 0x40
 800074c:	f7ff beba 	b.w	80004c4 <LL_APB2_GRP1_EnableClock>
 8000750:	40010800 	.word	0x40010800
 8000754:	40010c00 	.word	0x40010c00
 8000758:	40011400 	.word	0x40011400
 800075c:	40011800 	.word	0x40011800

08000760 <rcc_init_tim>:
 8000760:	4b0c      	ldr	r3, [pc, #48]	; (8000794 <rcc_init_tim+0x34>)
 8000762:	4298      	cmp	r0, r3
 8000764:	d103      	bne.n	800076e <rcc_init_tim+0xe>
 8000766:	f44f 6000 	mov.w	r0, #2048	; 0x800
 800076a:	f7ff beab 	b.w	80004c4 <LL_APB2_GRP1_EnableClock>
 800076e:	f1b0 4f80 	cmp.w	r0, #1073741824	; 0x40000000
 8000772:	d005      	beq.n	8000780 <rcc_init_tim+0x20>
 8000774:	4b08      	ldr	r3, [pc, #32]	; (8000798 <rcc_init_tim+0x38>)
 8000776:	4298      	cmp	r0, r3
 8000778:	d105      	bne.n	8000786 <rcc_init_tim+0x26>
 800077a:	2002      	movs	r0, #2
 800077c:	f7ff be94 	b.w	80004a8 <LL_APB1_GRP1_EnableClock>
 8000780:	2001      	movs	r0, #1
 8000782:	f7ff be91 	b.w	80004a8 <LL_APB1_GRP1_EnableClock>
 8000786:	4b05      	ldr	r3, [pc, #20]	; (800079c <rcc_init_tim+0x3c>)
 8000788:	4298      	cmp	r0, r3
 800078a:	d102      	bne.n	8000792 <rcc_init_tim+0x32>
 800078c:	2004      	movs	r0, #4
 800078e:	f7ff be8b 	b.w	80004a8 <LL_APB1_GRP1_EnableClock>
 8000792:	4770      	bx	lr
 8000794:	40012c00 	.word	0x40012c00
 8000798:	40000400 	.word	0x40000400
 800079c:	40000800 	.word	0x40000800

080007a0 <_gpio_init>:
 80007a0:	e92d 41f0 	stmdb	sp!, {r4, r5, r6, r7, r8, lr}
 80007a4:	460c      	mov	r4, r1
 80007a6:	4615      	mov	r5, r2
 80007a8:	b086      	sub	sp, #24
 80007aa:	4607      	mov	r7, r0
 80007ac:	2210      	movs	r2, #16
 80007ae:	2100      	movs	r1, #0
 80007b0:	a802      	add	r0, sp, #8
 80007b2:	461e      	mov	r6, r3
 80007b4:	f89d 8034 	ldrb.w	r8, [sp, #52]	; 0x34
 80007b8:	f002 fcdc 	bl	8003174 <memset>
 80007bc:	9401      	str	r4, [sp, #4]
 80007be:	2d0b      	cmp	r5, #11
 80007c0:	d807      	bhi.n	80007d2 <_gpio_init+0x32>
 80007c2:	e8df f005 	tbb	[pc, r5]
 80007c6:	0707      	.short	0x0707
 80007c8:	1919140f 	.word	0x1919140f
 80007cc:	1e1e1e19 	.word	0x1e1e1e19
 80007d0:	2823      	.short	0x2823
 80007d2:	e7fe      	b.n	80007d2 <_gpio_init+0x32>
 80007d4:	2300      	movs	r3, #0
 80007d6:	9302      	str	r3, [sp, #8]
 80007d8:	2e03      	cmp	r6, #3
 80007da:	d821      	bhi.n	8000820 <_gpio_init+0x80>
 80007dc:	e8df f006 	tbb	[pc, r6]
 80007e0:	21343121 	.word	0x21343121
 80007e4:	2308      	movs	r3, #8
 80007e6:	9302      	str	r3, [sp, #8]
 80007e8:	2300      	movs	r3, #0
 80007ea:	9305      	str	r3, [sp, #20]
 80007ec:	e7f4      	b.n	80007d8 <_gpio_init+0x38>
 80007ee:	2308      	movs	r3, #8
 80007f0:	9302      	str	r3, [sp, #8]
 80007f2:	2301      	movs	r3, #1
 80007f4:	9305      	str	r3, [sp, #20]
 80007f6:	e7ef      	b.n	80007d8 <_gpio_init+0x38>
 80007f8:	2301      	movs	r3, #1
 80007fa:	9302      	str	r3, [sp, #8]
 80007fc:	2300      	movs	r3, #0
 80007fe:	9304      	str	r3, [sp, #16]
 8000800:	e7ea      	b.n	80007d8 <_gpio_init+0x38>
 8000802:	2301      	movs	r3, #1
 8000804:	9302      	str	r3, [sp, #8]
 8000806:	2304      	movs	r3, #4
 8000808:	9304      	str	r3, [sp, #16]
 800080a:	e7e5      	b.n	80007d8 <_gpio_init+0x38>
 800080c:	2309      	movs	r3, #9
 800080e:	9302      	str	r3, [sp, #8]
 8000810:	2300      	movs	r3, #0
 8000812:	9304      	str	r3, [sp, #16]
 8000814:	e7e0      	b.n	80007d8 <_gpio_init+0x38>
 8000816:	2309      	movs	r3, #9
 8000818:	9302      	str	r3, [sp, #8]
 800081a:	2304      	movs	r3, #4
 800081c:	9304      	str	r3, [sp, #16]
 800081e:	e7db      	b.n	80007d8 <_gpio_init+0x38>
 8000820:	e7fe      	b.n	8000820 <_gpio_init+0x80>
 8000822:	2303      	movs	r3, #3
 8000824:	9303      	str	r3, [sp, #12]
 8000826:	f1b8 0f00 	cmp.w	r8, #0
 800082a:	d002      	beq.n	8000832 <_gpio_init+0x92>
 800082c:	4638      	mov	r0, r7
 800082e:	f7ff ff6f 	bl	8000710 <rcc_init_gpio>
 8000832:	3d05      	subs	r5, #5
 8000834:	2d04      	cmp	r5, #4
 8000836:	d80d      	bhi.n	8000854 <_gpio_init+0xb4>
 8000838:	e8df f005 	tbb	[pc, r5]
 800083c:	090c1309 	.word	0x090c1309
 8000840:	13          	.byte	0x13
 8000841:	00          	.byte	0x00
 8000842:	2302      	movs	r3, #2
 8000844:	9303      	str	r3, [sp, #12]
 8000846:	e7ee      	b.n	8000826 <_gpio_init+0x86>
 8000848:	2301      	movs	r3, #1
 800084a:	9303      	str	r3, [sp, #12]
 800084c:	e7eb      	b.n	8000826 <_gpio_init+0x86>
 800084e:	f3c4 240f 	ubfx	r4, r4, #8, #16
 8000852:	617c      	str	r4, [r7, #20]
 8000854:	4638      	mov	r0, r7
 8000856:	a901      	add	r1, sp, #4
 8000858:	f001 ffaa 	bl	80027b0 <LL_GPIO_Init>
 800085c:	b006      	add	sp, #24
 800085e:	e8bd 81f0 	ldmia.w	sp!, {r4, r5, r6, r7, r8, pc}
 8000862:	f3c4 240f 	ubfx	r4, r4, #8, #16
 8000866:	613c      	str	r4, [r7, #16]
 8000868:	e7f4      	b.n	8000854 <_gpio_init+0xb4>

0800086a <gpio_init>:
 800086a:	b513      	push	{r0, r1, r4, lr}
 800086c:	f04f 0c01 	mov.w	ip, #1
 8000870:	2400      	movs	r4, #0
 8000872:	e9cd 4c00 	strd	r4, ip, [sp]
 8000876:	f7ff ff93 	bl	80007a0 <_gpio_init>
 800087a:	b002      	add	sp, #8
 800087c:	bd10      	pop	{r4, pc}
	...

08000880 <tim_config_up>:
 8000880:	b570      	push	{r4, r5, r6, lr}
 8000882:	4604      	mov	r4, r0
 8000884:	4616      	mov	r6, r2
 8000886:	b086      	sub	sp, #24
 8000888:	460d      	mov	r5, r1
 800088a:	2214      	movs	r2, #20
 800088c:	2100      	movs	r1, #0
 800088e:	a801      	add	r0, sp, #4
 8000890:	f002 fc70 	bl	8003174 <memset>
 8000894:	4620      	mov	r0, r4
 8000896:	f7ff ff63 	bl	8000760 <rcc_init_tim>
 800089a:	2e04      	cmp	r6, #4
 800089c:	d804      	bhi.n	80008a8 <tim_config_up+0x28>
 800089e:	e8df f006 	tbb	[pc, r6]
 80008a2:	312a      	.short	0x312a
 80008a4:	3804      	.short	0x3804
 80008a6:	42          	.byte	0x42
 80008a7:	00          	.byte	0x00
 80008a8:	e7fe      	b.n	80008a8 <tim_config_up+0x28>
 80008aa:	4b20      	ldr	r3, [pc, #128]	; (800092c <tim_config_up+0xac>)
 80008ac:	4a20      	ldr	r2, [pc, #128]	; (8000930 <tim_config_up+0xb0>)
 80008ae:	681b      	ldr	r3, [r3, #0]
 80008b0:	fbb3 f3f2 	udiv	r3, r3, r2
 80008b4:	b29b      	uxth	r3, r3
 80008b6:	2200      	movs	r2, #0
 80008b8:	3b01      	subs	r3, #1
 80008ba:	4620      	mov	r0, r4
 80008bc:	a901      	add	r1, sp, #4
 80008be:	f8ad 3004 	strh.w	r3, [sp, #4]
 80008c2:	e9cd 2502 	strd	r2, r5, [sp, #8]
 80008c6:	9204      	str	r2, [sp, #16]
 80008c8:	9205      	str	r2, [sp, #20]
 80008ca:	f002 f883 	bl	80029d4 <LL_TIM_Init>
 80008ce:	6823      	ldr	r3, [r4, #0]
 80008d0:	f023 0380 	bic.w	r3, r3, #128	; 0x80
 80008d4:	6023      	str	r3, [r4, #0]
 80008d6:	68a3      	ldr	r3, [r4, #8]
 80008d8:	f423 4380 	bic.w	r3, r3, #16384	; 0x4000
 80008dc:	f023 0307 	bic.w	r3, r3, #7
 80008e0:	60a3      	str	r3, [r4, #8]
 80008e2:	6863      	ldr	r3, [r4, #4]
 80008e4:	f023 0370 	bic.w	r3, r3, #112	; 0x70
 80008e8:	6063      	str	r3, [r4, #4]
 80008ea:	68a3      	ldr	r3, [r4, #8]
 80008ec:	f023 0380 	bic.w	r3, r3, #128	; 0x80
 80008f0:	60a3      	str	r3, [r4, #8]
 80008f2:	b006      	add	sp, #24
 80008f4:	bd70      	pop	{r4, r5, r6, pc}
 80008f6:	4b0d      	ldr	r3, [pc, #52]	; (800092c <tim_config_up+0xac>)
 80008f8:	4a0e      	ldr	r2, [pc, #56]	; (8000934 <tim_config_up+0xb4>)
 80008fa:	681b      	ldr	r3, [r3, #0]
 80008fc:	fbb3 f3f2 	udiv	r3, r3, r2
 8000900:	b29b      	uxth	r3, r3
 8000902:	e7d8      	b.n	80008b6 <tim_config_up+0x36>
 8000904:	4b09      	ldr	r3, [pc, #36]	; (800092c <tim_config_up+0xac>)
 8000906:	4a0c      	ldr	r2, [pc, #48]	; (8000938 <tim_config_up+0xb8>)
 8000908:	681b      	ldr	r3, [r3, #0]
 800090a:	fbb3 f3f2 	udiv	r3, r3, r2
 800090e:	b29b      	uxth	r3, r3
 8000910:	e7d1      	b.n	80008b6 <tim_config_up+0x36>
 8000912:	4b06      	ldr	r3, [pc, #24]	; (800092c <tim_config_up+0xac>)
 8000914:	4a07      	ldr	r2, [pc, #28]	; (8000934 <tim_config_up+0xb4>)
 8000916:	681b      	ldr	r3, [r3, #0]
 8000918:	fbb3 f3f2 	udiv	r3, r3, r2
 800091c:	eb03 0383 	add.w	r3, r3, r3, lsl #2
 8000920:	005b      	lsls	r3, r3, #1
 8000922:	b29b      	uxth	r3, r3
 8000924:	e7c7      	b.n	80008b6 <tim_config_up+0x36>
 8000926:	2301      	movs	r3, #1
 8000928:	e7c5      	b.n	80008b6 <tim_config_up+0x36>
 800092a:	bf00      	nop
 800092c:	20000000 	.word	0x20000000
 8000930:	0112a880 	.word	0x0112a880
 8000934:	000f4240 	.word	0x000f4240
 8000938:	007a1200 	.word	0x007a1200

0800093c <tim_init_up>:
 800093c:	b510      	push	{r4, lr}
 800093e:	4604      	mov	r4, r0
 8000940:	f7ff ff9e 	bl	8000880 <tim_config_up>
 8000944:	6823      	ldr	r3, [r4, #0]
 8000946:	f043 0301 	orr.w	r3, r3, #1
 800094a:	6023      	str	r3, [r4, #0]
 800094c:	bd10      	pop	{r4, pc}

0800094e <tim_init_1us_freerunning>:
 800094e:	2200      	movs	r2, #0
 8000950:	f64f 71ff 	movw	r1, #65535	; 0xffff
 8000954:	f7ff bff2 	b.w	800093c <tim_init_up>

08000958 <_Z12sx_init_gpiov>:
 8000958:	b510      	push	{r4, lr}
 800095a:	4c0e      	ldr	r4, [pc, #56]	; (8000994 <_Z12sx_init_gpiov+0x3c>)
 800095c:	2303      	movs	r3, #3
 800095e:	4620      	mov	r0, r4
 8000960:	2206      	movs	r2, #6
 8000962:	f640 0108 	movw	r1, #2056	; 0x808
 8000966:	f7ff ff80 	bl	800086a <gpio_init>
 800096a:	4620      	mov	r0, r4
 800096c:	2303      	movs	r3, #3
 800096e:	2205      	movs	r2, #5
 8000970:	f241 0110 	movw	r1, #4112	; 0x1010
 8000974:	f7ff ff79 	bl	800086a <gpio_init>
 8000978:	4620      	mov	r0, r4
 800097a:	2303      	movs	r3, #3
 800097c:	2206      	movs	r2, #6
 800097e:	4906      	ldr	r1, [pc, #24]	; (8000998 <_Z12sx_init_gpiov+0x40>)
 8000980:	f7ff ff73 	bl	800086a <gpio_init>
 8000984:	4620      	mov	r0, r4
 8000986:	e8bd 4010 	ldmia.w	sp!, {r4, lr}
 800098a:	2303      	movs	r3, #3
 800098c:	2202      	movs	r2, #2
 800098e:	4903      	ldr	r1, [pc, #12]	; (800099c <_Z12sx_init_gpiov+0x44>)
 8000990:	f7ff bf6b 	b.w	800086a <gpio_init>
 8000994:	40010c00 	.word	0x40010c00
 8000998:	04020002 	.word	0x04020002
 800099c:	04010001 	.word	0x04010001

080009a0 <_Z24sx_dio1_init_exti_isroffv>:
 80009a0:	4813      	ldr	r0, [pc, #76]	; (80009f0 <_Z24sx_dio1_init_exti_isroffv+0x50>)
 80009a2:	220f      	movs	r2, #15
 80009a4:	6903      	ldr	r3, [r0, #16]
 80009a6:	fa92 f2a2 	rbit	r2, r2
 80009aa:	2101      	movs	r1, #1
 80009ac:	fab2 f282 	clz	r2, r2
 80009b0:	f023 030f 	bic.w	r3, r3, #15
 80009b4:	fa01 f202 	lsl.w	r2, r1, r2
 80009b8:	4313      	orrs	r3, r2
 80009ba:	6103      	str	r3, [r0, #16]
 80009bc:	4b0d      	ldr	r3, [pc, #52]	; (80009f4 <_Z24sx_dio1_init_exti_isroffv+0x54>)
 80009be:	685a      	ldr	r2, [r3, #4]
 80009c0:	f422 7280 	bic.w	r2, r2, #256	; 0x100
 80009c4:	605a      	str	r2, [r3, #4]
 80009c6:	681a      	ldr	r2, [r3, #0]
 80009c8:	f422 7280 	bic.w	r2, r2, #256	; 0x100
 80009cc:	601a      	str	r2, [r3, #0]
 80009ce:	68da      	ldr	r2, [r3, #12]
 80009d0:	f422 7280 	bic.w	r2, r2, #256	; 0x100
 80009d4:	60da      	str	r2, [r3, #12]
 80009d6:	689a      	ldr	r2, [r3, #8]
 80009d8:	f442 7280 	orr.w	r2, r2, #256	; 0x100
 80009dc:	609a      	str	r2, [r3, #8]
 80009de:	22b0      	movs	r2, #176	; 0xb0
 80009e0:	4b05      	ldr	r3, [pc, #20]	; (80009f8 <_Z24sx_dio1_init_exti_isroffv+0x58>)
 80009e2:	f883 2317 	strb.w	r2, [r3, #791]	; 0x317
 80009e6:	f44f 0200 	mov.w	r2, #8388608	; 0x800000
 80009ea:	601a      	str	r2, [r3, #0]
 80009ec:	4770      	bx	lr
 80009ee:	bf00      	nop
 80009f0:	40010000 	.word	0x40010000
 80009f4:	40010400 	.word	0x40010400
 80009f8:	e000e100 	.word	0xe000e100

080009fc <_Z18sx_dio1_enable_isrv>:
 80009fc:	f44f 7280 	mov.w	r2, #256	; 0x100
 8000a00:	4b03      	ldr	r3, [pc, #12]	; (8000a10 <_Z18sx_dio1_enable_isrv+0x14>)
 8000a02:	615a      	str	r2, [r3, #20]
 8000a04:	681a      	ldr	r2, [r3, #0]
 8000a06:	f442 7280 	orr.w	r2, r2, #256	; 0x100
 8000a0a:	601a      	str	r2, [r3, #0]
 8000a0c:	4770      	bx	lr
 8000a0e:	bf00      	nop
 8000a10:	40010400 	.word	0x40010400

08000a14 <_Z9leds_initv>:
 8000a14:	b538      	push	{r3, r4, r5, lr}
 8000a16:	4d13      	ldr	r5, [pc, #76]	; (8000a64 <_Z9leds_initv+0x50>)
 8000a18:	4c13      	ldr	r4, [pc, #76]	; (8000a68 <_Z9leds_initv+0x54>)
 8000a1a:	2300      	movs	r3, #0
 8000a1c:	2206      	movs	r2, #6
 8000a1e:	f248 0180 	movw	r1, #32896	; 0x8080
 8000a22:	4628      	mov	r0, r5
 8000a24:	f7ff ff21 	bl	800086a <gpio_init>
 8000a28:	2300      	movs	r3, #0
 8000a2a:	2206      	movs	r2, #6
 8000a2c:	4628      	mov	r0, r5
 8000a2e:	490f      	ldr	r1, [pc, #60]	; (8000a6c <_Z9leds_initv+0x58>)
 8000a30:	f7ff ff1b 	bl	800086a <gpio_init>
 8000a34:	2300      	movs	r3, #0
 8000a36:	2206      	movs	r2, #6
 8000a38:	f240 2102 	movw	r1, #514	; 0x202
 8000a3c:	4620      	mov	r0, r4
 8000a3e:	f7ff ff14 	bl	800086a <gpio_init>
 8000a42:	2300      	movs	r3, #0
 8000a44:	2206      	movs	r2, #6
 8000a46:	f240 4104 	movw	r1, #1028	; 0x404
 8000a4a:	4620      	mov	r0, r4
 8000a4c:	f7ff ff0d 	bl	800086a <gpio_init>
 8000a50:	2380      	movs	r3, #128	; 0x80
 8000a52:	612b      	str	r3, [r5, #16]
 8000a54:	f44f 4300 	mov.w	r3, #32768	; 0x8000
 8000a58:	612b      	str	r3, [r5, #16]
 8000a5a:	2304      	movs	r3, #4
 8000a5c:	6123      	str	r3, [r4, #16]
 8000a5e:	2302      	movs	r3, #2
 8000a60:	6123      	str	r3, [r4, #16]
 8000a62:	bd38      	pop	{r3, r4, r5, pc}
 8000a64:	40010800 	.word	0x40010800
 8000a68:	40010c00 	.word	0x40010c00
 8000a6c:	04800080 	.word	0x04800080

08000a70 <_Z15pos_switch_initv>:
 8000a70:	b510      	push	{r4, lr}
 8000a72:	4c0f      	ldr	r4, [pc, #60]	; (8000ab0 <_Z15pos_switch_initv+0x40>)
 8000a74:	2300      	movs	r3, #0
 8000a76:	4620      	mov	r0, r4
 8000a78:	2203      	movs	r2, #3
 8000a7a:	f240 1101 	movw	r1, #257	; 0x101
 8000a7e:	f7ff fef4 	bl	800086a <gpio_init>
 8000a82:	4620      	mov	r0, r4
 8000a84:	2300      	movs	r3, #0
 8000a86:	2203      	movs	r2, #3
 8000a88:	f240 2102 	movw	r1, #514	; 0x202
 8000a8c:	f7ff feed 	bl	800086a <gpio_init>
 8000a90:	4620      	mov	r0, r4
 8000a92:	2300      	movs	r3, #0
 8000a94:	2203      	movs	r2, #3
 8000a96:	f241 0110 	movw	r1, #4112	; 0x1010
 8000a9a:	f7ff fee6 	bl	800086a <gpio_init>
 8000a9e:	4620      	mov	r0, r4
 8000aa0:	e8bd 4010 	ldmia.w	sp!, {r4, lr}
 8000aa4:	2300      	movs	r3, #0
 8000aa6:	2203      	movs	r2, #3
 8000aa8:	f242 0120 	movw	r1, #8224	; 0x2020
 8000aac:	f7ff bedd 	b.w	800086a <gpio_init>
 8000ab0:	40010800 	.word	0x40010800

08000ab4 <_Z11button_initv>:
 8000ab4:	2300      	movs	r3, #0
 8000ab6:	2203      	movs	r2, #3
 8000ab8:	f240 1101 	movw	r1, #257	; 0x101
 8000abc:	4801      	ldr	r0, [pc, #4]	; (8000ac4 <_Z11button_initv+0x10>)
 8000abe:	f7ff bed4 	b.w	800086a <gpio_init>
 8000ac2:	bf00      	nop
 8000ac4:	40010c00 	.word	0x40010c00

08000ac8 <delay_init>:
 8000ac8:	4b0a      	ldr	r3, [pc, #40]	; (8000af4 <delay_init+0x2c>)
 8000aca:	68da      	ldr	r2, [r3, #12]
 8000acc:	f022 7280 	bic.w	r2, r2, #16777216	; 0x1000000
 8000ad0:	60da      	str	r2, [r3, #12]
 8000ad2:	68da      	ldr	r2, [r3, #12]
 8000ad4:	f042 7280 	orr.w	r2, r2, #16777216	; 0x1000000
 8000ad8:	60da      	str	r2, [r3, #12]
 8000ada:	4b07      	ldr	r3, [pc, #28]	; (8000af8 <delay_init+0x30>)
 8000adc:	681a      	ldr	r2, [r3, #0]
 8000ade:	f022 0201 	bic.w	r2, r2, #1
 8000ae2:	601a      	str	r2, [r3, #0]
 8000ae4:	681a      	ldr	r2, [r3, #0]
 8000ae6:	f042 0201 	orr.w	r2, r2, #1
 8000aea:	601a      	str	r2, [r3, #0]
 8000aec:	2200      	movs	r2, #0
 8000aee:	605a      	str	r2, [r3, #4]
 8000af0:	4770      	bx	lr
 8000af2:	bf00      	nop
 8000af4:	e000edf0 	.word	0xe000edf0
 8000af8:	e0001000 	.word	0xe0001000

08000afc <delay_us>:
 8000afc:	4a06      	ldr	r2, [pc, #24]	; (8000b18 <delay_us+0x1c>)
 8000afe:	b510      	push	{r4, lr}
 8000b00:	6812      	ldr	r2, [r2, #0]
 8000b02:	4c06      	ldr	r4, [pc, #24]	; (8000b1c <delay_us+0x20>)
 8000b04:	4b06      	ldr	r3, [pc, #24]	; (8000b20 <delay_us+0x24>)
 8000b06:	fbb2 f2f4 	udiv	r2, r2, r4
 8000b0a:	4350      	muls	r0, r2
 8000b0c:	6859      	ldr	r1, [r3, #4]
 8000b0e:	685a      	ldr	r2, [r3, #4]
 8000b10:	1a52      	subs	r2, r2, r1
 8000b12:	4282      	cmp	r2, r0
 8000b14:	d3fb      	bcc.n	8000b0e <delay_us+0x12>
 8000b16:	bd10      	pop	{r4, pc}
 8000b18:	20000000 	.word	0x20000000
 8000b1c:	000f4240 	.word	0x000f4240
 8000b20:	e0001000 	.word	0xe0001000

08000b24 <spi_transmitchar>:
 8000b24:	4b03      	ldr	r3, [pc, #12]	; (8000b34 <spi_transmitchar+0x10>)
 8000b26:	7318      	strb	r0, [r3, #12]
 8000b28:	689a      	ldr	r2, [r3, #8]
 8000b2a:	07d2      	lsls	r2, r2, #31
 8000b2c:	d5fc      	bpl.n	8000b28 <spi_transmitchar+0x4>
 8000b2e:	7b18      	ldrb	r0, [r3, #12]
 8000b30:	4770      	bx	lr
 8000b32:	bf00      	nop
 8000b34:	40003800 	.word	0x40003800

08000b38 <spi_transfer>:
 8000b38:	b538      	push	{r3, r4, r5, lr}
 8000b3a:	1e44      	subs	r4, r0, #1
 8000b3c:	188d      	adds	r5, r1, r2
 8000b3e:	42a9      	cmp	r1, r5
 8000b40:	d006      	beq.n	8000b50 <spi_transfer+0x18>
 8000b42:	f814 0f01 	ldrb.w	r0, [r4, #1]!
 8000b46:	f7ff ffed 	bl	8000b24 <spi_transmitchar>
 8000b4a:	f801 0b01 	strb.w	r0, [r1], #1
 8000b4e:	e7f6      	b.n	8000b3e <spi_transfer+0x6>
 8000b50:	bd38      	pop	{r3, r4, r5, pc}

08000b52 <_ZN8SxDriver11SpiTransferEPhS0_h>:
 8000b52:	4608      	mov	r0, r1
 8000b54:	4611      	mov	r1, r2
 8000b56:	461a      	mov	r2, r3
 8000b58:	f7ff bfee 	b.w	8000b38 <spi_transfer>

08000b5c <spi_init>:
 8000b5c:	b570      	push	{r4, r5, r6, lr}
 8000b5e:	b08e      	sub	sp, #56	; 0x38
 8000b60:	4c2b      	ldr	r4, [pc, #172]	; (8000c10 <spi_init+0xb4>)
 8000b62:	2228      	movs	r2, #40	; 0x28
 8000b64:	2100      	movs	r1, #0
 8000b66:	a804      	add	r0, sp, #16
 8000b68:	f002 fb04 	bl	8003174 <memset>
 8000b6c:	f7ff fdcc 	bl	8000708 <rcc_init_afio>
 8000b70:	f44f 4080 	mov.w	r0, #16384	; 0x4000
 8000b74:	f7ff fc98 	bl	80004a8 <LL_APB1_GRP1_EnableClock>
 8000b78:	4620      	mov	r0, r4
 8000b7a:	2303      	movs	r3, #3
 8000b7c:	2206      	movs	r2, #6
 8000b7e:	4925      	ldr	r1, [pc, #148]	; (8000c14 <spi_init+0xb8>)
 8000b80:	f7ff fe73 	bl	800086a <gpio_init>
 8000b84:	2506      	movs	r5, #6
 8000b86:	2601      	movs	r6, #1
 8000b88:	f44f 5380 	mov.w	r3, #4096	; 0x1000
 8000b8c:	4620      	mov	r0, r4
 8000b8e:	6123      	str	r3, [r4, #16]
 8000b90:	220a      	movs	r2, #10
 8000b92:	2303      	movs	r3, #3
 8000b94:	4920      	ldr	r1, [pc, #128]	; (8000c18 <spi_init+0xbc>)
 8000b96:	e9cd 5600 	strd	r5, r6, [sp]
 8000b9a:	f7ff fe01 	bl	80007a0 <_gpio_init>
 8000b9e:	4620      	mov	r0, r4
 8000ba0:	2303      	movs	r3, #3
 8000ba2:	220a      	movs	r2, #10
 8000ba4:	491d      	ldr	r1, [pc, #116]	; (8000c1c <spi_init+0xc0>)
 8000ba6:	e9cd 5600 	strd	r5, r6, [sp]
 8000baa:	f7ff fdf9 	bl	80007a0 <_gpio_init>
 8000bae:	2303      	movs	r3, #3
 8000bb0:	4620      	mov	r0, r4
 8000bb2:	461a      	mov	r2, r3
 8000bb4:	491a      	ldr	r1, [pc, #104]	; (8000c20 <spi_init+0xc4>)
 8000bb6:	e9cd 5600 	strd	r5, r6, [sp]
 8000bba:	f7ff fdf1 	bl	80007a0 <_gpio_init>
 8000bbe:	2300      	movs	r3, #0
 8000bc0:	f44f 7282 	mov.w	r2, #260	; 0x104
 8000bc4:	f44f 7100 	mov.w	r1, #512	; 0x200
 8000bc8:	e9cd 3204 	strd	r3, r2, [sp, #16]
 8000bcc:	2218      	movs	r2, #24
 8000bce:	e9cd 3306 	strd	r3, r3, [sp, #24]
 8000bd2:	e9cd 330b 	strd	r3, r3, [sp, #44]	; 0x2c
 8000bd6:	9308      	str	r3, [sp, #32]
 8000bd8:	2307      	movs	r3, #7
 8000bda:	f5a4 4454 	sub.w	r4, r4, #54272	; 0xd400
 8000bde:	e9cd 1209 	strd	r1, r2, [sp, #36]	; 0x24
 8000be2:	4620      	mov	r0, r4
 8000be4:	a904      	add	r1, sp, #16
 8000be6:	930d      	str	r3, [sp, #52]	; 0x34
 8000be8:	f001 fec8 	bl	800297c <LL_SPI_Init>
 8000bec:	6823      	ldr	r3, [r4, #0]
 8000bee:	f043 0340 	orr.w	r3, r3, #64	; 0x40
 8000bf2:	6023      	str	r3, [r4, #0]
 8000bf4:	68a3      	ldr	r3, [r4, #8]
 8000bf6:	079b      	lsls	r3, r3, #30
 8000bf8:	d5fc      	bpl.n	8000bf4 <spi_init+0x98>
 8000bfa:	7b23      	ldrb	r3, [r4, #12]
 8000bfc:	f8ad 300e 	strh.w	r3, [sp, #14]
 8000c00:	f8bd 300e 	ldrh.w	r3, [sp, #14]
 8000c04:	b29b      	uxth	r3, r3
 8000c06:	f8ad 300e 	strh.w	r3, [sp, #14]
 8000c0a:	b00e      	add	sp, #56	; 0x38
 8000c0c:	bd70      	pop	{r4, r5, r6, pc}
 8000c0e:	bf00      	nop
 8000c10:	40010c00 	.word	0x40010c00
 8000c14:	04100010 	.word	0x04100010
 8000c18:	04200020 	.word	0x04200020
 8000c1c:	04800080 	.word	0x04800080
 8000c20:	04400040 	.word	0x04400040

08000c24 <USART2_IRQHandler>:
 8000c24:	4b1a      	ldr	r3, [pc, #104]	; (8000c90 <USART2_IRQHandler+0x6c>)
 8000c26:	b510      	push	{r4, lr}
 8000c28:	681a      	ldr	r2, [r3, #0]
 8000c2a:	0690      	lsls	r0, r2, #26
 8000c2c:	d50e      	bpl.n	8000c4c <USART2_IRQHandler+0x28>
 8000c2e:	4c19      	ldr	r4, [pc, #100]	; (8000c94 <USART2_IRQHandler+0x70>)
 8000c30:	4819      	ldr	r0, [pc, #100]	; (8000c98 <USART2_IRQHandler+0x74>)
 8000c32:	6859      	ldr	r1, [r3, #4]
 8000c34:	8823      	ldrh	r3, [r4, #0]
 8000c36:	8800      	ldrh	r0, [r0, #0]
 8000c38:	3301      	adds	r3, #1
 8000c3a:	f3c3 0308 	ubfx	r3, r3, #0, #9
 8000c3e:	b280      	uxth	r0, r0
 8000c40:	4298      	cmp	r0, r3
 8000c42:	bf1f      	itttt	ne
 8000c44:	4815      	ldrne	r0, [pc, #84]	; (8000c9c <USART2_IRQHandler+0x78>)
 8000c46:	b2c9      	uxtbne	r1, r1
 8000c48:	54c1      	strbne	r1, [r0, r3]
 8000c4a:	8023      	strhne	r3, [r4, #0]
 8000c4c:	0711      	lsls	r1, r2, #28
 8000c4e:	bf44      	itt	mi
 8000c50:	4b0f      	ldrmi	r3, [pc, #60]	; (8000c90 <USART2_IRQHandler+0x6c>)
 8000c52:	685b      	ldrmi	r3, [r3, #4]
 8000c54:	0613      	lsls	r3, r2, #24
 8000c56:	d513      	bpl.n	8000c80 <USART2_IRQHandler+0x5c>
 8000c58:	4b11      	ldr	r3, [pc, #68]	; (8000ca0 <USART2_IRQHandler+0x7c>)
 8000c5a:	4a12      	ldr	r2, [pc, #72]	; (8000ca4 <USART2_IRQHandler+0x80>)
 8000c5c:	8819      	ldrh	r1, [r3, #0]
 8000c5e:	8813      	ldrh	r3, [r2, #0]
 8000c60:	b289      	uxth	r1, r1
 8000c62:	b29b      	uxth	r3, r3
 8000c64:	4299      	cmp	r1, r3
 8000c66:	d00c      	beq.n	8000c82 <USART2_IRQHandler+0x5e>
 8000c68:	8813      	ldrh	r3, [r2, #0]
 8000c6a:	3301      	adds	r3, #1
 8000c6c:	f3c3 0308 	ubfx	r3, r3, #0, #9
 8000c70:	8013      	strh	r3, [r2, #0]
 8000c72:	8813      	ldrh	r3, [r2, #0]
 8000c74:	4a0c      	ldr	r2, [pc, #48]	; (8000ca8 <USART2_IRQHandler+0x84>)
 8000c76:	b29b      	uxth	r3, r3
 8000c78:	5cd3      	ldrb	r3, [r2, r3]
 8000c7a:	4a05      	ldr	r2, [pc, #20]	; (8000c90 <USART2_IRQHandler+0x6c>)
 8000c7c:	b2db      	uxtb	r3, r3
 8000c7e:	6053      	str	r3, [r2, #4]
 8000c80:	bd10      	pop	{r4, pc}
 8000c82:	4a03      	ldr	r2, [pc, #12]	; (8000c90 <USART2_IRQHandler+0x6c>)
 8000c84:	68d3      	ldr	r3, [r2, #12]
 8000c86:	f023 0380 	bic.w	r3, r3, #128	; 0x80
 8000c8a:	60d3      	str	r3, [r2, #12]
 8000c8c:	e7f8      	b.n	8000c80 <USART2_IRQHandler+0x5c>
 8000c8e:	bf00      	nop
 8000c90:	40004400 	.word	0x40004400
 8000c94:	20000e92 	.word	0x20000e92
 8000c98:	20000e90 	.word	0x20000e90
 8000c9c:	20000c90 	.word	0x20000c90
 8000ca0:	20001096 	.word	0x20001096
 8000ca4:	20001094 	.word	0x20001094
 8000ca8:	20000e94 	.word	0x20000e94

08000cac <uartb_init_isroff>:
 8000cac:	b5f0      	push	{r4, r5, r6, r7, lr}
 8000cae:	2608      	movs	r6, #8
 8000cb0:	2701      	movs	r7, #1
 8000cb2:	4c33      	ldr	r4, [pc, #204]	; (8000d80 <uartb_init_isroff+0xd4>)
 8000cb4:	b08b      	sub	sp, #44	; 0x2c
 8000cb6:	221c      	movs	r2, #28
 8000cb8:	2100      	movs	r1, #0
 8000cba:	a803      	add	r0, sp, #12
 8000cbc:	f002 fa5a 	bl	8003174 <memset>
 8000cc0:	68e3      	ldr	r3, [r4, #12]
 8000cc2:	4d30      	ldr	r5, [pc, #192]	; (8000d84 <uartb_init_isroff+0xd8>)
 8000cc4:	f423 5300 	bic.w	r3, r3, #8192	; 0x2000
 8000cc8:	60e3      	str	r3, [r4, #12]
 8000cca:	f7ff fd1d 	bl	8000708 <rcc_init_afio>
 8000cce:	f44f 3000 	mov.w	r0, #131072	; 0x20000
 8000cd2:	f7ff fbe9 	bl	80004a8 <LL_APB1_GRP1_EnableClock>
 8000cd6:	4628      	mov	r0, r5
 8000cd8:	2303      	movs	r3, #3
 8000cda:	220a      	movs	r2, #10
 8000cdc:	f240 4104 	movw	r1, #1028	; 0x404
 8000ce0:	e9cd 6700 	strd	r6, r7, [sp]
 8000ce4:	f7ff fd5c 	bl	80007a0 <_gpio_init>
 8000ce8:	2303      	movs	r3, #3
 8000cea:	4628      	mov	r0, r5
 8000cec:	461a      	mov	r2, r3
 8000cee:	f640 0108 	movw	r1, #2056	; 0x808
 8000cf2:	e9cd 6700 	strd	r6, r7, [sp]
 8000cf6:	f7ff fd53 	bl	80007a0 <_gpio_init>
 8000cfa:	2500      	movs	r5, #0
 8000cfc:	f44f 4361 	mov.w	r3, #57600	; 0xe100
 8000d00:	e9cd 3503 	strd	r3, r5, [sp, #12]
 8000d04:	230c      	movs	r3, #12
 8000d06:	4620      	mov	r0, r4
 8000d08:	eb0d 0103 	add.w	r1, sp, r3
 8000d0c:	e9cd 3507 	strd	r3, r5, [sp, #28]
 8000d10:	e9cd 5505 	strd	r5, r5, [sp, #20]
 8000d14:	9509      	str	r5, [sp, #36]	; 0x24
 8000d16:	f001 fe95 	bl	8002a44 <LL_USART_Init>
 8000d1a:	22e0      	movs	r2, #224	; 0xe0
 8000d1c:	6923      	ldr	r3, [r4, #16]
 8000d1e:	f423 4390 	bic.w	r3, r3, #18432	; 0x4800
 8000d22:	6123      	str	r3, [r4, #16]
 8000d24:	6963      	ldr	r3, [r4, #20]
 8000d26:	f023 032a 	bic.w	r3, r3, #42	; 0x2a
 8000d2a:	6163      	str	r3, [r4, #20]
 8000d2c:	4b16      	ldr	r3, [pc, #88]	; (8000d88 <uartb_init_isroff+0xdc>)
 8000d2e:	f883 2326 	strb.w	r2, [r3, #806]	; 0x326
 8000d32:	2240      	movs	r2, #64	; 0x40
 8000d34:	605a      	str	r2, [r3, #4]
 8000d36:	68e3      	ldr	r3, [r4, #12]
 8000d38:	f023 0380 	bic.w	r3, r3, #128	; 0x80
 8000d3c:	60e3      	str	r3, [r4, #12]
 8000d3e:	f06f 0340 	mvn.w	r3, #64	; 0x40
 8000d42:	6023      	str	r3, [r4, #0]
 8000d44:	4b11      	ldr	r3, [pc, #68]	; (8000d8c <uartb_init_isroff+0xe0>)
 8000d46:	801d      	strh	r5, [r3, #0]
 8000d48:	4b11      	ldr	r3, [pc, #68]	; (8000d90 <uartb_init_isroff+0xe4>)
 8000d4a:	801d      	strh	r5, [r3, #0]
 8000d4c:	f06f 0320 	mvn.w	r3, #32
 8000d50:	6023      	str	r3, [r4, #0]
 8000d52:	68e3      	ldr	r3, [r4, #12]
 8000d54:	f043 0320 	orr.w	r3, r3, #32
 8000d58:	60e3      	str	r3, [r4, #12]
 8000d5a:	4b0e      	ldr	r3, [pc, #56]	; (8000d94 <uartb_init_isroff+0xe8>)
 8000d5c:	801d      	strh	r5, [r3, #0]
 8000d5e:	4b0e      	ldr	r3, [pc, #56]	; (8000d98 <uartb_init_isroff+0xec>)
 8000d60:	801d      	strh	r5, [r3, #0]
 8000d62:	6923      	ldr	r3, [r4, #16]
 8000d64:	f423 4390 	bic.w	r3, r3, #18432	; 0x4800
 8000d68:	6123      	str	r3, [r4, #16]
 8000d6a:	6963      	ldr	r3, [r4, #20]
 8000d6c:	f023 032a 	bic.w	r3, r3, #42	; 0x2a
 8000d70:	6163      	str	r3, [r4, #20]
 8000d72:	68e3      	ldr	r3, [r4, #12]
 8000d74:	f443 5300 	orr.w	r3, r3, #8192	; 0x2000
 8000d78:	60e3      	str	r3, [r4, #12]
 8000d7a:	b00b      	add	sp, #44	; 0x2c
 8000d7c:	bdf0      	pop	{r4, r5, r6, r7, pc}
 8000d7e:	bf00      	nop
 8000d80:	40004400 	.word	0x40004400
 8000d84:	40010800 	.word	0x40010800
 8000d88:	e000e100 	.word	0xe000e100
 8000d8c:	20001094 	.word	0x20001094
 8000d90:	20001096 	.word	0x20001096
 8000d94:	20000e90 	.word	0x20000e90
 8000d98:	20000e92 	.word	0x20000e92

08000d9c <uartb_init>:
 8000d9c:	b508      	push	{r3, lr}
 8000d9e:	f7ff ff85 	bl	8000cac <uartb_init_isroff>
 8000da2:	f06f 0220 	mvn.w	r2, #32
 8000da6:	4b03      	ldr	r3, [pc, #12]	; (8000db4 <uartb_init+0x18>)
 8000da8:	601a      	str	r2, [r3, #0]
 8000daa:	68da      	ldr	r2, [r3, #12]
 8000dac:	f042 0220 	orr.w	r2, r2, #32
 8000db0:	60da      	str	r2, [r3, #12]
 8000db2:	bd08      	pop	{r3, pc}
 8000db4:	40004400 	.word	0x40004400

08000db8 <USART3_IRQHandler>:
 8000db8:	4a0e      	ldr	r2, [pc, #56]	; (8000df4 <USART3_IRQHandler+0x3c>)
 8000dba:	6813      	ldr	r3, [r2, #0]
 8000dbc:	061b      	lsls	r3, r3, #24
 8000dbe:	d517      	bpl.n	8000df0 <USART3_IRQHandler+0x38>
 8000dc0:	4b0d      	ldr	r3, [pc, #52]	; (8000df8 <USART3_IRQHandler+0x40>)
 8000dc2:	490e      	ldr	r1, [pc, #56]	; (8000dfc <USART3_IRQHandler+0x44>)
 8000dc4:	8818      	ldrh	r0, [r3, #0]
 8000dc6:	880b      	ldrh	r3, [r1, #0]
 8000dc8:	b280      	uxth	r0, r0
 8000dca:	b29b      	uxth	r3, r3
 8000dcc:	4298      	cmp	r0, r3
 8000dce:	d00b      	beq.n	8000de8 <USART3_IRQHandler+0x30>
 8000dd0:	880b      	ldrh	r3, [r1, #0]
 8000dd2:	3301      	adds	r3, #1
 8000dd4:	f3c3 0308 	ubfx	r3, r3, #0, #9
 8000dd8:	800b      	strh	r3, [r1, #0]
 8000dda:	880b      	ldrh	r3, [r1, #0]
 8000ddc:	4908      	ldr	r1, [pc, #32]	; (8000e00 <USART3_IRQHandler+0x48>)
 8000dde:	b29b      	uxth	r3, r3
 8000de0:	5ccb      	ldrb	r3, [r1, r3]
 8000de2:	b2db      	uxtb	r3, r3
 8000de4:	6053      	str	r3, [r2, #4]
 8000de6:	4770      	bx	lr
 8000de8:	68d3      	ldr	r3, [r2, #12]
 8000dea:	f023 0380 	bic.w	r3, r3, #128	; 0x80
 8000dee:	60d3      	str	r3, [r2, #12]
 8000df0:	4770      	bx	lr
 8000df2:	bf00      	nop
 8000df4:	40004800 	.word	0x40004800
 8000df8:	2000129a 	.word	0x2000129a
 8000dfc:	20001298 	.word	0x20001298
 8000e00:	20001098 	.word	0x20001098

08000e04 <uartc_putc>:
 8000e04:	490a      	ldr	r1, [pc, #40]	; (8000e30 <uartc_putc+0x2c>)
 8000e06:	4a0b      	ldr	r2, [pc, #44]	; (8000e34 <uartc_putc+0x30>)
 8000e08:	880b      	ldrh	r3, [r1, #0]
 8000e0a:	8812      	ldrh	r2, [r2, #0]
 8000e0c:	3301      	adds	r3, #1
 8000e0e:	f3c3 0308 	ubfx	r3, r3, #0, #9
 8000e12:	b292      	uxth	r2, r2
 8000e14:	429a      	cmp	r2, r3
 8000e16:	d009      	beq.n	8000e2c <uartc_putc+0x28>
 8000e18:	4a07      	ldr	r2, [pc, #28]	; (8000e38 <uartc_putc+0x34>)
 8000e1a:	54d0      	strb	r0, [r2, r3]
 8000e1c:	4a07      	ldr	r2, [pc, #28]	; (8000e3c <uartc_putc+0x38>)
 8000e1e:	800b      	strh	r3, [r1, #0]
 8000e20:	68d3      	ldr	r3, [r2, #12]
 8000e22:	2001      	movs	r0, #1
 8000e24:	f043 0380 	orr.w	r3, r3, #128	; 0x80
 8000e28:	60d3      	str	r3, [r2, #12]
 8000e2a:	4770      	bx	lr
 8000e2c:	2000      	movs	r0, #0
 8000e2e:	4770      	bx	lr
 8000e30:	2000129a 	.word	0x2000129a
 8000e34:	20001298 	.word	0x20001298
 8000e38:	20001098 	.word	0x20001098
 8000e3c:	40004800 	.word	0x40004800

08000e40 <uartc_puts>:
 8000e40:	b510      	push	{r4, lr}
 8000e42:	1e44      	subs	r4, r0, #1
 8000e44:	f814 0f01 	ldrb.w	r0, [r4, #1]!
 8000e48:	b110      	cbz	r0, 8000e50 <uartc_puts+0x10>
 8000e4a:	f7ff ffdb 	bl	8000e04 <uartc_putc>
 8000e4e:	e7f9      	b.n	8000e44 <uartc_puts+0x4>
 8000e50:	bd10      	pop	{r4, pc}
	...

08000e54 <uartc_init_isroff>:
 8000e54:	b530      	push	{r4, r5, lr}
 8000e56:	4c29      	ldr	r4, [pc, #164]	; (8000efc <uartc_init_isroff+0xa8>)
 8000e58:	b08b      	sub	sp, #44	; 0x2c
 8000e5a:	221c      	movs	r2, #28
 8000e5c:	2100      	movs	r1, #0
 8000e5e:	a803      	add	r0, sp, #12
 8000e60:	f002 f988 	bl	8003174 <memset>
 8000e64:	68e3      	ldr	r3, [r4, #12]
 8000e66:	2500      	movs	r5, #0
 8000e68:	f423 5300 	bic.w	r3, r3, #8192	; 0x2000
 8000e6c:	60e3      	str	r3, [r4, #12]
 8000e6e:	f7ff fc4b 	bl	8000708 <rcc_init_afio>
 8000e72:	f44f 2080 	mov.w	r0, #262144	; 0x40000
 8000e76:	f7ff fb17 	bl	80004a8 <LL_APB1_GRP1_EnableClock>
 8000e7a:	2308      	movs	r3, #8
 8000e7c:	2201      	movs	r2, #1
 8000e7e:	4920      	ldr	r1, [pc, #128]	; (8000f00 <uartc_init_isroff+0xac>)
 8000e80:	e9cd 3200 	strd	r3, r2, [sp]
 8000e84:	481f      	ldr	r0, [pc, #124]	; (8000f04 <uartc_init_isroff+0xb0>)
 8000e86:	220a      	movs	r2, #10
 8000e88:	2303      	movs	r3, #3
 8000e8a:	f7ff fc89 	bl	80007a0 <_gpio_init>
 8000e8e:	f44f 33e1 	mov.w	r3, #115200	; 0x1c200
 8000e92:	e9cd 3503 	strd	r3, r5, [sp, #12]
 8000e96:	230c      	movs	r3, #12
 8000e98:	4620      	mov	r0, r4
 8000e9a:	eb0d 0103 	add.w	r1, sp, r3
 8000e9e:	e9cd 3507 	strd	r3, r5, [sp, #28]
 8000ea2:	e9cd 5505 	strd	r5, r5, [sp, #20]
 8000ea6:	9509      	str	r5, [sp, #36]	; 0x24
 8000ea8:	f001 fdcc 	bl	8002a44 <LL_USART_Init>
 8000eac:	22e0      	movs	r2, #224	; 0xe0
 8000eae:	6923      	ldr	r3, [r4, #16]
 8000eb0:	f423 4390 	bic.w	r3, r3, #18432	; 0x4800
 8000eb4:	6123      	str	r3, [r4, #16]
 8000eb6:	6963      	ldr	r3, [r4, #20]
 8000eb8:	f023 032a 	bic.w	r3, r3, #42	; 0x2a
 8000ebc:	6163      	str	r3, [r4, #20]
 8000ebe:	4b12      	ldr	r3, [pc, #72]	; (8000f08 <uartc_init_isroff+0xb4>)
 8000ec0:	f883 2327 	strb.w	r2, [r3, #807]	; 0x327
 8000ec4:	2280      	movs	r2, #128	; 0x80
 8000ec6:	605a      	str	r2, [r3, #4]
 8000ec8:	68e3      	ldr	r3, [r4, #12]
 8000eca:	f023 0380 	bic.w	r3, r3, #128	; 0x80
 8000ece:	60e3      	str	r3, [r4, #12]
 8000ed0:	f06f 0340 	mvn.w	r3, #64	; 0x40
 8000ed4:	6023      	str	r3, [r4, #0]
 8000ed6:	4b0d      	ldr	r3, [pc, #52]	; (8000f0c <uartc_init_isroff+0xb8>)
 8000ed8:	801d      	strh	r5, [r3, #0]
 8000eda:	4b0d      	ldr	r3, [pc, #52]	; (8000f10 <uartc_init_isroff+0xbc>)
 8000edc:	801d      	strh	r5, [r3, #0]
 8000ede:	6923      	ldr	r3, [r4, #16]
 8000ee0:	f423 4390 	bic.w	r3, r3, #18432	; 0x4800
 8000ee4:	6123      	str	r3, [r4, #16]
 8000ee6:	6963      	ldr	r3, [r4, #20]
 8000ee8:	f023 032a 	bic.w	r3, r3, #42	; 0x2a
 8000eec:	6163      	str	r3, [r4, #20]
 8000eee:	68e3      	ldr	r3, [r4, #12]
 8000ef0:	f443 5300 	orr.w	r3, r3, #8192	; 0x2000
 8000ef4:	60e3      	str	r3, [r4, #12]
 8000ef6:	b00b      	add	sp, #44	; 0x2c
 8000ef8:	bd30      	pop	{r4, r5, pc}
 8000efa:	bf00      	nop
 8000efc:	40004800 	.word	0x40004800
 8000f00:	04040004 	.word	0x04040004
 8000f04:	40010c00 	.word	0x40010c00
 8000f08:	e000e100 	.word	0xe000e100
 8000f0c:	20001298 	.word	0x20001298
 8000f10:	2000129a 	.word	0x2000129a

08000f14 <_ZN8SxDriver9ConfigureEv>:
 8000f14:	b537      	push	{r0, r1, r2, r4, r5, lr}
 8000f16:	2101      	movs	r1, #1
 8000f18:	4604      	mov	r4, r0
 8000f1a:	f001 ffa2 	bl	8002e62 <_ZN12SxDriverBase13SetPacketTypeEh>
 8000f1e:	2200      	movs	r2, #0
 8000f20:	4620      	mov	r0, r4
 8000f22:	4611      	mov	r1, r2
 8000f24:	f001 ffba 	bl	8002e9c <_ZN12SxDriverBase20SetBufferBaseAddressEhh>
 8000f28:	4620      	mov	r0, r4
 8000f2a:	2101      	movs	r1, #1
 8000f2c:	f002 f8ad 	bl	800308a <_ZN12SxDriverBase9SetAutoFsEh>
 8000f30:	4620      	mov	r0, r4
 8000f32:	2101      	movs	r1, #1
 8000f34:	f002 f8c3 	bl	80030be <_ZN12SxDriverBase14SetLnaGainModeEh>
 8000f38:	4b16      	ldr	r3, [pc, #88]	; (8000f94 <_ZN8SxDriver9ConfigureEv+0x80>)
 8000f3a:	4620      	mov	r0, r4
 8000f3c:	6123      	str	r3, [r4, #16]
 8000f3e:	2218      	movs	r2, #24
 8000f40:	2305      	movs	r3, #5
 8000f42:	2150      	movs	r1, #80	; 0x50
 8000f44:	f001 ffb7 	bl	8002eb6 <_ZN12SxDriverBase19SetModulationParamsEhhh>
 8000f48:	2500      	movs	r5, #0
 8000f4a:	2340      	movs	r3, #64	; 0x40
 8000f4c:	4620      	mov	r0, r4
 8000f4e:	e9cd 5300 	strd	r5, r3, [sp]
 8000f52:	2280      	movs	r2, #128	; 0x80
 8000f54:	235a      	movs	r3, #90	; 0x5a
 8000f56:	210c      	movs	r1, #12
 8000f58:	f001 ffdf 	bl	8002f1a <_ZN12SxDriverBase15SetPacketParamsEhhhhh>
 8000f5c:	4629      	mov	r1, r5
 8000f5e:	4620      	mov	r0, r4
 8000f60:	2220      	movs	r2, #32
 8000f62:	f002 f829 	bl	8002fb8 <_ZN12SxDriverBase11SetTxParamsEhh>
 8000f66:	462b      	mov	r3, r5
 8000f68:	f244 0203 	movw	r2, #16387	; 0x4003
 8000f6c:	4620      	mov	r0, r4
 8000f6e:	f64f 71ff 	movw	r1, #65535	; 0xffff
 8000f72:	9500      	str	r5, [sp, #0]
 8000f74:	f001 ffed 	bl	8002f52 <_ZN12SxDriverBase15SetDioIrqParamsEtttt>
 8000f78:	f64f 71ff 	movw	r1, #65535	; 0xffff
 8000f7c:	4620      	mov	r0, r4
 8000f7e:	f002 f80f 	bl	8002fa0 <_ZN12SxDriverBase14ClearIrqStatusEt>
 8000f82:	4620      	mov	r0, r4
 8000f84:	f002 f88d 	bl	80030a2 <_ZN12SxDriverBase5SetFsEv>
 8000f88:	207d      	movs	r0, #125	; 0x7d
 8000f8a:	b003      	add	sp, #12
 8000f8c:	e8bd 4030 	ldmia.w	sp!, {r4, r5, lr}
 8000f90:	f7ff bdb4 	b.w	8000afc <delay_us>
 8000f94:	08003320 	.word	0x08003320

08000f98 <_ZN13LqCounterBase4InitEh>:
 8000f98:	2201      	movs	r2, #1
 8000f9a:	b530      	push	{r4, r5, lr}
 8000f9c:	f1a1 0321 	sub.w	r3, r1, #33	; 0x21
 8000fa0:	f1c1 0421 	rsb	r4, r1, #33	; 0x21
 8000fa4:	fa22 f404 	lsr.w	r4, r2, r4
 8000fa8:	1e4d      	subs	r5, r1, #1
 8000faa:	fa02 f303 	lsl.w	r3, r2, r3
 8000fae:	4323      	orrs	r3, r4
 8000fb0:	40aa      	lsls	r2, r5
 8000fb2:	f04f 34ff 	mov.w	r4, #4294967295
 8000fb6:	f04f 35ff 	mov.w	r5, #4294967295
 8000fba:	e9c0 2302 	strd	r2, r3, [r0, #8]
 8000fbe:	e9c0 4504 	strd	r4, r5, [r0, #16]
 8000fc2:	e9c0 2306 	strd	r2, r3, [r0, #24]
 8000fc6:	7001      	strb	r1, [r0, #0]
 8000fc8:	f880 1020 	strb.w	r1, [r0, #32]
 8000fcc:	bd30      	pop	{r4, r5, pc}

08000fce <_ZN13LqCounterBase4NextEv>:
 8000fce:	2201      	movs	r2, #1
 8000fd0:	2300      	movs	r3, #0
 8000fd2:	2100      	movs	r1, #0
 8000fd4:	e92d 47f0 	stmdb	sp!, {r4, r5, r6, r7, r8, r9, sl, lr}
 8000fd8:	e9d0 8902 	ldrd	r8, r9, [r0, #8]
 8000fdc:	e9d0 ec04 	ldrd	lr, ip, [r0, #16]
 8000fe0:	4599      	cmp	r9, r3
 8000fe2:	bf08      	it	eq
 8000fe4:	4590      	cmpeq	r8, r2
 8000fe6:	d30b      	bcc.n	8001000 <_ZN13LqCounterBase4NextEv+0x32>
 8000fe8:	ea02 060e 	and.w	r6, r2, lr
 8000fec:	ea03 070c 	and.w	r7, r3, ip
 8000ff0:	ea56 0a07 	orrs.w	sl, r6, r7
 8000ff4:	bf1c      	itt	ne
 8000ff6:	3101      	addne	r1, #1
 8000ff8:	b289      	uxthne	r1, r1
 8000ffa:	1892      	adds	r2, r2, r2
 8000ffc:	415b      	adcs	r3, r3
 8000ffe:	e7ef      	b.n	8000fe0 <_ZN13LqCounterBase4NextEv+0x12>
 8001000:	e9d0 3206 	ldrd	r3, r2, [r0, #24]
 8001004:	18dc      	adds	r4, r3, r3
 8001006:	eb42 0502 	adc.w	r5, r2, r2
 800100a:	45a9      	cmp	r9, r5
 800100c:	bf08      	it	eq
 800100e:	45a0      	cmpeq	r8, r4
 8001010:	f880 1020 	strb.w	r1, [r0, #32]
 8001014:	d30b      	bcc.n	800102e <_ZN13LqCounterBase4NextEv+0x60>
 8001016:	e9c0 4506 	strd	r4, r5, [r0, #24]
 800101a:	e9d0 2306 	ldrd	r2, r3, [r0, #24]
 800101e:	ea2e 0202 	bic.w	r2, lr, r2
 8001022:	ea2c 0303 	bic.w	r3, ip, r3
 8001026:	e9c0 2304 	strd	r2, r3, [r0, #16]
 800102a:	e8bd 87f0 	ldmia.w	sp!, {r4, r5, r6, r7, r8, r9, sl, pc}
 800102e:	2201      	movs	r2, #1
 8001030:	2300      	movs	r3, #0
 8001032:	e9c0 2306 	strd	r2, r3, [r0, #24]
 8001036:	e7f0      	b.n	800101a <_ZN13LqCounterBase4NextEv+0x4c>

08001038 <_ZN13LqCounterBase13GetNormalizedEv>:
 8001038:	2164      	movs	r1, #100	; 0x64
 800103a:	7803      	ldrb	r3, [r0, #0]
 800103c:	f890 0020 	ldrb.w	r0, [r0, #32]
 8001040:	085a      	lsrs	r2, r3, #1
 8001042:	fb01 2000 	mla	r0, r1, r0, r2
 8001046:	fbb0 f0f3 	udiv	r0, r0, r3
 800104a:	b2c0      	uxtb	r0, r0
 800104c:	4770      	bx	lr
	...

08001050 <HAL_IncTick>:
 8001050:	4a04      	ldr	r2, [pc, #16]	; (8001064 <HAL_IncTick+0x14>)
 8001052:	4b05      	ldr	r3, [pc, #20]	; (8001068 <HAL_IncTick+0x18>)
 8001054:	6811      	ldr	r1, [r2, #0]
 8001056:	781b      	ldrb	r3, [r3, #0]
 8001058:	440b      	add	r3, r1
 800105a:	6013      	str	r3, [r2, #0]
 800105c:	2201      	movs	r2, #1
 800105e:	4b03      	ldr	r3, [pc, #12]	; (800106c <HAL_IncTick+0x1c>)
 8001060:	701a      	strb	r2, [r3, #0]
 8001062:	4770      	bx	lr
 8001064:	2000129c 	.word	0x2000129c
 8001068:	20000004 	.word	0x20000004
 800106c:	2000048a 	.word	0x2000048a

08001070 <_Z13pack_tx_frameP8tTxFrameP11tFrameStatsP7tRcDataPhh>:
 8001070:	e92d 41f3 	stmdb	sp!, {r0, r1, r4, r5, r6, r7, r8, lr}
 8001074:	f89d 7020 	ldrb.w	r7, [sp, #32]
 8001078:	4615      	mov	r5, r2
 800107a:	4688      	mov	r8, r1
 800107c:	225a      	movs	r2, #90	; 0x5a
 800107e:	2100      	movs	r1, #0
 8001080:	2f40      	cmp	r7, #64	; 0x40
 8001082:	4604      	mov	r4, r0
 8001084:	bf28      	it	cs
 8001086:	2740      	movcs	r7, #64	; 0x40
 8001088:	461e      	mov	r6, r3
 800108a:	f002 f873 	bl	8003174 <memset>
 800108e:	4a62      	ldr	r2, [pc, #392]	; (8001218 <_Z13pack_tx_frameP8tTxFrameP11tFrameStatsP7tRcDataPhh+0x1a8>)
 8001090:	f105 001c 	add.w	r0, r5, #28
 8001094:	7813      	ldrb	r3, [r2, #0]
 8001096:	1c59      	adds	r1, r3, #1
 8001098:	7011      	strb	r1, [r2, #0]
 800109a:	f06f 027e 	mvn.w	r2, #126	; 0x7e
 800109e:	7022      	strb	r2, [r4, #0]
 80010a0:	2242      	movs	r2, #66	; 0x42
 80010a2:	f003 0307 	and.w	r3, r3, #7
 80010a6:	7062      	strb	r2, [r4, #1]
 80010a8:	70a3      	strb	r3, [r4, #2]
 80010aa:	f898 3001 	ldrb.w	r3, [r8, #1]
 80010ae:	78e2      	ldrb	r2, [r4, #3]
 80010b0:	425b      	negs	r3, r3
 80010b2:	f363 0206 	bfi	r2, r3, #0, #7
 80010b6:	70e2      	strb	r2, [r4, #3]
 80010b8:	f898 3003 	ldrb.w	r3, [r8, #3]
 80010bc:	f104 010d 	add.w	r1, r4, #13
 80010c0:	f003 0201 	and.w	r2, r3, #1
 80010c4:	78e3      	ldrb	r3, [r4, #3]
 80010c6:	f003 037f 	and.w	r3, r3, #127	; 0x7f
 80010ca:	ea43 13c2 	orr.w	r3, r3, r2, lsl #7
 80010ce:	70e3      	strb	r3, [r4, #3]
 80010d0:	f898 3003 	ldrb.w	r3, [r8, #3]
 80010d4:	f007 0203 	and.w	r2, r7, #3
 80010d8:	f3c3 0345 	ubfx	r3, r3, #1, #6
 80010dc:	ea43 1382 	orr.w	r3, r3, r2, lsl #6
 80010e0:	7123      	strb	r3, [r4, #4]
 80010e2:	7963      	ldrb	r3, [r4, #5]
 80010e4:	f3c7 0284 	ubfx	r2, r7, #2, #5
 80010e8:	f023 031f 	bic.w	r3, r3, #31
 80010ec:	4313      	orrs	r3, r2
 80010ee:	7163      	strb	r3, [r4, #5]
 80010f0:	782b      	ldrb	r3, [r5, #0]
 80010f2:	78aa      	ldrb	r2, [r5, #2]
 80010f4:	71a3      	strb	r3, [r4, #6]
 80010f6:	786b      	ldrb	r3, [r5, #1]
 80010f8:	f002 021f 	and.w	r2, r2, #31
 80010fc:	f003 0307 	and.w	r3, r3, #7
 8001100:	ea43 03c2 	orr.w	r3, r3, r2, lsl #3
 8001104:	71e3      	strb	r3, [r4, #7]
 8001106:	886b      	ldrh	r3, [r5, #2]
 8001108:	f3c3 1245 	ubfx	r2, r3, #5, #6
 800110c:	7a23      	ldrb	r3, [r4, #8]
 800110e:	f023 033f 	bic.w	r3, r3, #63	; 0x3f
 8001112:	4313      	orrs	r3, r2
 8001114:	7223      	strb	r3, [r4, #8]
 8001116:	792b      	ldrb	r3, [r5, #4]
 8001118:	f003 0203 	and.w	r2, r3, #3
 800111c:	7a23      	ldrb	r3, [r4, #8]
 800111e:	f003 033f 	and.w	r3, r3, #63	; 0x3f
 8001122:	ea43 1382 	orr.w	r3, r3, r2, lsl #6
 8001126:	7223      	strb	r3, [r4, #8]
 8001128:	88ab      	ldrh	r3, [r5, #4]
 800112a:	f3c3 0387 	ubfx	r3, r3, #2, #8
 800112e:	7263      	strb	r3, [r4, #9]
 8001130:	796b      	ldrb	r3, [r5, #5]
 8001132:	f3c3 0280 	ubfx	r2, r3, #2, #1
 8001136:	7aa3      	ldrb	r3, [r4, #10]
 8001138:	f023 0301 	bic.w	r3, r3, #1
 800113c:	4313      	orrs	r3, r2
 800113e:	72a3      	strb	r3, [r4, #10]
 8001140:	79ab      	ldrb	r3, [r5, #6]
 8001142:	f003 027f 	and.w	r2, r3, #127	; 0x7f
 8001146:	7aa3      	ldrb	r3, [r4, #10]
 8001148:	f003 0301 	and.w	r3, r3, #1
 800114c:	ea43 0342 	orr.w	r3, r3, r2, lsl #1
 8001150:	72a3      	strb	r3, [r4, #10]
 8001152:	88eb      	ldrh	r3, [r5, #6]
 8001154:	f3c3 12c3 	ubfx	r2, r3, #7, #4
 8001158:	7ae3      	ldrb	r3, [r4, #11]
 800115a:	f023 030f 	bic.w	r3, r3, #15
 800115e:	4313      	orrs	r3, r2
 8001160:	72e3      	strb	r3, [r4, #11]
 8001162:	f105 0308 	add.w	r3, r5, #8
 8001166:	f833 2b02 	ldrh.w	r2, [r3], #2
 800116a:	08d2      	lsrs	r2, r2, #3
 800116c:	4283      	cmp	r3, r0
 800116e:	f801 2b01 	strb.w	r2, [r1], #1
 8001172:	d1f8      	bne.n	8001166 <_Z13pack_tx_frameP8tTxFrameP11tFrameStatsP7tRcDataPhh+0xf6>
 8001174:	f240 53ff 	movw	r3, #1535	; 0x5ff
 8001178:	8bea      	ldrh	r2, [r5, #30]
 800117a:	4437      	add	r7, r6
 800117c:	429a      	cmp	r2, r3
 800117e:	8baa      	ldrh	r2, [r5, #28]
 8001180:	bf94      	ite	ls
 8001182:	2100      	movls	r1, #0
 8001184:	2101      	movhi	r1, #1
 8001186:	429a      	cmp	r2, r3
 8001188:	bf94      	ite	ls
 800118a:	2200      	movls	r2, #0
 800118c:	2201      	movhi	r2, #1
 800118e:	0112      	lsls	r2, r2, #4
 8001190:	ea42 1241 	orr.w	r2, r2, r1, lsl #5
 8001194:	8c29      	ldrh	r1, [r5, #32]
 8001196:	4299      	cmp	r1, r3
 8001198:	bf94      	ite	ls
 800119a:	2100      	movls	r1, #0
 800119c:	2101      	movhi	r1, #1
 800119e:	ea42 1281 	orr.w	r2, r2, r1, lsl #6
 80011a2:	8c69      	ldrh	r1, [r5, #34]	; 0x22
 80011a4:	4299      	cmp	r1, r3
 80011a6:	bf94      	ite	ls
 80011a8:	2300      	movls	r3, #0
 80011aa:	2301      	movhi	r3, #1
 80011ac:	ea42 12c3 	orr.w	r2, r2, r3, lsl #7
 80011b0:	7ae3      	ldrb	r3, [r4, #11]
 80011b2:	f003 030f 	and.w	r3, r3, #15
 80011b6:	431a      	orrs	r2, r3
 80011b8:	72e2      	strb	r2, [r4, #11]
 80011ba:	f104 0318 	add.w	r3, r4, #24
 80011be:	42be      	cmp	r6, r7
 80011c0:	d004      	beq.n	80011cc <_Z13pack_tx_frameP8tTxFrameP11tFrameStatsP7tRcDataPhh+0x15c>
 80011c2:	f816 2b01 	ldrb.w	r2, [r6], #1
 80011c6:	f803 2b01 	strb.w	r2, [r3], #1
 80011ca:	e7f8      	b.n	80011be <_Z13pack_tx_frameP8tTxFrameP11tFrameStatsP7tRcDataPhh+0x14e>
 80011cc:	f64f 75ff 	movw	r5, #65535	; 0xffff
 80011d0:	4621      	mov	r1, r4
 80011d2:	f10d 0006 	add.w	r0, sp, #6
 80011d6:	220c      	movs	r2, #12
 80011d8:	f8ad 5006 	strh.w	r5, [sp, #6]
 80011dc:	f7ff f9ae 	bl	800053c <fmav_crc_accumulate_buf>
 80011e0:	4621      	mov	r1, r4
 80011e2:	f8bd 3006 	ldrh.w	r3, [sp, #6]
 80011e6:	f10d 0006 	add.w	r0, sp, #6
 80011ea:	f801 3f0c 	strb.w	r3, [r1, #12]!
 80011ee:	2207      	movs	r2, #7
 80011f0:	f7ff f9a4 	bl	800053c <fmav_crc_accumulate_buf>
 80011f4:	f8bd 3006 	ldrh.w	r3, [sp, #6]
 80011f8:	2258      	movs	r2, #88	; 0x58
 80011fa:	75e3      	strb	r3, [r4, #23]
 80011fc:	4621      	mov	r1, r4
 80011fe:	f10d 0006 	add.w	r0, sp, #6
 8001202:	f8ad 5006 	strh.w	r5, [sp, #6]
 8001206:	f7ff f999 	bl	800053c <fmav_crc_accumulate_buf>
 800120a:	f8bd 3006 	ldrh.w	r3, [sp, #6]
 800120e:	f8a4 3058 	strh.w	r3, [r4, #88]	; 0x58
 8001212:	b002      	add	sp, #8
 8001214:	e8bd 81f0 	ldmia.w	sp!, {r4, r5, r6, r7, r8, pc}
 8001218:	2000002c 	.word	0x2000002c

0800121c <_Z14check_rx_frameP8tRxFrame>:
 800121c:	f244 2381 	movw	r3, #17025	; 0x4281
 8001220:	b537      	push	{r0, r1, r2, r4, r5, lr}
 8001222:	8804      	ldrh	r4, [r0, #0]
 8001224:	7902      	ldrb	r2, [r0, #4]
 8001226:	1ae4      	subs	r4, r4, r3
 8001228:	bf18      	it	ne
 800122a:	2401      	movne	r4, #1
 800122c:	7883      	ldrb	r3, [r0, #2]
 800122e:	4605      	mov	r5, r0
 8001230:	f003 03f0 	and.w	r3, r3, #240	; 0xf0
 8001234:	2b10      	cmp	r3, #16
 8001236:	7943      	ldrb	r3, [r0, #5]
 8001238:	bf18      	it	ne
 800123a:	f044 0402 	orrne.w	r4, r4, #2
 800123e:	f003 031f 	and.w	r3, r3, #31
 8001242:	009b      	lsls	r3, r3, #2
 8001244:	ea43 1392 	orr.w	r3, r3, r2, lsr #6
 8001248:	2b52      	cmp	r3, #82	; 0x52
 800124a:	d905      	bls.n	8001258 <_Z14check_rx_frameP8tRxFrame+0x3c>
 800124c:	f044 0404 	orr.w	r4, r4, #4
 8001250:	b2a4      	uxth	r4, r4
 8001252:	4620      	mov	r0, r4
 8001254:	b003      	add	sp, #12
 8001256:	bd30      	pop	{r4, r5, pc}
 8001258:	2c00      	cmp	r4, #0
 800125a:	d1fa      	bne.n	8001252 <_Z14check_rx_frameP8tRxFrame+0x36>
 800125c:	f64f 73ff 	movw	r3, #65535	; 0xffff
 8001260:	2258      	movs	r2, #88	; 0x58
 8001262:	4601      	mov	r1, r0
 8001264:	f10d 0006 	add.w	r0, sp, #6
 8001268:	f8ad 3006 	strh.w	r3, [sp, #6]
 800126c:	f7ff f966 	bl	800053c <fmav_crc_accumulate_buf>
 8001270:	f8b5 2058 	ldrh.w	r2, [r5, #88]	; 0x58
 8001274:	f8bd 3006 	ldrh.w	r3, [sp, #6]
 8001278:	429a      	cmp	r2, r3
 800127a:	bf18      	it	ne
 800127c:	2408      	movne	r4, #8
 800127e:	e7e8      	b.n	8001252 <_Z14check_rx_frameP8tRxFrame+0x36>

08001280 <_ZN5Stats6UpdateEv>:
 8001280:	f44f 61fa 	mov.w	r1, #2000	; 0x7d0
 8001284:	b530      	push	{r4, r5, lr}
 8001286:	f44f 757a 	mov.w	r5, #1000	; 0x3e8
 800128a:	6803      	ldr	r3, [r0, #0]
 800128c:	6844      	ldr	r4, [r0, #4]
 800128e:	434b      	muls	r3, r1
 8001290:	434c      	muls	r4, r1
 8001292:	fbb3 f3f5 	udiv	r3, r3, r5
 8001296:	fbb4 f4f5 	udiv	r4, r4, r5
 800129a:	6882      	ldr	r2, [r0, #8]
 800129c:	b2db      	uxtb	r3, r3
 800129e:	434a      	muls	r2, r1
 80012a0:	b2e4      	uxtb	r4, r4
 80012a2:	42a3      	cmp	r3, r4
 80012a4:	fbb2 f2f5 	udiv	r2, r2, r5
 80012a8:	7303      	strb	r3, [r0, #12]
 80012aa:	bf28      	it	cs
 80012ac:	4623      	movcs	r3, r4
 80012ae:	b2d2      	uxtb	r2, r2
 80012b0:	4293      	cmp	r3, r2
 80012b2:	bf88      	it	hi
 80012b4:	4613      	movhi	r3, r2
 80012b6:	7443      	strb	r3, [r0, #17]
 80012b8:	2300      	movs	r3, #0
 80012ba:	7344      	strb	r4, [r0, #13]
 80012bc:	e9c0 3300 	strd	r3, r3, [r0]
 80012c0:	7382      	strb	r2, [r0, #14]
 80012c2:	6083      	str	r3, [r0, #8]
 80012c4:	bd30      	pop	{r4, r5, pc}
	...

080012c8 <uart_getc>:
 80012c8:	4808      	ldr	r0, [pc, #32]	; (80012ec <uart_getc+0x24>)
 80012ca:	4a09      	ldr	r2, [pc, #36]	; (80012f0 <uart_getc+0x28>)
 80012cc:	8801      	ldrh	r1, [r0, #0]
 80012ce:	8813      	ldrh	r3, [r2, #0]
 80012d0:	b289      	uxth	r1, r1
 80012d2:	b29b      	uxth	r3, r3
 80012d4:	4299      	cmp	r1, r3
 80012d6:	d0f9      	beq.n	80012cc <uart_getc+0x4>
 80012d8:	8813      	ldrh	r3, [r2, #0]
 80012da:	3301      	adds	r3, #1
 80012dc:	f3c3 0308 	ubfx	r3, r3, #0, #9
 80012e0:	8013      	strh	r3, [r2, #0]
 80012e2:	8813      	ldrh	r3, [r2, #0]
 80012e4:	4a03      	ldr	r2, [pc, #12]	; (80012f4 <uart_getc+0x2c>)
 80012e6:	b29b      	uxth	r3, r3
 80012e8:	5cd0      	ldrb	r0, [r2, r3]
 80012ea:	4770      	bx	lr
 80012ec:	20000a8a 	.word	0x20000a8a
 80012f0:	20000a88 	.word	0x20000a88
 80012f4:	20000888 	.word	0x20000888

080012f8 <_ZN8tMBridge7mb_getcEv>:
 80012f8:	f7ff bfe6 	b.w	80012c8 <uart_getc>

080012fc <uart_rx_enableisr>:
 80012fc:	2801      	cmp	r0, #1
 80012fe:	d101      	bne.n	8001304 <uart_rx_enableisr+0x8>
 8001300:	f7ff b990 	b.w	8000624 <uart_rx_enableisr.part.0>
 8001304:	4b04      	ldr	r3, [pc, #16]	; (8001318 <uart_rx_enableisr+0x1c>)
 8001306:	68da      	ldr	r2, [r3, #12]
 8001308:	f022 0220 	bic.w	r2, r2, #32
 800130c:	60da      	str	r2, [r3, #12]
 800130e:	f06f 0220 	mvn.w	r2, #32
 8001312:	601a      	str	r2, [r3, #0]
 8001314:	4770      	bx	lr
 8001316:	bf00      	nop
 8001318:	40013800 	.word	0x40013800

0800131c <_ZN8tMBridge15transmit_enableEb>:
 800131c:	f081 0001 	eor.w	r0, r1, #1
 8001320:	f7ff bfec 	b.w	80012fc <uart_rx_enableisr>

08001324 <uart_init_isroff>:
 8001324:	b5f0      	push	{r4, r5, r6, r7, lr}
 8001326:	2608      	movs	r6, #8
 8001328:	2701      	movs	r7, #1
 800132a:	4c31      	ldr	r4, [pc, #196]	; (80013f0 <uart_init_isroff+0xcc>)
 800132c:	b08b      	sub	sp, #44	; 0x2c
 800132e:	221c      	movs	r2, #28
 8001330:	2100      	movs	r1, #0
 8001332:	a803      	add	r0, sp, #12
 8001334:	f001 ff1e 	bl	8003174 <memset>
 8001338:	68e3      	ldr	r3, [r4, #12]
 800133a:	4d2e      	ldr	r5, [pc, #184]	; (80013f4 <uart_init_isroff+0xd0>)
 800133c:	f423 5300 	bic.w	r3, r3, #8192	; 0x2000
 8001340:	60e3      	str	r3, [r4, #12]
 8001342:	f7ff f9e1 	bl	8000708 <rcc_init_afio>
 8001346:	f44f 4080 	mov.w	r0, #16384	; 0x4000
 800134a:	f7ff f8bb 	bl	80004c4 <LL_APB2_GRP1_EnableClock>
 800134e:	4628      	mov	r0, r5
 8001350:	2303      	movs	r3, #3
 8001352:	220a      	movs	r2, #10
 8001354:	e9cd 6700 	strd	r6, r7, [sp]
 8001358:	4927      	ldr	r1, [pc, #156]	; (80013f8 <uart_init_isroff+0xd4>)
 800135a:	f7ff fa21 	bl	80007a0 <_gpio_init>
 800135e:	2303      	movs	r3, #3
 8001360:	4628      	mov	r0, r5
 8001362:	2500      	movs	r5, #0
 8001364:	461a      	mov	r2, r3
 8001366:	e9cd 6700 	strd	r6, r7, [sp]
 800136a:	4924      	ldr	r1, [pc, #144]	; (80013fc <uart_init_isroff+0xd8>)
 800136c:	f7ff fa18 	bl	80007a0 <_gpio_init>
 8001370:	4b23      	ldr	r3, [pc, #140]	; (8001400 <uart_init_isroff+0xdc>)
 8001372:	4620      	mov	r0, r4
 8001374:	e9cd 3503 	strd	r3, r5, [sp, #12]
 8001378:	230c      	movs	r3, #12
 800137a:	eb0d 0103 	add.w	r1, sp, r3
 800137e:	e9cd 3507 	strd	r3, r5, [sp, #28]
 8001382:	e9cd 5505 	strd	r5, r5, [sp, #20]
 8001386:	9509      	str	r5, [sp, #36]	; 0x24
 8001388:	f001 fb5c 	bl	8002a44 <LL_USART_Init>
 800138c:	22a0      	movs	r2, #160	; 0xa0
 800138e:	6923      	ldr	r3, [r4, #16]
 8001390:	f423 4390 	bic.w	r3, r3, #18432	; 0x4800
 8001394:	6123      	str	r3, [r4, #16]
 8001396:	6963      	ldr	r3, [r4, #20]
 8001398:	f023 032a 	bic.w	r3, r3, #42	; 0x2a
 800139c:	6163      	str	r3, [r4, #20]
 800139e:	4b19      	ldr	r3, [pc, #100]	; (8001404 <uart_init_isroff+0xe0>)
 80013a0:	f883 2325 	strb.w	r2, [r3, #805]	; 0x325
 80013a4:	2220      	movs	r2, #32
 80013a6:	605a      	str	r2, [r3, #4]
 80013a8:	68e3      	ldr	r3, [r4, #12]
 80013aa:	f023 0380 	bic.w	r3, r3, #128	; 0x80
 80013ae:	60e3      	str	r3, [r4, #12]
 80013b0:	f06f 0340 	mvn.w	r3, #64	; 0x40
 80013b4:	6023      	str	r3, [r4, #0]
 80013b6:	4b14      	ldr	r3, [pc, #80]	; (8001408 <uart_init_isroff+0xe4>)
 80013b8:	801d      	strh	r5, [r3, #0]
 80013ba:	4b14      	ldr	r3, [pc, #80]	; (800140c <uart_init_isroff+0xe8>)
 80013bc:	801d      	strh	r5, [r3, #0]
 80013be:	f06f 0320 	mvn.w	r3, #32
 80013c2:	6023      	str	r3, [r4, #0]
 80013c4:	68e3      	ldr	r3, [r4, #12]
 80013c6:	4313      	orrs	r3, r2
 80013c8:	60e3      	str	r3, [r4, #12]
 80013ca:	4b11      	ldr	r3, [pc, #68]	; (8001410 <uart_init_isroff+0xec>)
 80013cc:	801d      	strh	r5, [r3, #0]
 80013ce:	4b11      	ldr	r3, [pc, #68]	; (8001414 <uart_init_isroff+0xf0>)
 80013d0:	801d      	strh	r5, [r3, #0]
 80013d2:	6923      	ldr	r3, [r4, #16]
 80013d4:	f423 4390 	bic.w	r3, r3, #18432	; 0x4800
 80013d8:	6123      	str	r3, [r4, #16]
 80013da:	6963      	ldr	r3, [r4, #20]
 80013dc:	f023 032a 	bic.w	r3, r3, #42	; 0x2a
 80013e0:	6163      	str	r3, [r4, #20]
 80013e2:	68e3      	ldr	r3, [r4, #12]
 80013e4:	f443 5300 	orr.w	r3, r3, #8192	; 0x2000
 80013e8:	60e3      	str	r3, [r4, #12]
 80013ea:	b00b      	add	sp, #44	; 0x2c
 80013ec:	bdf0      	pop	{r4, r5, r6, r7, pc}
 80013ee:	bf00      	nop
 80013f0:	40013800 	.word	0x40013800
 80013f4:	40010800 	.word	0x40010800
 80013f8:	04020002 	.word	0x04020002
 80013fc:	04040004 	.word	0x04040004
 8001400:	00061a80 	.word	0x00061a80
 8001404:	e000e100 	.word	0xe000e100
 8001408:	20000c8c 	.word	0x20000c8c
 800140c:	20000c8e 	.word	0x20000c8e
 8001410:	20000a88 	.word	0x20000a88
 8001414:	20000a8a 	.word	0x20000a8a

08001418 <_Z15uart_putc_tobufc>:
 8001418:	4908      	ldr	r1, [pc, #32]	; (800143c <_Z15uart_putc_tobufc+0x24>)
 800141a:	4a09      	ldr	r2, [pc, #36]	; (8001440 <_Z15uart_putc_tobufc+0x28>)
 800141c:	880b      	ldrh	r3, [r1, #0]
 800141e:	8812      	ldrh	r2, [r2, #0]
 8001420:	3301      	adds	r3, #1
 8001422:	f3c3 0308 	ubfx	r3, r3, #0, #9
 8001426:	b292      	uxth	r2, r2
 8001428:	429a      	cmp	r2, r3
 800142a:	bf1f      	itttt	ne
 800142c:	4a05      	ldrne	r2, [pc, #20]	; (8001444 <_Z15uart_putc_tobufc+0x2c>)
 800142e:	54d0      	strbne	r0, [r2, r3]
 8001430:	2001      	movne	r0, #1
 8001432:	800b      	strhne	r3, [r1, #0]
 8001434:	bf08      	it	eq
 8001436:	2000      	moveq	r0, #0
 8001438:	4770      	bx	lr
 800143a:	bf00      	nop
 800143c:	20000c8e 	.word	0x20000c8e
 8001440:	20000c8c 	.word	0x20000c8c
 8001444:	20000a8c 	.word	0x20000a8c

08001448 <_ZN8tMBridge7mb_putcEc>:
 8001448:	4608      	mov	r0, r1
 800144a:	f7ff bfe5 	b.w	8001418 <_Z15uart_putc_tobufc>
	...

08001450 <_Z13uart_tx_startv>:
 8001450:	4a02      	ldr	r2, [pc, #8]	; (800145c <_Z13uart_tx_startv+0xc>)
 8001452:	68d3      	ldr	r3, [r2, #12]
 8001454:	f043 0380 	orr.w	r3, r3, #128	; 0x80
 8001458:	60d3      	str	r3, [r2, #12]
 800145a:	4770      	bx	lr
 800145c:	40013800 	.word	0x40013800

08001460 <_Z16uart_rx_callbackh>:
 8001460:	2202      	movs	r2, #2
 8001462:	4b0d      	ldr	r3, [pc, #52]	; (8001498 <_Z16uart_rx_callbackh+0x38>)
 8001464:	b510      	push	{r4, lr}
 8001466:	4c0d      	ldr	r4, [pc, #52]	; (800149c <_Z16uart_rx_callbackh+0x3c>)
 8001468:	615a      	str	r2, [r3, #20]
 800146a:	7923      	ldrb	r3, [r4, #4]
 800146c:	4601      	mov	r1, r0
 800146e:	2b05      	cmp	r3, #5
 8001470:	bf88      	it	hi
 8001472:	2300      	movhi	r3, #0
 8001474:	4809      	ldr	r0, [pc, #36]	; (800149c <_Z16uart_rx_callbackh+0x3c>)
 8001476:	bf88      	it	hi
 8001478:	7123      	strbhi	r3, [r4, #4]
 800147a:	f7fe ff0a 	bl	8000292 <_ZN12tMBridgeBase14parse_nextcharEh>
 800147e:	7923      	ldrb	r3, [r4, #4]
 8001480:	2b06      	cmp	r3, #6
 8001482:	d104      	bne.n	800148e <_Z16uart_rx_callbackh+0x2e>
 8001484:	4805      	ldr	r0, [pc, #20]	; (800149c <_Z16uart_rx_callbackh+0x3c>)
 8001486:	f7fe ffc0 	bl	800040a <_ZN12tMBridgeBase14transmit_startEv>
 800148a:	f7ff ffe1 	bl	8001450 <_Z13uart_tx_startv>
 800148e:	2202      	movs	r2, #2
 8001490:	4b01      	ldr	r3, [pc, #4]	; (8001498 <_Z16uart_rx_callbackh+0x38>)
 8001492:	611a      	str	r2, [r3, #16]
 8001494:	bd10      	pop	{r4, pc}
 8001496:	bf00      	nop
 8001498:	40010c00 	.word	0x40010c00
 800149c:	20000030 	.word	0x20000030

080014a0 <_Z16uart_tc_callbackv>:
 80014a0:	b508      	push	{r3, lr}
 80014a2:	f7ff f8bf 	bl	8000624 <uart_rx_enableisr.part.0>
 80014a6:	2200      	movs	r2, #0
 80014a8:	4b01      	ldr	r3, [pc, #4]	; (80014b0 <_Z16uart_tc_callbackv+0x10>)
 80014aa:	711a      	strb	r2, [r3, #4]
 80014ac:	bd08      	pop	{r3, pc}
 80014ae:	bf00      	nop
 80014b0:	20000030 	.word	0x20000030

080014b4 <USART1_IRQHandler>:
 80014b4:	b538      	push	{r3, r4, r5, lr}
 80014b6:	4c1e      	ldr	r4, [pc, #120]	; (8001530 <USART1_IRQHandler+0x7c>)
 80014b8:	6825      	ldr	r5, [r4, #0]
 80014ba:	06a8      	lsls	r0, r5, #26
 80014bc:	d503      	bpl.n	80014c6 <USART1_IRQHandler+0x12>
 80014be:	6860      	ldr	r0, [r4, #4]
 80014c0:	b2c0      	uxtb	r0, r0
 80014c2:	f7ff ffcd 	bl	8001460 <_Z16uart_rx_callbackh>
 80014c6:	0729      	lsls	r1, r5, #28
 80014c8:	bf48      	it	mi
 80014ca:	6863      	ldrmi	r3, [r4, #4]
 80014cc:	062a      	lsls	r2, r5, #24
 80014ce:	d513      	bpl.n	80014f8 <USART1_IRQHandler+0x44>
 80014d0:	4b18      	ldr	r3, [pc, #96]	; (8001534 <USART1_IRQHandler+0x80>)
 80014d2:	4a19      	ldr	r2, [pc, #100]	; (8001538 <USART1_IRQHandler+0x84>)
 80014d4:	8819      	ldrh	r1, [r3, #0]
 80014d6:	8813      	ldrh	r3, [r2, #0]
 80014d8:	b289      	uxth	r1, r1
 80014da:	b29b      	uxth	r3, r3
 80014dc:	4299      	cmp	r1, r3
 80014de:	d019      	beq.n	8001514 <USART1_IRQHandler+0x60>
 80014e0:	8813      	ldrh	r3, [r2, #0]
 80014e2:	3301      	adds	r3, #1
 80014e4:	f3c3 0308 	ubfx	r3, r3, #0, #9
 80014e8:	8013      	strh	r3, [r2, #0]
 80014ea:	8813      	ldrh	r3, [r2, #0]
 80014ec:	4a13      	ldr	r2, [pc, #76]	; (800153c <USART1_IRQHandler+0x88>)
 80014ee:	b29b      	uxth	r3, r3
 80014f0:	5cd3      	ldrb	r3, [r2, r3]
 80014f2:	4a0f      	ldr	r2, [pc, #60]	; (8001530 <USART1_IRQHandler+0x7c>)
 80014f4:	b2db      	uxtb	r3, r3
 80014f6:	6053      	str	r3, [r2, #4]
 80014f8:	066b      	lsls	r3, r5, #25
 80014fa:	d518      	bpl.n	800152e <USART1_IRQHandler+0x7a>
 80014fc:	4b0c      	ldr	r3, [pc, #48]	; (8001530 <USART1_IRQHandler+0x7c>)
 80014fe:	68da      	ldr	r2, [r3, #12]
 8001500:	f022 0240 	bic.w	r2, r2, #64	; 0x40
 8001504:	60da      	str	r2, [r3, #12]
 8001506:	f06f 0240 	mvn.w	r2, #64	; 0x40
 800150a:	601a      	str	r2, [r3, #0]
 800150c:	e8bd 4038 	ldmia.w	sp!, {r3, r4, r5, lr}
 8001510:	f7ff bfc6 	b.w	80014a0 <_Z16uart_tc_callbackv>
 8001514:	4b06      	ldr	r3, [pc, #24]	; (8001530 <USART1_IRQHandler+0x7c>)
 8001516:	68da      	ldr	r2, [r3, #12]
 8001518:	f022 0280 	bic.w	r2, r2, #128	; 0x80
 800151c:	60da      	str	r2, [r3, #12]
 800151e:	f06f 0240 	mvn.w	r2, #64	; 0x40
 8001522:	601a      	str	r2, [r3, #0]
 8001524:	68da      	ldr	r2, [r3, #12]
 8001526:	f042 0240 	orr.w	r2, r2, #64	; 0x40
 800152a:	60da      	str	r2, [r3, #12]
 800152c:	e7e4      	b.n	80014f8 <USART1_IRQHandler+0x44>
 800152e:	bd38      	pop	{r3, r4, r5, pc}
 8001530:	40013800 	.word	0x40013800
 8001534:	20000c8e 	.word	0x20000c8e
 8001538:	20000c8c 	.word	0x20000c8c
 800153c:	20000a8c 	.word	0x20000a8c

08001540 <_Z24fill_rcdata_from_mbridgeP7tRcDataP21tMBridgeChannelBuffer>:
 8001540:	784a      	ldrb	r2, [r1, #1]
 8001542:	780b      	ldrb	r3, [r1, #0]
 8001544:	f002 0207 	and.w	r2, r2, #7
 8001548:	ea43 2302 	orr.w	r3, r3, r2, lsl #8
 800154c:	8003      	strh	r3, [r0, #0]
 800154e:	788b      	ldrb	r3, [r1, #2]
 8001550:	784a      	ldrb	r2, [r1, #1]
 8001552:	f003 033f 	and.w	r3, r3, #63	; 0x3f
 8001556:	015b      	lsls	r3, r3, #5
 8001558:	ea43 03d2 	orr.w	r3, r3, r2, lsr #3
 800155c:	8043      	strh	r3, [r0, #2]
 800155e:	78cb      	ldrb	r3, [r1, #3]
 8001560:	788a      	ldrb	r2, [r1, #2]
 8001562:	009b      	lsls	r3, r3, #2
 8001564:	ea43 1392 	orr.w	r3, r3, r2, lsr #6
 8001568:	790a      	ldrb	r2, [r1, #4]
 800156a:	f002 0201 	and.w	r2, r2, #1
 800156e:	ea43 2382 	orr.w	r3, r3, r2, lsl #10
 8001572:	8083      	strh	r3, [r0, #4]
 8001574:	794b      	ldrb	r3, [r1, #5]
 8001576:	790a      	ldrb	r2, [r1, #4]
 8001578:	f003 030f 	and.w	r3, r3, #15
 800157c:	01db      	lsls	r3, r3, #7
 800157e:	ea43 0352 	orr.w	r3, r3, r2, lsr #1
 8001582:	80c3      	strh	r3, [r0, #6]
 8001584:	798b      	ldrb	r3, [r1, #6]
 8001586:	794a      	ldrb	r2, [r1, #5]
 8001588:	f003 037f 	and.w	r3, r3, #127	; 0x7f
 800158c:	011b      	lsls	r3, r3, #4
 800158e:	ea43 1312 	orr.w	r3, r3, r2, lsr #4
 8001592:	8103      	strh	r3, [r0, #8]
 8001594:	79cb      	ldrb	r3, [r1, #7]
 8001596:	798a      	ldrb	r2, [r1, #6]
 8001598:	005b      	lsls	r3, r3, #1
 800159a:	ea43 13d2 	orr.w	r3, r3, r2, lsr #7
 800159e:	7a0a      	ldrb	r2, [r1, #8]
 80015a0:	f002 0203 	and.w	r2, r2, #3
 80015a4:	ea43 2342 	orr.w	r3, r3, r2, lsl #9
 80015a8:	8143      	strh	r3, [r0, #10]
 80015aa:	7a4b      	ldrb	r3, [r1, #9]
 80015ac:	7a0a      	ldrb	r2, [r1, #8]
 80015ae:	f003 031f 	and.w	r3, r3, #31
 80015b2:	019b      	lsls	r3, r3, #6
 80015b4:	ea43 0392 	orr.w	r3, r3, r2, lsr #2
 80015b8:	8183      	strh	r3, [r0, #12]
 80015ba:	7a8b      	ldrb	r3, [r1, #10]
 80015bc:	7a4a      	ldrb	r2, [r1, #9]
 80015be:	00db      	lsls	r3, r3, #3
 80015c0:	ea43 1352 	orr.w	r3, r3, r2, lsr #5
 80015c4:	81c3      	strh	r3, [r0, #14]
 80015c6:	7b0a      	ldrb	r2, [r1, #12]
 80015c8:	7acb      	ldrb	r3, [r1, #11]
 80015ca:	f002 0207 	and.w	r2, r2, #7
 80015ce:	ea43 2302 	orr.w	r3, r3, r2, lsl #8
 80015d2:	8203      	strh	r3, [r0, #16]
 80015d4:	7b4b      	ldrb	r3, [r1, #13]
 80015d6:	7b0a      	ldrb	r2, [r1, #12]
 80015d8:	f003 033f 	and.w	r3, r3, #63	; 0x3f
 80015dc:	015b      	lsls	r3, r3, #5
 80015de:	ea43 03d2 	orr.w	r3, r3, r2, lsr #3
 80015e2:	8243      	strh	r3, [r0, #18]
 80015e4:	7b4a      	ldrb	r2, [r1, #13]
 80015e6:	7b8b      	ldrb	r3, [r1, #14]
 80015e8:	009b      	lsls	r3, r3, #2
 80015ea:	ea43 1392 	orr.w	r3, r3, r2, lsr #6
 80015ee:	7bca      	ldrb	r2, [r1, #15]
 80015f0:	f002 0201 	and.w	r2, r2, #1
 80015f4:	ea43 2382 	orr.w	r3, r3, r2, lsl #10
 80015f8:	8283      	strh	r3, [r0, #20]
 80015fa:	7c0b      	ldrb	r3, [r1, #16]
 80015fc:	7bca      	ldrb	r2, [r1, #15]
 80015fe:	f003 030f 	and.w	r3, r3, #15
 8001602:	01db      	lsls	r3, r3, #7
 8001604:	ea43 0352 	orr.w	r3, r3, r2, lsr #1
 8001608:	82c3      	strh	r3, [r0, #22]
 800160a:	7c4b      	ldrb	r3, [r1, #17]
 800160c:	7c0a      	ldrb	r2, [r1, #16]
 800160e:	f003 037f 	and.w	r3, r3, #127	; 0x7f
 8001612:	011b      	lsls	r3, r3, #4
 8001614:	ea43 1312 	orr.w	r3, r3, r2, lsr #4
 8001618:	8303      	strh	r3, [r0, #24]
 800161a:	7c8b      	ldrb	r3, [r1, #18]
 800161c:	7c4a      	ldrb	r2, [r1, #17]
 800161e:	005b      	lsls	r3, r3, #1
 8001620:	ea43 13d2 	orr.w	r3, r3, r2, lsr #7
 8001624:	7cca      	ldrb	r2, [r1, #19]
 8001626:	f002 0203 	and.w	r2, r2, #3
 800162a:	ea43 2342 	orr.w	r3, r3, r2, lsl #9
 800162e:	8343      	strh	r3, [r0, #26]
 8001630:	7d0b      	ldrb	r3, [r1, #20]
 8001632:	7cca      	ldrb	r2, [r1, #19]
 8001634:	f003 030f 	and.w	r3, r3, #15
 8001638:	019b      	lsls	r3, r3, #6
 800163a:	ea43 0392 	orr.w	r3, r3, r2, lsr #2
 800163e:	005b      	lsls	r3, r3, #1
 8001640:	8383      	strh	r3, [r0, #28]
 8001642:	7d4b      	ldrb	r3, [r1, #21]
 8001644:	7d0a      	ldrb	r2, [r1, #20]
 8001646:	f003 033f 	and.w	r3, r3, #63	; 0x3f
 800164a:	011b      	lsls	r3, r3, #4
 800164c:	ea43 1312 	orr.w	r3, r3, r2, lsr #4
 8001650:	005b      	lsls	r3, r3, #1
 8001652:	83c3      	strh	r3, [r0, #30]
 8001654:	7d4b      	ldrb	r3, [r1, #21]
 8001656:	f013 0f40 	tst.w	r3, #64	; 0x40
 800165a:	f240 73ff 	movw	r3, #2047	; 0x7ff
 800165e:	bf0c      	ite	eq
 8001660:	2200      	moveq	r2, #0
 8001662:	461a      	movne	r2, r3
 8001664:	8402      	strh	r2, [r0, #32]
 8001666:	f991 2015 	ldrsb.w	r2, [r1, #21]
 800166a:	2a00      	cmp	r2, #0
 800166c:	bfa8      	it	ge
 800166e:	2300      	movge	r3, #0
 8001670:	8443      	strh	r3, [r0, #34]	; 0x22
 8001672:	4770      	bx	lr

08001674 <_ZN7TxStats4InitEh>:
 8001674:	b570      	push	{r4, r5, r6, lr}
 8001676:	2200      	movs	r2, #0
 8001678:	f04f 46fe 	mov.w	r6, #2130706432	; 0x7f000000
 800167c:	4b0a      	ldr	r3, [pc, #40]	; (80016a8 <_ZN7TxStats4InitEh+0x34>)
 800167e:	4604      	mov	r4, r0
 8001680:	e9c3 2200 	strd	r2, r2, [r3]
 8001684:	609a      	str	r2, [r3, #8]
 8001686:	60de      	str	r6, [r3, #12]
 8001688:	615a      	str	r2, [r3, #20]
 800168a:	267f      	movs	r6, #127	; 0x7f
 800168c:	f44f 02fe 	mov.w	r2, #8323072	; 0x7f0000
 8001690:	460d      	mov	r5, r1
 8001692:	821e      	strh	r6, [r3, #16]
 8001694:	619a      	str	r2, [r3, #24]
 8001696:	f7ff fc7f 	bl	8000f98 <_ZN13LqCounterBase4InitEh>
 800169a:	4629      	mov	r1, r5
 800169c:	f104 0028 	add.w	r0, r4, #40	; 0x28
 80016a0:	f7ff fc7a 	bl	8000f98 <_ZN13LqCounterBase4InitEh>
 80016a4:	bd70      	pop	{r4, r5, r6, pc}
 80016a6:	bf00      	nop
 80016a8:	200007a4 	.word	0x200007a4

080016ac <_ZN7TxStats4NextEv>:
 80016ac:	b510      	push	{r4, lr}
 80016ae:	4604      	mov	r4, r0
 80016b0:	f7ff fc8d 	bl	8000fce <_ZN13LqCounterBase4NextEv>
 80016b4:	f104 0028 	add.w	r0, r4, #40	; 0x28
 80016b8:	f7ff fc89 	bl	8000fce <_ZN13LqCounterBase4NextEv>
 80016bc:	bd10      	pop	{r4, pc}
	...

080016c0 <_ZN7TxStats16SetFrameReceivedEv>:
 80016c0:	e9d0 230e 	ldrd	r2, r3, [r0, #56]	; 0x38
 80016c4:	b510      	push	{r4, lr}
 80016c6:	e9d0 4110 	ldrd	r4, r1, [r0, #64]	; 0x40
 80016ca:	4322      	orrs	r2, r4
 80016cc:	430b      	orrs	r3, r1
 80016ce:	e9c0 230e 	strd	r2, r3, [r0, #56]	; 0x38
 80016d2:	4a02      	ldr	r2, [pc, #8]	; (80016dc <_ZN7TxStats16SetFrameReceivedEv+0x1c>)
 80016d4:	6853      	ldr	r3, [r2, #4]
 80016d6:	3301      	adds	r3, #1
 80016d8:	6053      	str	r3, [r2, #4]
 80016da:	bd10      	pop	{r4, pc}
 80016dc:	200007a4 	.word	0x200007a4

080016e0 <_ZN7TxStats21SetValidFrameReceivedEv>:
 80016e0:	e9d0 2304 	ldrd	r2, r3, [r0, #16]
 80016e4:	b510      	push	{r4, lr}
 80016e6:	e9d0 4106 	ldrd	r4, r1, [r0, #24]
 80016ea:	4322      	orrs	r2, r4
 80016ec:	430b      	orrs	r3, r1
 80016ee:	e9c0 2304 	strd	r2, r3, [r0, #16]
 80016f2:	4a02      	ldr	r2, [pc, #8]	; (80016fc <_ZN7TxStats21SetValidFrameReceivedEv+0x1c>)
 80016f4:	6893      	ldr	r3, [r2, #8]
 80016f6:	3301      	adds	r3, #1
 80016f8:	6093      	str	r3, [r2, #8]
 80016fa:	bd10      	pop	{r4, pc}
 80016fc:	200007a4 	.word	0x200007a4

08001700 <_ZN7TxStats19SetFrameTransmittedEv>:
 8001700:	4a02      	ldr	r2, [pc, #8]	; (800170c <_ZN7TxStats19SetFrameTransmittedEv+0xc>)
 8001702:	6813      	ldr	r3, [r2, #0]
 8001704:	3301      	adds	r3, #1
 8001706:	6013      	str	r3, [r2, #0]
 8001708:	4770      	bx	lr
 800170a:	bf00      	nop
 800170c:	200007a4 	.word	0x200007a4

08001710 <_Z10clock_initv>:
 8001710:	4801      	ldr	r0, [pc, #4]	; (8001718 <_Z10clock_initv+0x8>)
 8001712:	f7ff b91c 	b.w	800094e <tim_init_1us_freerunning>
 8001716:	bf00      	nop
 8001718:	40000400 	.word	0x40000400

0800171c <_Z4initv>:
 800171c:	b570      	push	{r4, r5, r6, lr}
 800171e:	f7ff f979 	bl	8000a14 <_Z9leds_initv>
 8001722:	f7ff f9c7 	bl	8000ab4 <_Z11button_initv>
 8001726:	f7ff f9a3 	bl	8000a70 <_Z15pos_switch_initv>
 800172a:	f7ff f9cd 	bl	8000ac8 <delay_init>
 800172e:	f7ff ffef 	bl	8001710 <_Z10clock_initv>
 8001732:	f7ff fb33 	bl	8000d9c <uartb_init>
 8001736:	f7ff fb8d 	bl	8000e54 <uartc_init_isroff>
 800173a:	2300      	movs	r3, #0
 800173c:	2608      	movs	r6, #8
 800173e:	4c0d      	ldr	r4, [pc, #52]	; (8001774 <_Z4initv+0x58>)
 8001740:	4d0d      	ldr	r5, [pc, #52]	; (8001778 <_Z4initv+0x5c>)
 8001742:	6123      	str	r3, [r4, #16]
 8001744:	f7ff fa0a 	bl	8000b5c <spi_init>
 8001748:	f7ff f906 	bl	8000958 <_Z12sx_init_gpiov>
 800174c:	f7ff f928 	bl	80009a0 <_Z24sx_dio1_init_exti_isroffv>
 8001750:	480a      	ldr	r0, [pc, #40]	; (800177c <_Z4initv+0x60>)
 8001752:	f7ff f9d3 	bl	8000afc <delay_us>
 8001756:	f241 3088 	movw	r0, #5000	; 0x1388
 800175a:	616e      	str	r6, [r5, #20]
 800175c:	f7ff f9ce 	bl	8000afc <delay_us>
 8001760:	f24c 3050 	movw	r0, #50000	; 0xc350
 8001764:	612e      	str	r6, [r5, #16]
 8001766:	f7ff f9c9 	bl	8000afc <delay_us>
 800176a:	4620      	mov	r0, r4
 800176c:	f7fe ff4a 	bl	8000604 <_ZN8SxDriver10WaitOnBusyEv>
 8001770:	bd70      	pop	{r4, r5, r6, pc}
 8001772:	bf00      	nop
 8001774:	200007c0 	.word	0x200007c0
 8001778:	40010c00 	.word	0x40010c00
 800177c:	000493e0 	.word	0x000493e0

08001780 <_Z6f_initv>:
 8001780:	2210      	movs	r2, #16
 8001782:	b508      	push	{r3, lr}
 8001784:	2100      	movs	r1, #0
 8001786:	4805      	ldr	r0, [pc, #20]	; (800179c <_Z6f_initv+0x1c>)
 8001788:	f001 fcf4 	bl	8003174 <memset>
 800178c:	2300      	movs	r3, #0
 800178e:	4a04      	ldr	r2, [pc, #16]	; (80017a0 <_Z6f_initv+0x20>)
 8001790:	6013      	str	r3, [r2, #0]
 8001792:	6053      	str	r3, [r2, #4]
 8001794:	6093      	str	r3, [r2, #8]
 8001796:	4a03      	ldr	r2, [pc, #12]	; (80017a4 <_Z6f_initv+0x24>)
 8001798:	7013      	strb	r3, [r2, #0]
 800179a:	bd08      	pop	{r3, pc}
 800179c:	200006e0 	.word	0x200006e0
 80017a0:	200006f0 	.word	0x200006f0
 80017a4:	2000071c 	.word	0x2000071c

080017a8 <_Z6f_sendv>:
 80017a8:	b5f8      	push	{r3, r4, r5, r6, r7, lr}
 80017aa:	4929      	ldr	r1, [pc, #164]	; (8001850 <_Z6f_sendv+0xa8>)
 80017ac:	4c29      	ldr	r4, [pc, #164]	; (8001854 <_Z6f_sendv+0xac>)
 80017ae:	780d      	ldrb	r5, [r1, #0]
 80017b0:	6888      	ldr	r0, [r1, #8]
 80017b2:	784f      	ldrb	r7, [r1, #1]
 80017b4:	2dfd      	cmp	r5, #253	; 0xfd
 80017b6:	7025      	strb	r5, [r4, #0]
 80017b8:	f3c0 0617 	ubfx	r6, r0, #0, #24
 80017bc:	460d      	mov	r5, r1
 80017be:	f891 c004 	ldrb.w	ip, [r1, #4]
 80017c2:	794a      	ldrb	r2, [r1, #5]
 80017c4:	798b      	ldrb	r3, [r1, #6]
 80017c6:	7067      	strb	r7, [r4, #1]
 80017c8:	b2c0      	uxtb	r0, r0
 80017ca:	d138      	bne.n	800183e <_Z6f_sendv+0x96>
 80017cc:	71a3      	strb	r3, [r4, #6]
 80017ce:	1233      	asrs	r3, r6, #8
 80017d0:	1436      	asrs	r6, r6, #16
 80017d2:	7266      	strb	r6, [r4, #9]
 80017d4:	260a      	movs	r6, #10
 80017d6:	7889      	ldrb	r1, [r1, #2]
 80017d8:	f884 c004 	strb.w	ip, [r4, #4]
 80017dc:	70a1      	strb	r1, [r4, #2]
 80017de:	78e9      	ldrb	r1, [r5, #3]
 80017e0:	7162      	strb	r2, [r4, #5]
 80017e2:	70e1      	strb	r1, [r4, #3]
 80017e4:	71e0      	strb	r0, [r4, #7]
 80017e6:	7223      	strb	r3, [r4, #8]
 80017e8:	463a      	mov	r2, r7
 80017ea:	491b      	ldr	r1, [pc, #108]	; (8001858 <_Z6f_sendv+0xb0>)
 80017ec:	19a0      	adds	r0, r4, r6
 80017ee:	f001 fcb3 	bl	8003158 <memcpy>
 80017f2:	19f3      	adds	r3, r6, r7
 80017f4:	f8b5 110c 	ldrh.w	r1, [r5, #268]	; 0x10c
 80017f8:	1c58      	adds	r0, r3, #1
 80017fa:	54e1      	strb	r1, [r4, r3]
 80017fc:	b280      	uxth	r0, r0
 80017fe:	1209      	asrs	r1, r1, #8
 8001800:	5421      	strb	r1, [r4, r0]
 8001802:	78a9      	ldrb	r1, [r5, #2]
 8001804:	1c9a      	adds	r2, r3, #2
 8001806:	07c9      	lsls	r1, r1, #31
 8001808:	b292      	uxth	r2, r2
 800180a:	d512      	bpl.n	8001832 <_Z6f_sendv+0x8a>
 800180c:	4d13      	ldr	r5, [pc, #76]	; (800185c <_Z6f_sendv+0xb4>)
 800180e:	4414      	add	r4, r2
 8001810:	f105 0608 	add.w	r6, r5, #8
 8001814:	462a      	mov	r2, r5
 8001816:	ca03      	ldmia	r2!, {r0, r1}
 8001818:	42b2      	cmp	r2, r6
 800181a:	6020      	str	r0, [r4, #0]
 800181c:	6061      	str	r1, [r4, #4]
 800181e:	4615      	mov	r5, r2
 8001820:	f104 0408 	add.w	r4, r4, #8
 8001824:	d1f6      	bne.n	8001814 <_Z6f_sendv+0x6c>
 8001826:	6810      	ldr	r0, [r2, #0]
 8001828:	330f      	adds	r3, #15
 800182a:	6020      	str	r0, [r4, #0]
 800182c:	7912      	ldrb	r2, [r2, #4]
 800182e:	7122      	strb	r2, [r4, #4]
 8001830:	b29a      	uxth	r2, r3
 8001832:	4908      	ldr	r1, [pc, #32]	; (8001854 <_Z6f_sendv+0xac>)
 8001834:	480a      	ldr	r0, [pc, #40]	; (8001860 <_Z6f_sendv+0xb8>)
 8001836:	e8bd 40f8 	ldmia.w	sp!, {r3, r4, r5, r6, r7, lr}
 800183a:	f7fe bcf4 	b.w	8000226 <_ZN8FifoBase6putbufEPvt>
 800183e:	2100      	movs	r1, #0
 8001840:	2606      	movs	r6, #6
 8001842:	70a9      	strb	r1, [r5, #2]
 8001844:	f884 c002 	strb.w	ip, [r4, #2]
 8001848:	70e2      	strb	r2, [r4, #3]
 800184a:	7123      	strb	r3, [r4, #4]
 800184c:	7160      	strb	r0, [r4, #5]
 800184e:	e7cb      	b.n	80017e8 <_Z6f_sendv+0x40>
 8001850:	200005b8 	.word	0x200005b8
 8001854:	2000048b 	.word	0x2000048b
 8001858:	200005c4 	.word	0x200005c4
 800185c:	200006c8 	.word	0x200006c8
 8001860:	20000282 	.word	0x20000282

08001864 <_Z17send_radio_statusv>:
 8001864:	b508      	push	{r3, lr}
 8001866:	4816      	ldr	r0, [pc, #88]	; (80018c0 <_Z17send_radio_statusv+0x5c>)
 8001868:	f7ff fbe6 	bl	8001038 <_ZN13LqCounterBase13GetNormalizedEv>
 800186c:	4b15      	ldr	r3, [pc, #84]	; (80018c4 <_Z17send_radio_statusv+0x60>)
 800186e:	2200      	movs	r2, #0
 8001870:	7ed9      	ldrb	r1, [r3, #27]
 8001872:	4b15      	ldr	r3, [pc, #84]	; (80018c8 <_Z17send_radio_statusv+0x64>)
 8001874:	2801      	cmp	r0, #1
 8001876:	7459      	strb	r1, [r3, #17]
 8001878:	f44f 417f 	mov.w	r1, #65280	; 0xff00
 800187c:	8259      	strh	r1, [r3, #18]
 800187e:	f04f 01ff 	mov.w	r1, #255	; 0xff
 8001882:	7519      	strb	r1, [r3, #20]
 8001884:	f04f 0133 	mov.w	r1, #51	; 0x33
 8001888:	bf38      	it	cc
 800188a:	2001      	movcc	r0, #1
 800188c:	60da      	str	r2, [r3, #12]
 800188e:	f883 2121 	strb.w	r2, [r3, #289]	; 0x121
 8001892:	f44f 4239 	mov.w	r2, #47360	; 0xb900
 8001896:	7159      	strb	r1, [r3, #5]
 8001898:	2144      	movs	r1, #68	; 0x44
 800189a:	7418      	strb	r0, [r3, #16]
 800189c:	206d      	movs	r0, #109	; 0x6d
 800189e:	f8a3 2122 	strh.w	r2, [r3, #290]	; 0x122
 80018a2:	2209      	movs	r2, #9
 80018a4:	7199      	strb	r1, [r3, #6]
 80018a6:	6899      	ldr	r1, [r3, #8]
 80018a8:	f883 2124 	strb.w	r2, [r3, #292]	; 0x124
 80018ac:	f360 0117 	bfi	r1, r0, #0, #24
 80018b0:	6099      	str	r1, [r3, #8]
 80018b2:	f7fe fec3 	bl	800063c <fmav_finalize_msg.isra.0.constprop.0>
 80018b6:	e8bd 4008 	ldmia.w	sp!, {r3, lr}
 80018ba:	f7ff bf75 	b.w	80017a8 <_Z6f_sendv>
 80018be:	bf00      	nop
 80018c0:	20000838 	.word	0x20000838
 80018c4:	200007a4 	.word	0x200007a4
 80018c8:	200005b8 	.word	0x200005b8

080018cc <EXTI9_5_IRQHandler>:
 80018cc:	f44f 7280 	mov.w	r2, #256	; 0x100
 80018d0:	4b0f      	ldr	r3, [pc, #60]	; (8001910 <EXTI9_5_IRQHandler+0x44>)
 80018d2:	b513      	push	{r0, r1, r4, lr}
 80018d4:	615a      	str	r2, [r3, #20]
 80018d6:	480f      	ldr	r0, [pc, #60]	; (8001914 <EXTI9_5_IRQHandler+0x48>)
 80018d8:	f001 fb52 	bl	8002f80 <_ZN12SxDriverBase12GetIrqStatusEv>
 80018dc:	4c0e      	ldr	r4, [pc, #56]	; (8001918 <EXTI9_5_IRQHandler+0x4c>)
 80018de:	f64f 71ff 	movw	r1, #65535	; 0xffff
 80018e2:	8020      	strh	r0, [r4, #0]
 80018e4:	480b      	ldr	r0, [pc, #44]	; (8001914 <EXTI9_5_IRQHandler+0x48>)
 80018e6:	f001 fb5b 	bl	8002fa0 <_ZN12SxDriverBase14ClearIrqStatusEt>
 80018ea:	8823      	ldrh	r3, [r4, #0]
 80018ec:	079b      	lsls	r3, r3, #30
 80018ee:	d50d      	bpl.n	800190c <EXTI9_5_IRQHandler+0x40>
 80018f0:	4808      	ldr	r0, [pc, #32]	; (8001914 <EXTI9_5_IRQHandler+0x48>)
 80018f2:	f10d 0206 	add.w	r2, sp, #6
 80018f6:	f10d 0107 	add.w	r1, sp, #7
 80018fa:	f001 fbaa 	bl	8003052 <_ZN12SxDriverBase17GetRxBufferStatusEPhS0_>
 80018fe:	235a      	movs	r3, #90	; 0x5a
 8001900:	4a06      	ldr	r2, [pc, #24]	; (800191c <EXTI9_5_IRQHandler+0x50>)
 8001902:	f89d 1006 	ldrb.w	r1, [sp, #6]
 8001906:	4803      	ldr	r0, [pc, #12]	; (8001914 <EXTI9_5_IRQHandler+0x48>)
 8001908:	f001 fa64 	bl	8002dd4 <_ZN12SxDriverBase10ReadBufferEhPhh>
 800190c:	b002      	add	sp, #8
 800190e:	bd10      	pop	{r4, pc}
 8001910:	40010400 	.word	0x40010400
 8001914:	200007c0 	.word	0x200007c0
 8001918:	2000071e 	.word	0x2000071e
 800191c:	20000748 	.word	0x20000748

08001920 <_Z11do_transmitv>:
 8001920:	e92d 41f0 	stmdb	sp!, {r4, r5, r6, r7, r8, lr}
 8001924:	2400      	movs	r4, #0
 8001926:	b094      	sub	sp, #80	; 0x50
 8001928:	223c      	movs	r2, #60	; 0x3c
 800192a:	4621      	mov	r1, r4
 800192c:	a805      	add	r0, sp, #20
 800192e:	ad04      	add	r5, sp, #16
 8001930:	9404      	str	r4, [sp, #16]
 8001932:	462f      	mov	r7, r5
 8001934:	f001 fc1e 	bl	8003174 <memset>
 8001938:	f8df 80a8 	ldr.w	r8, [pc, #168]	; 80019e4 <_Z11do_transmitv+0xc4>
 800193c:	4640      	mov	r0, r8
 800193e:	b2e6      	uxtb	r6, r4
 8001940:	f7fe fc7e 	bl	8000240 <_ZN8FifoBase9availableEv>
 8001944:	b140      	cbz	r0, 8001958 <_Z11do_transmitv+0x38>
 8001946:	4640      	mov	r0, r8
 8001948:	f7fe fc8b 	bl	8000262 <_ZN8FifoBase4getcEv>
 800194c:	3401      	adds	r4, #1
 800194e:	2c40      	cmp	r4, #64	; 0x40
 8001950:	f805 0b01 	strb.w	r0, [r5], #1
 8001954:	d1f2      	bne.n	800193c <_Z11do_transmitv+0x1c>
 8001956:	4626      	mov	r6, r4
 8001958:	2500      	movs	r5, #0
 800195a:	4c1c      	ldr	r4, [pc, #112]	; (80019cc <_Z11do_transmitv+0xac>)
 800195c:	481c      	ldr	r0, [pc, #112]	; (80019d0 <_Z11do_transmitv+0xb0>)
 800195e:	f104 0210 	add.w	r2, r4, #16
 8001962:	f104 010f 	add.w	r1, r4, #15
 8001966:	f001 fb61 	bl	800302c <_ZN12SxDriverBase15GetPacketStatusEPaS0_>
 800196a:	7be3      	ldrb	r3, [r4, #15]
 800196c:	4819      	ldr	r0, [pc, #100]	; (80019d4 <_Z11do_transmitv+0xb4>)
 800196e:	f88d 300d 	strb.w	r3, [sp, #13]
 8001972:	7c23      	ldrb	r3, [r4, #16]
 8001974:	f88d 500c 	strb.w	r5, [sp, #12]
 8001978:	f88d 300e 	strb.w	r3, [sp, #14]
 800197c:	f7ff fb5c 	bl	8001038 <_ZN13LqCounterBase13GetNormalizedEv>
 8001980:	2801      	cmp	r0, #1
 8001982:	bf38      	it	cc
 8001984:	2001      	movcc	r0, #1
 8001986:	463b      	mov	r3, r7
 8001988:	f88d 000f 	strb.w	r0, [sp, #15]
 800198c:	a903      	add	r1, sp, #12
 800198e:	4a12      	ldr	r2, [pc, #72]	; (80019d8 <_Z11do_transmitv+0xb8>)
 8001990:	4812      	ldr	r0, [pc, #72]	; (80019dc <_Z11do_transmitv+0xbc>)
 8001992:	9600      	str	r6, [sp, #0]
 8001994:	f7ff fb6c 	bl	8001070 <_Z13pack_tx_frameP8tTxFrameP11tFrameStatsP7tRcDataPhh>
 8001998:	f44f 7200 	mov.w	r2, #512	; 0x200
 800199c:	4b10      	ldr	r3, [pc, #64]	; (80019e0 <_Z11do_transmitv+0xc0>)
 800199e:	4629      	mov	r1, r5
 80019a0:	611a      	str	r2, [r3, #16]
 80019a2:	480b      	ldr	r0, [pc, #44]	; (80019d0 <_Z11do_transmitv+0xb0>)
 80019a4:	235a      	movs	r3, #90	; 0x5a
 80019a6:	4a0d      	ldr	r2, [pc, #52]	; (80019dc <_Z11do_transmitv+0xbc>)
 80019a8:	f001 f9ec 	bl	8002d84 <_ZN12SxDriverBase11WriteBufferEhPhh>
 80019ac:	f64f 71ff 	movw	r1, #65535	; 0xffff
 80019b0:	4807      	ldr	r0, [pc, #28]	; (80019d0 <_Z11do_transmitv+0xb0>)
 80019b2:	f001 faf5 	bl	8002fa0 <_ZN12SxDriverBase14ClearIrqStatusEt>
 80019b6:	22a0      	movs	r2, #160	; 0xa0
 80019b8:	2101      	movs	r1, #1
 80019ba:	4805      	ldr	r0, [pc, #20]	; (80019d0 <_Z11do_transmitv+0xb0>)
 80019bc:	f001 fb0c 	bl	8002fd8 <_ZN12SxDriverBase5SetTxEht>
 80019c0:	207d      	movs	r0, #125	; 0x7d
 80019c2:	f7ff f89b 	bl	8000afc <delay_us>
 80019c6:	b014      	add	sp, #80	; 0x50
 80019c8:	e8bd 81f0 	ldmia.w	sp!, {r4, r5, r6, r7, r8, pc}
 80019cc:	200007a4 	.word	0x200007a4
 80019d0:	200007c0 	.word	0x200007c0
 80019d4:	20000838 	.word	0x20000838
 80019d8:	20000724 	.word	0x20000724
 80019dc:	200007d6 	.word	0x200007d6
 80019e0:	40010c00 	.word	0x40010c00
 80019e4:	2000007c 	.word	0x2000007c

080019e8 <_Z10do_receivev>:
 80019e8:	b510      	push	{r4, lr}
 80019ea:	480a      	ldr	r0, [pc, #40]	; (8001a14 <_Z10do_receivev+0x2c>)
 80019ec:	f7ff fc16 	bl	800121c <_Z14check_rx_frameP8tRxFrame>
 80019f0:	4604      	mov	r4, r0
 80019f2:	b160      	cbz	r0, 8001a0e <_Z10do_receivev+0x26>
 80019f4:	4808      	ldr	r0, [pc, #32]	; (8001a18 <_Z10do_receivev+0x30>)
 80019f6:	f7ff fa23 	bl	8000e40 <uartc_puts>
 80019fa:	4620      	mov	r0, r4
 80019fc:	f001 f8e2 	bl	8002bc4 <u16toHEX_s>
 8001a00:	f7ff fa1e 	bl	8000e40 <uartc_puts>
 8001a04:	200a      	movs	r0, #10
 8001a06:	f7ff f9fd 	bl	8000e04 <uartc_putc>
 8001a0a:	2000      	movs	r0, #0
 8001a0c:	bd10      	pop	{r4, pc}
 8001a0e:	2001      	movs	r0, #1
 8001a10:	e7fc      	b.n	8001a0c <_Z10do_receivev+0x24>
 8001a12:	bf00      	nop
 8001a14:	20000748 	.word	0x20000748
 8001a18:	080032ac 	.word	0x080032ac

08001a1c <_Z22process_received_framev>:
 8001a1c:	e92d 43f8 	stmdb	sp!, {r3, r4, r5, r6, r7, r8, r9, lr}
 8001a20:	f04f 0900 	mov.w	r9, #0
 8001a24:	4e47      	ldr	r6, [pc, #284]	; (8001b44 <_Z22process_received_framev+0x128>)
 8001a26:	4a48      	ldr	r2, [pc, #288]	; (8001b48 <_Z22process_received_framev+0x12c>)
 8001a28:	78b3      	ldrb	r3, [r6, #2]
 8001a2a:	78f0      	ldrb	r0, [r6, #3]
 8001a2c:	f3c3 0302 	ubfx	r3, r3, #0, #3
 8001a30:	7653      	strb	r3, [r2, #25]
 8001a32:	7933      	ldrb	r3, [r6, #4]
 8001a34:	f3c0 0106 	ubfx	r1, r0, #0, #7
 8001a38:	f003 033f 	and.w	r3, r3, #63	; 0x3f
 8001a3c:	005b      	lsls	r3, r3, #1
 8001a3e:	4249      	negs	r1, r1
 8001a40:	ea43 13d0 	orr.w	r3, r3, r0, lsr #7
 8001a44:	f8df 8114 	ldr.w	r8, [pc, #276]	; 8001b5c <_Z22process_received_framev+0x140>
 8001a48:	4c40      	ldr	r4, [pc, #256]	; (8001b4c <_Z22process_received_framev+0x130>)
 8001a4a:	7691      	strb	r1, [r2, #26]
 8001a4c:	76d3      	strb	r3, [r2, #27]
 8001a4e:	1db7      	adds	r7, r6, #6
 8001a50:	7973      	ldrb	r3, [r6, #5]
 8001a52:	7932      	ldrb	r2, [r6, #4]
 8001a54:	f003 031f 	and.w	r3, r3, #31
 8001a58:	009b      	lsls	r3, r3, #2
 8001a5a:	ea43 1392 	orr.w	r3, r3, r2, lsr #6
 8001a5e:	fa5f f289 	uxtb.w	r2, r9
 8001a62:	4293      	cmp	r3, r2
 8001a64:	d96c      	bls.n	8001b40 <_Z22process_received_framev+0x124>
 8001a66:	f817 5b01 	ldrb.w	r5, [r7], #1
 8001a6a:	4640      	mov	r0, r8
 8001a6c:	4629      	mov	r1, r5
 8001a6e:	f7fe fbcb 	bl	8000208 <_ZN8FifoBase4putcEc>
 8001a72:	8863      	ldrh	r3, [r4, #2]
 8001a74:	4a36      	ldr	r2, [pc, #216]	; (8001b50 <_Z22process_received_framev+0x134>)
 8001a76:	f5b3 7f8c 	cmp.w	r3, #280	; 0x118
 8001a7a:	d312      	bcc.n	8001aa2 <_Z22process_received_framev+0x86>
 8001a7c:	2300      	movs	r3, #0
 8001a7e:	7023      	strb	r3, [r4, #0]
 8001a80:	1ceb      	adds	r3, r5, #3
 8001a82:	b2db      	uxtb	r3, r3
 8001a84:	2b01      	cmp	r3, #1
 8001a86:	bf95      	itete	ls
 8001a88:	2301      	movls	r3, #1
 8001a8a:	2300      	movhi	r3, #0
 8001a8c:	4931      	ldrls	r1, [pc, #196]	; (8001b54 <_Z22process_received_framev+0x138>)
 8001a8e:	8063      	strhhi	r3, [r4, #2]
 8001a90:	bf9e      	ittt	ls
 8001a92:	8063      	strhls	r3, [r4, #2]
 8001a94:	700d      	strbls	r5, [r1, #0]
 8001a96:	7023      	strbls	r3, [r4, #0]
 8001a98:	2300      	movs	r3, #0
 8001a9a:	7013      	strb	r3, [r2, #0]
 8001a9c:	f109 0901 	add.w	r9, r9, #1
 8001aa0:	e7d6      	b.n	8001a50 <_Z22process_received_framev+0x34>
 8001aa2:	7821      	ldrb	r1, [r4, #0]
 8001aa4:	2902      	cmp	r1, #2
 8001aa6:	d021      	beq.n	8001aec <_Z22process_received_framev+0xd0>
 8001aa8:	d810      	bhi.n	8001acc <_Z22process_received_framev+0xb0>
 8001aaa:	2900      	cmp	r1, #0
 8001aac:	d0e8      	beq.n	8001a80 <_Z22process_received_framev+0x64>
 8001aae:	1c59      	adds	r1, r3, #1
 8001ab0:	8061      	strh	r1, [r4, #2]
 8001ab2:	4928      	ldr	r1, [pc, #160]	; (8001b54 <_Z22process_received_framev+0x138>)
 8001ab4:	54cd      	strb	r5, [r1, r3]
 8001ab6:	780b      	ldrb	r3, [r1, #0]
 8001ab8:	b2ad      	uxth	r5, r5
 8001aba:	2bfd      	cmp	r3, #253	; 0xfd
 8001abc:	d10f      	bne.n	8001ade <_Z22process_received_framev+0xc2>
 8001abe:	230a      	movs	r3, #10
 8001ac0:	80a3      	strh	r3, [r4, #4]
 8001ac2:	2302      	movs	r3, #2
 8001ac4:	350c      	adds	r5, #12
 8001ac6:	80e5      	strh	r5, [r4, #6]
 8001ac8:	7023      	strb	r3, [r4, #0]
 8001aca:	e7e5      	b.n	8001a98 <_Z22process_received_framev+0x7c>
 8001acc:	290e      	cmp	r1, #14
 8001ace:	d01b      	beq.n	8001b08 <_Z22process_received_framev+0xec>
 8001ad0:	2300      	movs	r3, #0
 8001ad2:	7023      	strb	r3, [r4, #0]
 8001ad4:	8063      	strh	r3, [r4, #2]
 8001ad6:	80a3      	strh	r3, [r4, #4]
 8001ad8:	80e3      	strh	r3, [r4, #6]
 8001ada:	7013      	strb	r3, [r2, #0]
 8001adc:	e7de      	b.n	8001a9c <_Z22process_received_framev+0x80>
 8001ade:	2306      	movs	r3, #6
 8001ae0:	80a3      	strh	r3, [r4, #4]
 8001ae2:	230e      	movs	r3, #14
 8001ae4:	3508      	adds	r5, #8
 8001ae6:	80e5      	strh	r5, [r4, #6]
 8001ae8:	7023      	strb	r3, [r4, #0]
 8001aea:	e7d5      	b.n	8001a98 <_Z22process_received_framev+0x7c>
 8001aec:	1c59      	adds	r1, r3, #1
 8001aee:	8061      	strh	r1, [r4, #2]
 8001af0:	4918      	ldr	r1, [pc, #96]	; (8001b54 <_Z22process_received_framev+0x138>)
 8001af2:	54cd      	strb	r5, [r1, r3]
 8001af4:	07eb      	lsls	r3, r5, #31
 8001af6:	bf42      	ittt	mi
 8001af8:	88e3      	ldrhmi	r3, [r4, #6]
 8001afa:	330d      	addmi	r3, #13
 8001afc:	80e3      	strhmi	r3, [r4, #6]
 8001afe:	230e      	movs	r3, #14
 8001b00:	7023      	strb	r3, [r4, #0]
 8001b02:	2300      	movs	r3, #0
 8001b04:	7013      	strb	r3, [r2, #0]
 8001b06:	e7c9      	b.n	8001a9c <_Z22process_received_framev+0x80>
 8001b08:	4812      	ldr	r0, [pc, #72]	; (8001b54 <_Z22process_received_framev+0x138>)
 8001b0a:	1c59      	adds	r1, r3, #1
 8001b0c:	54c5      	strb	r5, [r0, r3]
 8001b0e:	88e0      	ldrh	r0, [r4, #6]
 8001b10:	b289      	uxth	r1, r1
 8001b12:	4281      	cmp	r1, r0
 8001b14:	8061      	strh	r1, [r4, #2]
 8001b16:	d30d      	bcc.n	8001b34 <_Z22process_received_framev+0x118>
 8001b18:	2102      	movs	r1, #2
 8001b1a:	2300      	movs	r3, #0
 8001b1c:	7011      	strb	r1, [r2, #0]
 8001b1e:	8050      	strh	r0, [r2, #2]
 8001b20:	4a0d      	ldr	r2, [pc, #52]	; (8001b58 <_Z22process_received_framev+0x13c>)
 8001b22:	8063      	strh	r3, [r4, #2]
 8001b24:	7811      	ldrb	r1, [r2, #0]
 8001b26:	7023      	strb	r3, [r4, #0]
 8001b28:	2900      	cmp	r1, #0
 8001b2a:	d0b7      	beq.n	8001a9c <_Z22process_received_framev+0x80>
 8001b2c:	7013      	strb	r3, [r2, #0]
 8001b2e:	f7ff fe99 	bl	8001864 <_Z17send_radio_statusv>
 8001b32:	e7b3      	b.n	8001a9c <_Z22process_received_framev+0x80>
 8001b34:	88a3      	ldrh	r3, [r4, #4]
 8001b36:	428b      	cmp	r3, r1
 8001b38:	d8ae      	bhi.n	8001a98 <_Z22process_received_framev+0x7c>
 8001b3a:	2301      	movs	r3, #1
 8001b3c:	7013      	strb	r3, [r2, #0]
 8001b3e:	e7ad      	b.n	8001a9c <_Z22process_received_framev+0x80>
 8001b40:	e8bd 83f8 	ldmia.w	sp!, {r3, r4, r5, r6, r7, r8, r9, pc}
 8001b44:	20000748 	.word	0x20000748
 8001b48:	200007a4 	.word	0x200007a4
 8001b4c:	200006f0 	.word	0x200006f0
 8001b50:	200006e0 	.word	0x200006e0
 8001b54:	2000048b 	.word	0x2000048b
 8001b58:	2000071c 	.word	0x2000071c
 8001b5c:	20000282 	.word	0x20000282

08001b60 <_Z9main_mainv>:
 8001b60:	e92d 4ff0 	stmdb	sp!, {r4, r5, r6, r7, r8, r9, sl, fp, lr}
 8001b64:	b08d      	sub	sp, #52	; 0x34
 8001b66:	f7ff fdd9 	bl	800171c <_Z4initv>
 8001b6a:	4cae      	ldr	r4, [pc, #696]	; (8001e24 <_Z9main_mainv+0x2c4>)
 8001b6c:	48ae      	ldr	r0, [pc, #696]	; (8001e28 <_Z9main_mainv+0x2c8>)
 8001b6e:	f7fe fb86 	bl	800027e <_ZN12tMBridgeBase4InitEv>
 8001b72:	2001      	movs	r0, #1
 8001b74:	f7ff fbc2 	bl	80012fc <uart_rx_enableisr>
 8001b78:	4620      	mov	r0, r4
 8001b7a:	2303      	movs	r3, #3
 8001b7c:	2206      	movs	r2, #6
 8001b7e:	f248 0180 	movw	r1, #32896	; 0x8080
 8001b82:	f7fe fe72 	bl	800086a <gpio_init>
 8001b86:	2206      	movs	r2, #6
 8001b88:	f244 0140 	movw	r1, #16448	; 0x4040
 8001b8c:	4620      	mov	r0, r4
 8001b8e:	2303      	movs	r3, #3
 8001b90:	f7fe fe6b 	bl	800086a <gpio_init>
 8001b94:	2380      	movs	r3, #128	; 0x80
 8001b96:	6123      	str	r3, [r4, #16]
 8001b98:	2340      	movs	r3, #64	; 0x40
 8001b9a:	6123      	str	r3, [r4, #16]
 8001b9c:	f7ff fbc2 	bl	8001324 <uart_init_isroff>
 8001ba0:	48a2      	ldr	r0, [pc, #648]	; (8001e2c <_Z9main_mainv+0x2cc>)
 8001ba2:	f7fe fb2a 	bl	80001fa <_ZN8FifoBase4InitEv>
 8001ba6:	48a2      	ldr	r0, [pc, #648]	; (8001e30 <_Z9main_mainv+0x2d0>)
 8001ba8:	f7fe fb27 	bl	80001fa <_ZN8FifoBase4InitEv>
 8001bac:	48a1      	ldr	r0, [pc, #644]	; (8001e34 <_Z9main_mainv+0x2d4>)
 8001bae:	f7ff f947 	bl	8000e40 <uartc_puts>
 8001bb2:	f44f 4300 	mov.w	r3, #32768	; 0x8000
 8001bb6:	f04f 0807 	mov.w	r8, #7
 8001bba:	f5a4 6480 	sub.w	r4, r4, #1024	; 0x400
 8001bbe:	6123      	str	r3, [r4, #16]
 8001bc0:	68e3      	ldr	r3, [r4, #12]
 8001bc2:	f24c 3050 	movw	r0, #50000	; 0xc350
 8001bc6:	041a      	lsls	r2, r3, #16
 8001bc8:	43db      	mvns	r3, r3
 8001bca:	f002 4200 	and.w	r2, r2, #2147483648	; 0x80000000
 8001bce:	f403 4300 	and.w	r3, r3, #32768	; 0x8000
 8001bd2:	4313      	orrs	r3, r2
 8001bd4:	6123      	str	r3, [r4, #16]
 8001bd6:	f108 38ff 	add.w	r8, r8, #4294967295
 8001bda:	f7fe ff8f 	bl	8000afc <delay_us>
 8001bde:	f018 08ff 	ands.w	r8, r8, #255	; 0xff
 8001be2:	d1ed      	bne.n	8001bc0 <_Z9main_mainv+0x60>
 8001be4:	4894      	ldr	r0, [pc, #592]	; (8001e38 <_Z9main_mainv+0x2d8>)
 8001be6:	f001 fa83 	bl	80030f0 <_ZN12SxDriverBase14GetFirmwareRevEv>
 8001bea:	f64f 73fd 	movw	r3, #65533	; 0xfffd
 8001bee:	3801      	subs	r0, #1
 8001bf0:	b280      	uxth	r0, r0
 8001bf2:	4298      	cmp	r0, r3
 8001bf4:	d90d      	bls.n	8001c12 <_Z9main_mainv+0xb2>
 8001bf6:	68e3      	ldr	r3, [r4, #12]
 8001bf8:	f24c 3050 	movw	r0, #50000	; 0xc350
 8001bfc:	041a      	lsls	r2, r3, #16
 8001bfe:	43db      	mvns	r3, r3
 8001c00:	f002 4200 	and.w	r2, r2, #2147483648	; 0x80000000
 8001c04:	f403 4300 	and.w	r3, r3, #32768	; 0x8000
 8001c08:	4313      	orrs	r3, r2
 8001c0a:	6123      	str	r3, [r4, #16]
 8001c0c:	f7fe ff76 	bl	8000afc <delay_us>
 8001c10:	e7f1      	b.n	8001bf6 <_Z9main_mainv+0x96>
 8001c12:	4641      	mov	r1, r8
 8001c14:	4888      	ldr	r0, [pc, #544]	; (8001e38 <_Z9main_mainv+0x2d8>)
 8001c16:	f001 f90e 	bl	8002e36 <_ZN12SxDriverBase10SetStandbyEh>
 8001c1a:	f44f 707a 	mov.w	r0, #1000	; 0x3e8
 8001c1e:	f7fe ff6d 	bl	8000afc <delay_us>
 8001c22:	4d86      	ldr	r5, [pc, #536]	; (8001e3c <_Z9main_mainv+0x2dc>)
 8001c24:	2101      	movs	r1, #1
 8001c26:	4884      	ldr	r0, [pc, #528]	; (8001e38 <_Z9main_mainv+0x2d8>)
 8001c28:	f001 fa23 	bl	8003072 <_ZN12SxDriverBase16SetRegulatorModeEh>
 8001c2c:	4882      	ldr	r0, [pc, #520]	; (8001e38 <_Z9main_mainv+0x2d8>)
 8001c2e:	f7ff f971 	bl	8000f14 <_ZN8SxDriver9ConfigureEv>
 8001c32:	f7fe fee3 	bl	80009fc <_Z18sx_dio1_enable_isrv>
 8001c36:	4628      	mov	r0, r5
 8001c38:	4981      	ldr	r1, [pc, #516]	; (8001e40 <_Z9main_mainv+0x2e0>)
 8001c3a:	f7fe fa95 	bl	8000168 <_ZN8FhssBase8generateEm>
 8001c3e:	f8df a230 	ldr.w	sl, [pc, #560]	; 8001e70 <_Z9main_mainv+0x310>
 8001c42:	68e9      	ldr	r1, [r5, #12]
 8001c44:	487c      	ldr	r0, [pc, #496]	; (8001e38 <_Z9main_mainv+0x2d8>)
 8001c46:	f8df 922c 	ldr.w	r9, [pc, #556]	; 8001e74 <_Z9main_mainv+0x314>
 8001c4a:	4f7e      	ldr	r7, [pc, #504]	; (8001e44 <_Z9main_mainv+0x2e4>)
 8001c4c:	f001 f915 	bl	8002e7a <_ZN12SxDriverBase14SetRfFrequencyEm>
 8001c50:	2132      	movs	r1, #50	; 0x32
 8001c52:	487d      	ldr	r0, [pc, #500]	; (8001e48 <_Z9main_mainv+0x2e8>)
 8001c54:	f8aa 8000 	strh.w	r8, [sl]
 8001c58:	f8a9 8000 	strh.w	r8, [r9]
 8001c5c:	f8a7 8000 	strh.w	r8, [r7]
 8001c60:	4e7a      	ldr	r6, [pc, #488]	; (8001e4c <_Z9main_mainv+0x2ec>)
 8001c62:	f7ff fd07 	bl	8001674 <_ZN7TxStats4InitEh>
 8001c66:	f7ff fd8b 	bl	8001780 <_Z6f_initv>
 8001c6a:	4a79      	ldr	r2, [pc, #484]	; (8001e50 <_Z9main_mainv+0x2f0>)
 8001c6c:	4b79      	ldr	r3, [pc, #484]	; (8001e54 <_Z9main_mainv+0x2f4>)
 8001c6e:	f8a6 8000 	strh.w	r8, [r6]
 8001c72:	f8a2 8000 	strh.w	r8, [r2]
 8001c76:	f883 8000 	strb.w	r8, [r3]
 8001c7a:	f8df 81fc 	ldr.w	r8, [pc, #508]	; 8001e78 <_Z9main_mainv+0x318>
 8001c7e:	e9cd 9200 	strd	r9, r2, [sp]
 8001c82:	46c3      	mov	fp, r8
 8001c84:	9503      	str	r5, [sp, #12]
 8001c86:	4655      	mov	r5, sl
 8001c88:	f8df a1ac 	ldr.w	sl, [pc, #428]	; 8001e38 <_Z9main_mainv+0x2d8>
 8001c8c:	9302      	str	r3, [sp, #8]
 8001c8e:	9b02      	ldr	r3, [sp, #8]
 8001c90:	781b      	ldrb	r3, [r3, #0]
 8001c92:	2b00      	cmp	r3, #0
 8001c94:	f000 80f2 	beq.w	8001e7c <_Z9main_mainv+0x31c>
 8001c98:	2300      	movs	r3, #0
 8001c9a:	9a02      	ldr	r2, [sp, #8]
 8001c9c:	7013      	strb	r3, [r2, #0]
 8001c9e:	883b      	ldrh	r3, [r7, #0]
 8001ca0:	b10b      	cbz	r3, 8001ca6 <_Z9main_mainv+0x146>
 8001ca2:	3b01      	subs	r3, #1
 8001ca4:	803b      	strh	r3, [r7, #0]
 8001ca6:	9b01      	ldr	r3, [sp, #4]
 8001ca8:	881b      	ldrh	r3, [r3, #0]
 8001caa:	2b00      	cmp	r3, #0
 8001cac:	f000 8091 	beq.w	8001dd2 <_Z9main_mainv+0x272>
 8001cb0:	3b01      	subs	r3, #1
 8001cb2:	b29b      	uxth	r3, r3
 8001cb4:	9a01      	ldr	r2, [sp, #4]
 8001cb6:	8013      	strh	r3, [r2, #0]
 8001cb8:	9b00      	ldr	r3, [sp, #0]
 8001cba:	881b      	ldrh	r3, [r3, #0]
 8001cbc:	2b00      	cmp	r3, #0
 8001cbe:	f000 808b 	beq.w	8001dd8 <_Z9main_mainv+0x278>
 8001cc2:	3b01      	subs	r3, #1
 8001cc4:	b29b      	uxth	r3, r3
 8001cc6:	9a00      	ldr	r2, [sp, #0]
 8001cc8:	8013      	strh	r3, [r2, #0]
 8001cca:	883a      	ldrh	r2, [r7, #0]
 8001ccc:	8833      	ldrh	r3, [r6, #0]
 8001cce:	2a00      	cmp	r2, #0
 8001cd0:	f000 8084 	beq.w	8001ddc <_Z9main_mainv+0x27c>
 8001cd4:	2b00      	cmp	r3, #0
 8001cd6:	f040 8089 	bne.w	8001dec <_Z9main_mainv+0x28c>
 8001cda:	f240 13f3 	movw	r3, #499	; 0x1f3
 8001cde:	8033      	strh	r3, [r6, #0]
 8001ce0:	f44f 4300 	mov.w	r3, #32768	; 0x8000
 8001ce4:	6123      	str	r3, [r4, #16]
 8001ce6:	9b01      	ldr	r3, [sp, #4]
 8001ce8:	881b      	ldrh	r3, [r3, #0]
 8001cea:	2b00      	cmp	r3, #0
 8001cec:	d15e      	bne.n	8001dac <_Z9main_mainv+0x24c>
 8001cee:	485a      	ldr	r0, [pc, #360]	; (8001e58 <_Z9main_mainv+0x2f8>)
 8001cf0:	f7ff fac6 	bl	8001280 <_ZN5Stats6UpdateEv>
 8001cf4:	883b      	ldrh	r3, [r7, #0]
 8001cf6:	b113      	cbz	r3, 8001cfe <_Z9main_mainv+0x19e>
 8001cf8:	2201      	movs	r2, #1
 8001cfa:	4b58      	ldr	r3, [pc, #352]	; (8001e5c <_Z9main_mainv+0x2fc>)
 8001cfc:	701a      	strb	r2, [r3, #0]
 8001cfe:	4858      	ldr	r0, [pc, #352]	; (8001e60 <_Z9main_mainv+0x300>)
 8001d00:	f7ff f89e 	bl	8000e40 <uartc_puts>
 8001d04:	4b50      	ldr	r3, [pc, #320]	; (8001e48 <_Z9main_mainv+0x2e8>)
 8001d06:	f8df 9150 	ldr.w	r9, [pc, #336]	; 8001e58 <_Z9main_mainv+0x2f8>
 8001d0a:	f893 0020 	ldrb.w	r0, [r3, #32]
 8001d0e:	f000 ff45 	bl	8002b9c <u8toBCD_s>
 8001d12:	f7ff f895 	bl	8000e40 <uartc_puts>
 8001d16:	202c      	movs	r0, #44	; 0x2c
 8001d18:	f7ff f874 	bl	8000e04 <uartc_putc>
 8001d1c:	f899 0011 	ldrb.w	r0, [r9, #17]
 8001d20:	f000 ff3c 	bl	8002b9c <u8toBCD_s>
 8001d24:	f7ff f88c 	bl	8000e40 <uartc_puts>
 8001d28:	484e      	ldr	r0, [pc, #312]	; (8001e64 <_Z9main_mainv+0x304>)
 8001d2a:	f7ff f889 	bl	8000e40 <uartc_puts>
 8001d2e:	f899 000d 	ldrb.w	r0, [r9, #13]
 8001d32:	f000 ff33 	bl	8002b9c <u8toBCD_s>
 8001d36:	f7ff f883 	bl	8000e40 <uartc_puts>
 8001d3a:	202c      	movs	r0, #44	; 0x2c
 8001d3c:	f7ff f862 	bl	8000e04 <uartc_putc>
 8001d40:	f899 000c 	ldrb.w	r0, [r9, #12]
 8001d44:	f000 ff2a 	bl	8002b9c <u8toBCD_s>
 8001d48:	f7ff f87a 	bl	8000e40 <uartc_puts>
 8001d4c:	202c      	movs	r0, #44	; 0x2c
 8001d4e:	f7ff f859 	bl	8000e04 <uartc_putc>
 8001d52:	f899 000e 	ldrb.w	r0, [r9, #14]
 8001d56:	f000 ff21 	bl	8002b9c <u8toBCD_s>
 8001d5a:	f7ff f871 	bl	8000e40 <uartc_puts>
 8001d5e:	4842      	ldr	r0, [pc, #264]	; (8001e68 <_Z9main_mainv+0x308>)
 8001d60:	f7ff f86e 	bl	8000e40 <uartc_puts>
 8001d64:	f899 001b 	ldrb.w	r0, [r9, #27]
 8001d68:	f000 ff18 	bl	8002b9c <u8toBCD_s>
 8001d6c:	f7ff f868 	bl	8000e40 <uartc_puts>
 8001d70:	483e      	ldr	r0, [pc, #248]	; (8001e6c <_Z9main_mainv+0x30c>)
 8001d72:	f7ff f865 	bl	8000e40 <uartc_puts>
 8001d76:	f999 000f 	ldrsb.w	r0, [r9, #15]
 8001d7a:	f000 ff19 	bl	8002bb0 <s8toBCD_s>
 8001d7e:	f7ff f85f 	bl	8000e40 <uartc_puts>
 8001d82:	202c      	movs	r0, #44	; 0x2c
 8001d84:	f7ff f83e 	bl	8000e04 <uartc_putc>
 8001d88:	f999 001a 	ldrsb.w	r0, [r9, #26]
 8001d8c:	f000 ff10 	bl	8002bb0 <s8toBCD_s>
 8001d90:	f7ff f856 	bl	8000e40 <uartc_puts>
 8001d94:	4835      	ldr	r0, [pc, #212]	; (8001e6c <_Z9main_mainv+0x30c>)
 8001d96:	f7ff f853 	bl	8000e40 <uartc_puts>
 8001d9a:	f999 0010 	ldrsb.w	r0, [r9, #16]
 8001d9e:	f000 ff07 	bl	8002bb0 <s8toBCD_s>
 8001da2:	f7ff f84d 	bl	8000e40 <uartc_puts>
 8001da6:	200a      	movs	r0, #10
 8001da8:	f7ff f82c 	bl	8000e04 <uartc_putc>
 8001dac:	9b00      	ldr	r3, [sp, #0]
 8001dae:	881b      	ldrh	r3, [r3, #0]
 8001db0:	2b00      	cmp	r3, #0
 8001db2:	d163      	bne.n	8001e7c <_Z9main_mainv+0x31c>
 8001db4:	4824      	ldr	r0, [pc, #144]	; (8001e48 <_Z9main_mainv+0x2e8>)
 8001db6:	f7ff fc79 	bl	80016ac <_ZN7TxStats4NextEv>
 8001dba:	2301      	movs	r3, #1
 8001dbc:	802b      	strh	r3, [r5, #0]
 8001dbe:	9b03      	ldr	r3, [sp, #12]
 8001dc0:	4650      	mov	r0, sl
 8001dc2:	68d9      	ldr	r1, [r3, #12]
 8001dc4:	f001 f859 	bl	8002e7a <_ZN12SxDriverBase14SetRfFrequencyEm>
 8001dc8:	f7ff fdaa 	bl	8001920 <_Z11do_transmitv>
 8001dcc:	2302      	movs	r3, #2
 8001dce:	802b      	strh	r3, [r5, #0]
 8001dd0:	e059      	b.n	8001e86 <_Z9main_mainv+0x326>
 8001dd2:	f240 33e7 	movw	r3, #999	; 0x3e7
 8001dd6:	e76d      	b.n	8001cb4 <_Z9main_mainv+0x154>
 8001dd8:	2313      	movs	r3, #19
 8001dda:	e774      	b.n	8001cc6 <_Z9main_mainv+0x166>
 8001ddc:	b933      	cbnz	r3, 8001dec <_Z9main_mainv+0x28c>
 8001dde:	23c7      	movs	r3, #199	; 0xc7
 8001de0:	8033      	strh	r3, [r6, #0]
 8001de2:	2380      	movs	r3, #128	; 0x80
 8001de4:	6123      	str	r3, [r4, #16]
 8001de6:	f7ff fccb 	bl	8001780 <_Z6f_initv>
 8001dea:	e77c      	b.n	8001ce6 <_Z9main_mainv+0x186>
 8001dec:	3b01      	subs	r3, #1
 8001dee:	8033      	strh	r3, [r6, #0]
 8001df0:	8833      	ldrh	r3, [r6, #0]
 8001df2:	b99b      	cbnz	r3, 8001e1c <_Z9main_mainv+0x2bc>
 8001df4:	68e3      	ldr	r3, [r4, #12]
 8001df6:	b142      	cbz	r2, 8001e0a <_Z9main_mainv+0x2aa>
 8001df8:	041a      	lsls	r2, r3, #16
 8001dfa:	43db      	mvns	r3, r3
 8001dfc:	f402 0200 	and.w	r2, r2, #8388608	; 0x800000
 8001e00:	f003 0380 	and.w	r3, r3, #128	; 0x80
 8001e04:	4313      	orrs	r3, r2
 8001e06:	6123      	str	r3, [r4, #16]
 8001e08:	e76a      	b.n	8001ce0 <_Z9main_mainv+0x180>
 8001e0a:	041a      	lsls	r2, r3, #16
 8001e0c:	43db      	mvns	r3, r3
 8001e0e:	f002 4200 	and.w	r2, r2, #2147483648	; 0x80000000
 8001e12:	f403 4300 	and.w	r3, r3, #32768	; 0x8000
 8001e16:	4313      	orrs	r3, r2
 8001e18:	6123      	str	r3, [r4, #16]
 8001e1a:	e7e2      	b.n	8001de2 <_Z9main_mainv+0x282>
 8001e1c:	2a00      	cmp	r2, #0
 8001e1e:	d0e0      	beq.n	8001de2 <_Z9main_mainv+0x282>
 8001e20:	e75e      	b.n	8001ce0 <_Z9main_mainv+0x180>
 8001e22:	bf00      	nop
 8001e24:	40010c00 	.word	0x40010c00
 8001e28:	20000030 	.word	0x20000030
 8001e2c:	2000007c 	.word	0x2000007c
 8001e30:	20000282 	.word	0x20000282
 8001e34:	080032b2 	.word	0x080032b2
 8001e38:	200007c0 	.word	0x200007c0
 8001e3c:	200006fc 	.word	0x200006fc
 8001e40:	12345678 	.word	0x12345678
 8001e44:	20000488 	.word	0x20000488
 8001e48:	20000838 	.word	0x20000838
 8001e4c:	20000720 	.word	0x20000720
 8001e50:	200007d4 	.word	0x200007d4
 8001e54:	2000048a 	.word	0x2000048a
 8001e58:	200007a4 	.word	0x200007a4
 8001e5c:	2000071c 	.word	0x2000071c
 8001e60:	080032bd 	.word	0x080032bd
 8001e64:	080032c2 	.word	0x080032c2
 8001e68:	080032c5 	.word	0x080032c5
 8001e6c:	080032c8 	.word	0x080032c8
 8001e70:	20000722 	.word	0x20000722
 8001e74:	20000830 	.word	0x20000830
 8001e78:	2000071e 	.word	0x2000071e
 8001e7c:	882b      	ldrh	r3, [r5, #0]
 8001e7e:	2b01      	cmp	r3, #1
 8001e80:	d09d      	beq.n	8001dbe <_Z9main_mainv+0x25e>
 8001e82:	2b03      	cmp	r3, #3
 8001e84:	d02e      	beq.n	8001ee4 <_Z9main_mainv+0x384>
 8001e86:	f8b8 3000 	ldrh.w	r3, [r8]
 8001e8a:	b29b      	uxth	r3, r3
 8001e8c:	2b00      	cmp	r3, #0
 8001e8e:	d06a      	beq.n	8001f66 <_Z9main_mainv+0x406>
 8001e90:	882b      	ldrh	r3, [r5, #0]
 8001e92:	2b02      	cmp	r3, #2
 8001e94:	d13a      	bne.n	8001f0c <_Z9main_mainv+0x3ac>
 8001e96:	f8b8 3000 	ldrh.w	r3, [r8]
 8001e9a:	07db      	lsls	r3, r3, #31
 8001e9c:	d507      	bpl.n	8001eae <_Z9main_mainv+0x34e>
 8001e9e:	2300      	movs	r3, #0
 8001ea0:	4852      	ldr	r0, [pc, #328]	; (8001fec <_Z9main_mainv+0x48c>)
 8001ea2:	f8a8 3000 	strh.w	r3, [r8]
 8001ea6:	f7ff fc2b 	bl	8001700 <_ZN7TxStats19SetFrameTransmittedEv>
 8001eaa:	2303      	movs	r3, #3
 8001eac:	802b      	strh	r3, [r5, #0]
 8001eae:	f8bb 3000 	ldrh.w	r3, [fp]
 8001eb2:	0459      	lsls	r1, r3, #17
 8001eb4:	bf42      	ittt	mi
 8001eb6:	2300      	movmi	r3, #0
 8001eb8:	f8ab 3000 	strhmi.w	r3, [fp]
 8001ebc:	802b      	strhmi	r3, [r5, #0]
 8001ebe:	f8bb 3000 	ldrh.w	r3, [fp]
 8001ec2:	079a      	lsls	r2, r3, #30
 8001ec4:	d53c      	bpl.n	8001f40 <_Z9main_mainv+0x3e0>
 8001ec6:	2380      	movs	r3, #128	; 0x80
 8001ec8:	f44f 4500 	mov.w	r5, #32768	; 0x8000
 8001ecc:	6123      	str	r3, [r4, #16]
 8001ece:	f241 3088 	movw	r0, #5000	; 0x1388
 8001ed2:	6165      	str	r5, [r4, #20]
 8001ed4:	f7fe fe12 	bl	8000afc <delay_us>
 8001ed8:	f241 3088 	movw	r0, #5000	; 0x1388
 8001edc:	6125      	str	r5, [r4, #16]
 8001ede:	f7fe fe0d 	bl	8000afc <delay_us>
 8001ee2:	e7f4      	b.n	8001ece <_Z9main_mainv+0x36e>
 8001ee4:	f44f 7200 	mov.w	r2, #512	; 0x200
 8001ee8:	4b41      	ldr	r3, [pc, #260]	; (8001ff0 <_Z9main_mainv+0x490>)
 8001eea:	f64f 71ff 	movw	r1, #65535	; 0xffff
 8001eee:	615a      	str	r2, [r3, #20]
 8001ef0:	4650      	mov	r0, sl
 8001ef2:	f001 f855 	bl	8002fa0 <_ZN12SxDriverBase14ClearIrqStatusEt>
 8001ef6:	22a0      	movs	r2, #160	; 0xa0
 8001ef8:	2101      	movs	r1, #1
 8001efa:	4650      	mov	r0, sl
 8001efc:	f001 f881 	bl	8003002 <_ZN12SxDriverBase5SetRxEht>
 8001f00:	207d      	movs	r0, #125	; 0x7d
 8001f02:	f7fe fdfb 	bl	8000afc <delay_us>
 8001f06:	2304      	movs	r3, #4
 8001f08:	802b      	strh	r3, [r5, #0]
 8001f0a:	e7bc      	b.n	8001e86 <_Z9main_mainv+0x326>
 8001f0c:	2b04      	cmp	r3, #4
 8001f0e:	d1ce      	bne.n	8001eae <_Z9main_mainv+0x34e>
 8001f10:	f8b8 3000 	ldrh.w	r3, [r8]
 8001f14:	0798      	lsls	r0, r3, #30
 8001f16:	d5ca      	bpl.n	8001eae <_Z9main_mainv+0x34e>
 8001f18:	2300      	movs	r3, #0
 8001f1a:	f8a8 3000 	strh.w	r3, [r8]
 8001f1e:	f7ff fd63 	bl	80019e8 <_Z10do_receivev>
 8001f22:	b138      	cbz	r0, 8001f34 <_Z9main_mainv+0x3d4>
 8001f24:	f7ff fd7a 	bl	8001a1c <_Z22process_received_framev>
 8001f28:	4830      	ldr	r0, [pc, #192]	; (8001fec <_Z9main_mainv+0x48c>)
 8001f2a:	f7ff fbd9 	bl	80016e0 <_ZN7TxStats21SetValidFrameReceivedEv>
 8001f2e:	f240 2303 	movw	r3, #515	; 0x203
 8001f32:	803b      	strh	r3, [r7, #0]
 8001f34:	482d      	ldr	r0, [pc, #180]	; (8001fec <_Z9main_mainv+0x48c>)
 8001f36:	f7ff fbc3 	bl	80016c0 <_ZN7TxStats16SetFrameReceivedEv>
 8001f3a:	2300      	movs	r3, #0
 8001f3c:	802b      	strh	r3, [r5, #0]
 8001f3e:	e7b6      	b.n	8001eae <_Z9main_mainv+0x34e>
 8001f40:	f8bb 3000 	ldrh.w	r3, [fp]
 8001f44:	07db      	lsls	r3, r3, #31
 8001f46:	d50e      	bpl.n	8001f66 <_Z9main_mainv+0x406>
 8001f48:	f44f 4300 	mov.w	r3, #32768	; 0x8000
 8001f4c:	2580      	movs	r5, #128	; 0x80
 8001f4e:	6123      	str	r3, [r4, #16]
 8001f50:	f241 3088 	movw	r0, #5000	; 0x1388
 8001f54:	6165      	str	r5, [r4, #20]
 8001f56:	f7fe fdd1 	bl	8000afc <delay_us>
 8001f5a:	f241 3088 	movw	r0, #5000	; 0x1388
 8001f5e:	6125      	str	r5, [r4, #16]
 8001f60:	f7fe fdcc 	bl	8000afc <delay_us>
 8001f64:	e7f4      	b.n	8001f50 <_Z9main_mainv+0x3f0>
 8001f66:	f8df 9098 	ldr.w	r9, [pc, #152]	; 8002000 <_Z9main_mainv+0x4a0>
 8001f6a:	f899 3020 	ldrb.w	r3, [r9, #32]
 8001f6e:	b38b      	cbz	r3, 8001fd4 <_Z9main_mainv+0x474>
 8001f70:	2300      	movs	r3, #0
 8001f72:	e9cd 3306 	strd	r3, r3, [sp, #24]
 8001f76:	f889 3020 	strb.w	r3, [r9, #32]
 8001f7a:	9308      	str	r3, [sp, #32]
 8001f7c:	4b1d      	ldr	r3, [pc, #116]	; (8001ff4 <_Z9main_mainv+0x494>)
 8001f7e:	481b      	ldr	r0, [pc, #108]	; (8001fec <_Z9main_mainv+0x48c>)
 8001f80:	7bda      	ldrb	r2, [r3, #15]
 8001f82:	4252      	negs	r2, r2
 8001f84:	f88d 2018 	strb.w	r2, [sp, #24]
 8001f88:	f7ff f856 	bl	8001038 <_ZN13LqCounterBase13GetNormalizedEv>
 8001f8c:	2801      	cmp	r0, #1
 8001f8e:	bf38      	it	cc
 8001f90:	2001      	movcc	r0, #1
 8001f92:	4b18      	ldr	r3, [pc, #96]	; (8001ff4 <_Z9main_mainv+0x494>)
 8001f94:	f88d 0019 	strb.w	r0, [sp, #25]
 8001f98:	7e9a      	ldrb	r2, [r3, #26]
 8001f9a:	4817      	ldr	r0, [pc, #92]	; (8001ff8 <_Z9main_mainv+0x498>)
 8001f9c:	4252      	negs	r2, r2
 8001f9e:	f88d 201a 	strb.w	r2, [sp, #26]
 8001fa2:	7eda      	ldrb	r2, [r3, #27]
 8001fa4:	f88d 201b 	strb.w	r2, [sp, #27]
 8001fa8:	f7ff f846 	bl	8001038 <_ZN13LqCounterBase13GetNormalizedEv>
 8001fac:	4b11      	ldr	r3, [pc, #68]	; (8001ff4 <_Z9main_mainv+0x494>)
 8001fae:	2101      	movs	r1, #1
 8001fb0:	7b5a      	ldrb	r2, [r3, #13]
 8001fb2:	7b9b      	ldrb	r3, [r3, #14]
 8001fb4:	f88d 001c 	strb.w	r0, [sp, #28]
 8001fb8:	f88d 201d 	strb.w	r2, [sp, #29]
 8001fbc:	4648      	mov	r0, r9
 8001fbe:	f88d 301e 	strb.w	r3, [sp, #30]
 8001fc2:	aa06      	add	r2, sp, #24
 8001fc4:	230c      	movs	r3, #12
 8001fc6:	f7fe fa56 	bl	8000476 <_ZN12tMBridgeBase18cmd_to_transmitterEhPhh>
 8001fca:	480c      	ldr	r0, [pc, #48]	; (8001ffc <_Z9main_mainv+0x49c>)
 8001fcc:	f109 010a 	add.w	r1, r9, #10
 8001fd0:	f7ff fab6 	bl	8001540 <_Z24fill_rcdata_from_mbridgeP7tRcDataP21tMBridgeChannelBuffer>
 8001fd4:	f899 3038 	ldrb.w	r3, [r9, #56]	; 0x38
 8001fd8:	2b00      	cmp	r3, #0
 8001fda:	f43f ae58 	beq.w	8001c8e <_Z9main_mainv+0x12e>
 8001fde:	aa06      	add	r2, sp, #24
 8001fe0:	f10d 0117 	add.w	r1, sp, #23
 8001fe4:	4806      	ldr	r0, [pc, #24]	; (8002000 <_Z9main_mainv+0x4a0>)
 8001fe6:	f7fe fa2b 	bl	8000440 <_ZN12tMBridgeBase20cmd_from_transmitterEPhS0_>
 8001fea:	e650      	b.n	8001c8e <_Z9main_mainv+0x12e>
 8001fec:	20000838 	.word	0x20000838
 8001ff0:	40010c00 	.word	0x40010c00
 8001ff4:	200007a4 	.word	0x200007a4
 8001ff8:	20000860 	.word	0x20000860
 8001ffc:	20000724 	.word	0x20000724
 8002000:	20000030 	.word	0x20000030

08002004 <_GLOBAL__sub_I_rcc_init_afio>:
 8002004:	4a0b      	ldr	r2, [pc, #44]	; (8002034 <_GLOBAL__sub_I_rcc_init_afio+0x30>)
 8002006:	4b0c      	ldr	r3, [pc, #48]	; (8002038 <_GLOBAL__sub_I_rcc_init_afio+0x34>)
 8002008:	b510      	push	{r4, lr}
 800200a:	6013      	str	r3, [r2, #0]
 800200c:	2300      	movs	r3, #0
 800200e:	e9c2 3302 	strd	r3, r3, [r2, #8]
 8002012:	4a0a      	ldr	r2, [pc, #40]	; (800203c <_GLOBAL__sub_I_rcc_init_afio+0x38>)
 8002014:	4c0a      	ldr	r4, [pc, #40]	; (8002040 <_GLOBAL__sub_I_rcc_init_afio+0x3c>)
 8002016:	7013      	strb	r3, [r2, #0]
 8002018:	4b0a      	ldr	r3, [pc, #40]	; (8002044 <_GLOBAL__sub_I_rcc_init_afio+0x40>)
 800201a:	f104 004c 	add.w	r0, r4, #76	; 0x4c
 800201e:	6023      	str	r3, [r4, #0]
 8002020:	332c      	adds	r3, #44	; 0x2c
 8002022:	64a3      	str	r3, [r4, #72]	; 0x48
 8002024:	f7fe f8e2 	bl	80001ec <_ZN8FifoBaseC1Ev>
 8002028:	f204 2052 	addw	r0, r4, #594	; 0x252
 800202c:	e8bd 4010 	ldmia.w	sp!, {r4, lr}
 8002030:	f7fe b8dc 	b.w	80001ec <_ZN8FifoBaseC1Ev>
 8002034:	200007c0 	.word	0x200007c0
 8002038:	080032d4 	.word	0x080032d4
 800203c:	200006fc 	.word	0x200006fc
 8002040:	20000030 	.word	0x20000030
 8002044:	080032f0 	.word	0x080032f0

08002048 <_Z18SystemClock_Configv>:
 8002048:	b510      	push	{r4, lr}
 800204a:	b090      	sub	sp, #64	; 0x40
 800204c:	2210      	movs	r2, #16
 800204e:	2100      	movs	r1, #0
 8002050:	a809      	add	r0, sp, #36	; 0x24
 8002052:	f001 f88f 	bl	8003174 <memset>
 8002056:	2214      	movs	r2, #20
 8002058:	2100      	movs	r1, #0
 800205a:	a801      	add	r0, sp, #4
 800205c:	f001 f88a 	bl	8003174 <memset>
 8002060:	2402      	movs	r4, #2
 8002062:	f44f 3380 	mov.w	r3, #65536	; 0x10000
 8002066:	2201      	movs	r2, #1
 8002068:	f44f 3100 	mov.w	r1, #131072	; 0x20000
 800206c:	e9cd 2306 	strd	r2, r3, [sp, #24]
 8002070:	e9cd 430d 	strd	r4, r3, [sp, #52]	; 0x34
 8002074:	f44f 13e0 	mov.w	r3, #1835008	; 0x1c0000
 8002078:	a806      	add	r0, sp, #24
 800207a:	9108      	str	r1, [sp, #32]
 800207c:	920a      	str	r2, [sp, #40]	; 0x28
 800207e:	930f      	str	r3, [sp, #60]	; 0x3c
 8002080:	f000 f91e 	bl	80022c0 <HAL_RCC_OscConfig>
 8002084:	b108      	cbz	r0, 800208a <_Z18SystemClock_Configv+0x42>
 8002086:	b672      	cpsid	i
 8002088:	e7fe      	b.n	8002088 <_Z18SystemClock_Configv+0x40>
 800208a:	230f      	movs	r3, #15
 800208c:	e9cd 3401 	strd	r3, r4, [sp, #4]
 8002090:	f44f 6380 	mov.w	r3, #1024	; 0x400
 8002094:	9003      	str	r0, [sp, #12]
 8002096:	e9cd 3004 	strd	r3, r0, [sp, #16]
 800209a:	4621      	mov	r1, r4
 800209c:	a801      	add	r0, sp, #4
 800209e:	f000 faeb 	bl	8002678 <HAL_RCC_ClockConfig>
 80020a2:	b108      	cbz	r0, 80020a8 <_Z18SystemClock_Configv+0x60>
 80020a4:	b672      	cpsid	i
 80020a6:	e7fe      	b.n	80020a6 <_Z18SystemClock_Configv+0x5e>
 80020a8:	b010      	add	sp, #64	; 0x40
 80020aa:	bd10      	pop	{r4, pc}

080020ac <main>:
 80020ac:	b507      	push	{r0, r1, r2, lr}
 80020ae:	f000 f895 	bl	80021dc <HAL_Init>
 80020b2:	f7ff ffc9 	bl	8002048 <_Z18SystemClock_Configv>
 80020b6:	4b0c      	ldr	r3, [pc, #48]	; (80020e8 <main+0x3c>)
 80020b8:	699a      	ldr	r2, [r3, #24]
 80020ba:	f042 0220 	orr.w	r2, r2, #32
 80020be:	619a      	str	r2, [r3, #24]
 80020c0:	699a      	ldr	r2, [r3, #24]
 80020c2:	f002 0220 	and.w	r2, r2, #32
 80020c6:	9201      	str	r2, [sp, #4]
 80020c8:	9a01      	ldr	r2, [sp, #4]
 80020ca:	699a      	ldr	r2, [r3, #24]
 80020cc:	f042 0204 	orr.w	r2, r2, #4
 80020d0:	619a      	str	r2, [r3, #24]
 80020d2:	699b      	ldr	r3, [r3, #24]
 80020d4:	f003 0304 	and.w	r3, r3, #4
 80020d8:	9300      	str	r3, [sp, #0]
 80020da:	9b00      	ldr	r3, [sp, #0]
 80020dc:	b003      	add	sp, #12
 80020de:	f85d eb04 	ldr.w	lr, [sp], #4
 80020e2:	f7ff bd3d 	b.w	8001b60 <_Z9main_mainv>
 80020e6:	bf00      	nop
 80020e8:	40021000 	.word	0x40021000

080020ec <HAL_MspInit>:
 80020ec:	4b0e      	ldr	r3, [pc, #56]	; (8002128 <HAL_MspInit+0x3c>)
 80020ee:	b082      	sub	sp, #8
 80020f0:	699a      	ldr	r2, [r3, #24]
 80020f2:	f042 0201 	orr.w	r2, r2, #1
 80020f6:	619a      	str	r2, [r3, #24]
 80020f8:	699a      	ldr	r2, [r3, #24]
 80020fa:	f002 0201 	and.w	r2, r2, #1
 80020fe:	9200      	str	r2, [sp, #0]
 8002100:	9a00      	ldr	r2, [sp, #0]
 8002102:	69da      	ldr	r2, [r3, #28]
 8002104:	f042 5280 	orr.w	r2, r2, #268435456	; 0x10000000
 8002108:	61da      	str	r2, [r3, #28]
 800210a:	69db      	ldr	r3, [r3, #28]
 800210c:	4a07      	ldr	r2, [pc, #28]	; (800212c <HAL_MspInit+0x40>)
 800210e:	f003 5380 	and.w	r3, r3, #268435456	; 0x10000000
 8002112:	9301      	str	r3, [sp, #4]
 8002114:	9b01      	ldr	r3, [sp, #4]
 8002116:	6853      	ldr	r3, [r2, #4]
 8002118:	f023 63e0 	bic.w	r3, r3, #117440512	; 0x7000000
 800211c:	f043 7300 	orr.w	r3, r3, #33554432	; 0x2000000
 8002120:	6053      	str	r3, [r2, #4]
 8002122:	b002      	add	sp, #8
 8002124:	4770      	bx	lr
 8002126:	bf00      	nop
 8002128:	40021000 	.word	0x40021000
 800212c:	40010000 	.word	0x40010000

08002130 <NMI_Handler>:
 8002130:	e7fe      	b.n	8002130 <NMI_Handler>

08002132 <HardFault_Handler>:
 8002132:	e7fe      	b.n	8002132 <HardFault_Handler>

08002134 <MemManage_Handler>:
 8002134:	e7fe      	b.n	8002134 <MemManage_Handler>

08002136 <BusFault_Handler>:
 8002136:	e7fe      	b.n	8002136 <BusFault_Handler>

08002138 <UsageFault_Handler>:
 8002138:	e7fe      	b.n	8002138 <UsageFault_Handler>

0800213a <SVC_Handler>:
 800213a:	4770      	bx	lr

0800213c <DebugMon_Handler>:
 800213c:	4770      	bx	lr

0800213e <PendSV_Handler>:
 800213e:	4770      	bx	lr

08002140 <SysTick_Handler>:
 8002140:	f7fe bf86 	b.w	8001050 <HAL_IncTick>

08002144 <SystemInit>:
 8002144:	4770      	bx	lr
	...

08002148 <Reset_Handler>:
 8002148:	480c      	ldr	r0, [pc, #48]	; (800217c <LoopFillZerobss+0x12>)
 800214a:	490d      	ldr	r1, [pc, #52]	; (8002180 <LoopFillZerobss+0x16>)
 800214c:	4a0d      	ldr	r2, [pc, #52]	; (8002184 <LoopFillZerobss+0x1a>)
 800214e:	2300      	movs	r3, #0
 8002150:	e002      	b.n	8002158 <LoopCopyDataInit>

08002152 <CopyDataInit>:
 8002152:	58d4      	ldr	r4, [r2, r3]
 8002154:	50c4      	str	r4, [r0, r3]
 8002156:	3304      	adds	r3, #4

08002158 <LoopCopyDataInit>:
 8002158:	18c4      	adds	r4, r0, r3
 800215a:	428c      	cmp	r4, r1
 800215c:	d3f9      	bcc.n	8002152 <CopyDataInit>
 800215e:	4a0a      	ldr	r2, [pc, #40]	; (8002188 <LoopFillZerobss+0x1e>)
 8002160:	4c0a      	ldr	r4, [pc, #40]	; (800218c <LoopFillZerobss+0x22>)
 8002162:	2300      	movs	r3, #0
 8002164:	e001      	b.n	800216a <LoopFillZerobss>

08002166 <FillZerobss>:
 8002166:	6013      	str	r3, [r2, #0]
 8002168:	3204      	adds	r2, #4

0800216a <LoopFillZerobss>:
 800216a:	42a2      	cmp	r2, r4
 800216c:	d3fb      	bcc.n	8002166 <FillZerobss>
 800216e:	f7ff ffe9 	bl	8002144 <SystemInit>
 8002172:	f000 ffcd 	bl	8003110 <__libc_init_array>
 8002176:	f7ff ff99 	bl	80020ac <main>
 800217a:	4770      	bx	lr
 800217c:	20000000 	.word	0x20000000
 8002180:	2000000c 	.word	0x2000000c
 8002184:	08003364 	.word	0x08003364
 8002188:	20000010 	.word	0x20000010
 800218c:	200012c0 	.word	0x200012c0

08002190 <ADC1_2_IRQHandler>:
 8002190:	e7fe      	b.n	8002190 <ADC1_2_IRQHandler>
	...

08002194 <HAL_InitTick>:
 8002194:	b538      	push	{r3, r4, r5, lr}
 8002196:	4b0e      	ldr	r3, [pc, #56]	; (80021d0 <HAL_InitTick+0x3c>)
 8002198:	4605      	mov	r5, r0
 800219a:	7818      	ldrb	r0, [r3, #0]
 800219c:	f44f 737a 	mov.w	r3, #1000	; 0x3e8
 80021a0:	fbb3 f3f0 	udiv	r3, r3, r0
 80021a4:	4a0b      	ldr	r2, [pc, #44]	; (80021d4 <HAL_InitTick+0x40>)
 80021a6:	6810      	ldr	r0, [r2, #0]
 80021a8:	fbb0 f0f3 	udiv	r0, r0, r3
 80021ac:	f000 f872 	bl	8002294 <HAL_SYSTICK_Config>
 80021b0:	4604      	mov	r4, r0
 80021b2:	b958      	cbnz	r0, 80021cc <HAL_InitTick+0x38>
 80021b4:	2d0f      	cmp	r5, #15
 80021b6:	d809      	bhi.n	80021cc <HAL_InitTick+0x38>
 80021b8:	4602      	mov	r2, r0
 80021ba:	4629      	mov	r1, r5
 80021bc:	f04f 30ff 	mov.w	r0, #4294967295
 80021c0:	f000 f836 	bl	8002230 <HAL_NVIC_SetPriority>
 80021c4:	4620      	mov	r0, r4
 80021c6:	4b04      	ldr	r3, [pc, #16]	; (80021d8 <HAL_InitTick+0x44>)
 80021c8:	601d      	str	r5, [r3, #0]
 80021ca:	bd38      	pop	{r3, r4, r5, pc}
 80021cc:	2001      	movs	r0, #1
 80021ce:	e7fc      	b.n	80021ca <HAL_InitTick+0x36>
 80021d0:	20000004 	.word	0x20000004
 80021d4:	20000000 	.word	0x20000000
 80021d8:	20000008 	.word	0x20000008

080021dc <HAL_Init>:
 80021dc:	4a07      	ldr	r2, [pc, #28]	; (80021fc <HAL_Init+0x20>)
 80021de:	b508      	push	{r3, lr}
 80021e0:	6813      	ldr	r3, [r2, #0]
 80021e2:	2003      	movs	r0, #3
 80021e4:	f043 0310 	orr.w	r3, r3, #16
 80021e8:	6013      	str	r3, [r2, #0]
 80021ea:	f000 f80f 	bl	800220c <HAL_NVIC_SetPriorityGrouping>
 80021ee:	200f      	movs	r0, #15
 80021f0:	f7ff ffd0 	bl	8002194 <HAL_InitTick>
 80021f4:	f7ff ff7a 	bl	80020ec <HAL_MspInit>
 80021f8:	2000      	movs	r0, #0
 80021fa:	bd08      	pop	{r3, pc}
 80021fc:	40022000 	.word	0x40022000

08002200 <HAL_GetTick>:
 8002200:	4b01      	ldr	r3, [pc, #4]	; (8002208 <HAL_GetTick+0x8>)
 8002202:	6818      	ldr	r0, [r3, #0]
 8002204:	4770      	bx	lr
 8002206:	bf00      	nop
 8002208:	2000129c 	.word	0x2000129c

0800220c <HAL_NVIC_SetPriorityGrouping>:
 800220c:	4907      	ldr	r1, [pc, #28]	; (800222c <HAL_NVIC_SetPriorityGrouping+0x20>)
 800220e:	0203      	lsls	r3, r0, #8
 8002210:	68ca      	ldr	r2, [r1, #12]
 8002212:	f403 63e0 	and.w	r3, r3, #1792	; 0x700
 8002216:	f422 62e0 	bic.w	r2, r2, #1792	; 0x700
 800221a:	0412      	lsls	r2, r2, #16
 800221c:	0c12      	lsrs	r2, r2, #16
 800221e:	4313      	orrs	r3, r2
 8002220:	f043 63bf 	orr.w	r3, r3, #100139008	; 0x5f80000
 8002224:	f443 3300 	orr.w	r3, r3, #131072	; 0x20000
 8002228:	60cb      	str	r3, [r1, #12]
 800222a:	4770      	bx	lr
 800222c:	e000ed00 	.word	0xe000ed00

08002230 <HAL_NVIC_SetPriority>:
 8002230:	4b16      	ldr	r3, [pc, #88]	; (800228c <HAL_NVIC_SetPriority+0x5c>)
 8002232:	b530      	push	{r4, r5, lr}
 8002234:	68dc      	ldr	r4, [r3, #12]
 8002236:	f3c4 2402 	ubfx	r4, r4, #8, #3
 800223a:	f1c4 0307 	rsb	r3, r4, #7
 800223e:	1d25      	adds	r5, r4, #4
 8002240:	2b04      	cmp	r3, #4
 8002242:	bf28      	it	cs
 8002244:	2304      	movcs	r3, #4
 8002246:	2d06      	cmp	r5, #6
 8002248:	f04f 35ff 	mov.w	r5, #4294967295
 800224c:	bf98      	it	ls
 800224e:	2400      	movls	r4, #0
 8002250:	fa05 f303 	lsl.w	r3, r5, r3
 8002254:	bf88      	it	hi
 8002256:	3c03      	subhi	r4, #3
 8002258:	ea21 0303 	bic.w	r3, r1, r3
 800225c:	40a3      	lsls	r3, r4
 800225e:	fa05 f404 	lsl.w	r4, r5, r4
 8002262:	ea22 0204 	bic.w	r2, r2, r4
 8002266:	2800      	cmp	r0, #0
 8002268:	ea43 0302 	orr.w	r3, r3, r2
 800226c:	bfac      	ite	ge
 800226e:	f100 4060 	addge.w	r0, r0, #3758096384	; 0xe0000000
 8002272:	4a07      	ldrlt	r2, [pc, #28]	; (8002290 <HAL_NVIC_SetPriority+0x60>)
 8002274:	ea4f 1303 	mov.w	r3, r3, lsl #4
 8002278:	b2db      	uxtb	r3, r3
 800227a:	bfab      	itete	ge
 800227c:	f500 4061 	addge.w	r0, r0, #57600	; 0xe100
 8002280:	f000 000f 	andlt.w	r0, r0, #15
 8002284:	f880 3300 	strbge.w	r3, [r0, #768]	; 0x300
 8002288:	5413      	strblt	r3, [r2, r0]
 800228a:	bd30      	pop	{r4, r5, pc}
 800228c:	e000ed00 	.word	0xe000ed00
 8002290:	e000ed14 	.word	0xe000ed14

08002294 <HAL_SYSTICK_Config>:
 8002294:	3801      	subs	r0, #1
 8002296:	f1b0 7f80 	cmp.w	r0, #16777216	; 0x1000000
 800229a:	d20a      	bcs.n	80022b2 <HAL_SYSTICK_Config+0x1e>
 800229c:	21f0      	movs	r1, #240	; 0xf0
 800229e:	4b06      	ldr	r3, [pc, #24]	; (80022b8 <HAL_SYSTICK_Config+0x24>)
 80022a0:	4a06      	ldr	r2, [pc, #24]	; (80022bc <HAL_SYSTICK_Config+0x28>)
 80022a2:	6058      	str	r0, [r3, #4]
 80022a4:	f882 1023 	strb.w	r1, [r2, #35]	; 0x23
 80022a8:	2000      	movs	r0, #0
 80022aa:	2207      	movs	r2, #7
 80022ac:	6098      	str	r0, [r3, #8]
 80022ae:	601a      	str	r2, [r3, #0]
 80022b0:	4770      	bx	lr
 80022b2:	2001      	movs	r0, #1
 80022b4:	4770      	bx	lr
 80022b6:	bf00      	nop
 80022b8:	e000e010 	.word	0xe000e010
 80022bc:	e000ed00 	.word	0xe000ed00

080022c0 <HAL_RCC_OscConfig>:
 80022c0:	e92d 41f3 	stmdb	sp!, {r0, r1, r4, r5, r6, r7, r8, lr}
 80022c4:	4605      	mov	r5, r0
 80022c6:	b338      	cbz	r0, 8002318 <HAL_RCC_OscConfig+0x58>
 80022c8:	6803      	ldr	r3, [r0, #0]
 80022ca:	07db      	lsls	r3, r3, #31
 80022cc:	d410      	bmi.n	80022f0 <HAL_RCC_OscConfig+0x30>
 80022ce:	682b      	ldr	r3, [r5, #0]
 80022d0:	079f      	lsls	r7, r3, #30
 80022d2:	d45e      	bmi.n	8002392 <HAL_RCC_OscConfig+0xd2>
 80022d4:	682b      	ldr	r3, [r5, #0]
 80022d6:	0719      	lsls	r1, r3, #28
 80022d8:	f100 8095 	bmi.w	8002406 <HAL_RCC_OscConfig+0x146>
 80022dc:	682b      	ldr	r3, [r5, #0]
 80022de:	075a      	lsls	r2, r3, #29
 80022e0:	f100 80bf 	bmi.w	8002462 <HAL_RCC_OscConfig+0x1a2>
 80022e4:	69e8      	ldr	r0, [r5, #28]
 80022e6:	2800      	cmp	r0, #0
 80022e8:	f040 812c 	bne.w	8002544 <HAL_RCC_OscConfig+0x284>
 80022ec:	2000      	movs	r0, #0
 80022ee:	e029      	b.n	8002344 <HAL_RCC_OscConfig+0x84>
 80022f0:	4c8f      	ldr	r4, [pc, #572]	; (8002530 <HAL_RCC_OscConfig+0x270>)
 80022f2:	6863      	ldr	r3, [r4, #4]
 80022f4:	f003 030c 	and.w	r3, r3, #12
 80022f8:	2b04      	cmp	r3, #4
 80022fa:	d007      	beq.n	800230c <HAL_RCC_OscConfig+0x4c>
 80022fc:	6863      	ldr	r3, [r4, #4]
 80022fe:	f003 030c 	and.w	r3, r3, #12
 8002302:	2b08      	cmp	r3, #8
 8002304:	d10a      	bne.n	800231c <HAL_RCC_OscConfig+0x5c>
 8002306:	6863      	ldr	r3, [r4, #4]
 8002308:	03de      	lsls	r6, r3, #15
 800230a:	d507      	bpl.n	800231c <HAL_RCC_OscConfig+0x5c>
 800230c:	6823      	ldr	r3, [r4, #0]
 800230e:	039c      	lsls	r4, r3, #14
 8002310:	d5dd      	bpl.n	80022ce <HAL_RCC_OscConfig+0xe>
 8002312:	686b      	ldr	r3, [r5, #4]
 8002314:	2b00      	cmp	r3, #0
 8002316:	d1da      	bne.n	80022ce <HAL_RCC_OscConfig+0xe>
 8002318:	2001      	movs	r0, #1
 800231a:	e013      	b.n	8002344 <HAL_RCC_OscConfig+0x84>
 800231c:	686b      	ldr	r3, [r5, #4]
 800231e:	f5b3 3f80 	cmp.w	r3, #65536	; 0x10000
 8002322:	d112      	bne.n	800234a <HAL_RCC_OscConfig+0x8a>
 8002324:	6823      	ldr	r3, [r4, #0]
 8002326:	f443 3380 	orr.w	r3, r3, #65536	; 0x10000
 800232a:	6023      	str	r3, [r4, #0]
 800232c:	f7ff ff68 	bl	8002200 <HAL_GetTick>
 8002330:	4606      	mov	r6, r0
 8002332:	6823      	ldr	r3, [r4, #0]
 8002334:	0398      	lsls	r0, r3, #14
 8002336:	d4ca      	bmi.n	80022ce <HAL_RCC_OscConfig+0xe>
 8002338:	f7ff ff62 	bl	8002200 <HAL_GetTick>
 800233c:	1b80      	subs	r0, r0, r6
 800233e:	2864      	cmp	r0, #100	; 0x64
 8002340:	d9f7      	bls.n	8002332 <HAL_RCC_OscConfig+0x72>
 8002342:	2003      	movs	r0, #3
 8002344:	b002      	add	sp, #8
 8002346:	e8bd 81f0 	ldmia.w	sp!, {r4, r5, r6, r7, r8, pc}
 800234a:	b99b      	cbnz	r3, 8002374 <HAL_RCC_OscConfig+0xb4>
 800234c:	6823      	ldr	r3, [r4, #0]
 800234e:	f423 3380 	bic.w	r3, r3, #65536	; 0x10000
 8002352:	6023      	str	r3, [r4, #0]
 8002354:	6823      	ldr	r3, [r4, #0]
 8002356:	f423 2380 	bic.w	r3, r3, #262144	; 0x40000
 800235a:	6023      	str	r3, [r4, #0]
 800235c:	f7ff ff50 	bl	8002200 <HAL_GetTick>
 8002360:	4606      	mov	r6, r0
 8002362:	6823      	ldr	r3, [r4, #0]
 8002364:	0399      	lsls	r1, r3, #14
 8002366:	d5b2      	bpl.n	80022ce <HAL_RCC_OscConfig+0xe>
 8002368:	f7ff ff4a 	bl	8002200 <HAL_GetTick>
 800236c:	1b80      	subs	r0, r0, r6
 800236e:	2864      	cmp	r0, #100	; 0x64
 8002370:	d9f7      	bls.n	8002362 <HAL_RCC_OscConfig+0xa2>
 8002372:	e7e6      	b.n	8002342 <HAL_RCC_OscConfig+0x82>
 8002374:	f5b3 2fa0 	cmp.w	r3, #327680	; 0x50000
 8002378:	6823      	ldr	r3, [r4, #0]
 800237a:	d103      	bne.n	8002384 <HAL_RCC_OscConfig+0xc4>
 800237c:	f443 2380 	orr.w	r3, r3, #262144	; 0x40000
 8002380:	6023      	str	r3, [r4, #0]
 8002382:	e7cf      	b.n	8002324 <HAL_RCC_OscConfig+0x64>
 8002384:	f423 3380 	bic.w	r3, r3, #65536	; 0x10000
 8002388:	6023      	str	r3, [r4, #0]
 800238a:	6823      	ldr	r3, [r4, #0]
 800238c:	f423 2380 	bic.w	r3, r3, #262144	; 0x40000
 8002390:	e7cb      	b.n	800232a <HAL_RCC_OscConfig+0x6a>
 8002392:	4c67      	ldr	r4, [pc, #412]	; (8002530 <HAL_RCC_OscConfig+0x270>)
 8002394:	6863      	ldr	r3, [r4, #4]
 8002396:	f013 0f0c 	tst.w	r3, #12
 800239a:	d007      	beq.n	80023ac <HAL_RCC_OscConfig+0xec>
 800239c:	6863      	ldr	r3, [r4, #4]
 800239e:	f003 030c 	and.w	r3, r3, #12
 80023a2:	2b08      	cmp	r3, #8
 80023a4:	d110      	bne.n	80023c8 <HAL_RCC_OscConfig+0x108>
 80023a6:	6863      	ldr	r3, [r4, #4]
 80023a8:	03da      	lsls	r2, r3, #15
 80023aa:	d40d      	bmi.n	80023c8 <HAL_RCC_OscConfig+0x108>
 80023ac:	6823      	ldr	r3, [r4, #0]
 80023ae:	079b      	lsls	r3, r3, #30
 80023b0:	d502      	bpl.n	80023b8 <HAL_RCC_OscConfig+0xf8>
 80023b2:	692b      	ldr	r3, [r5, #16]
 80023b4:	2b01      	cmp	r3, #1
 80023b6:	d1af      	bne.n	8002318 <HAL_RCC_OscConfig+0x58>
 80023b8:	6823      	ldr	r3, [r4, #0]
 80023ba:	696a      	ldr	r2, [r5, #20]
 80023bc:	f023 03f8 	bic.w	r3, r3, #248	; 0xf8
 80023c0:	ea43 03c2 	orr.w	r3, r3, r2, lsl #3
 80023c4:	6023      	str	r3, [r4, #0]
 80023c6:	e785      	b.n	80022d4 <HAL_RCC_OscConfig+0x14>
 80023c8:	692a      	ldr	r2, [r5, #16]
 80023ca:	4b5a      	ldr	r3, [pc, #360]	; (8002534 <HAL_RCC_OscConfig+0x274>)
 80023cc:	b16a      	cbz	r2, 80023ea <HAL_RCC_OscConfig+0x12a>
 80023ce:	2201      	movs	r2, #1
 80023d0:	601a      	str	r2, [r3, #0]
 80023d2:	f7ff ff15 	bl	8002200 <HAL_GetTick>
 80023d6:	4606      	mov	r6, r0
 80023d8:	6823      	ldr	r3, [r4, #0]
 80023da:	079f      	lsls	r7, r3, #30
 80023dc:	d4ec      	bmi.n	80023b8 <HAL_RCC_OscConfig+0xf8>
 80023de:	f7ff ff0f 	bl	8002200 <HAL_GetTick>
 80023e2:	1b80      	subs	r0, r0, r6
 80023e4:	2802      	cmp	r0, #2
 80023e6:	d9f7      	bls.n	80023d8 <HAL_RCC_OscConfig+0x118>
 80023e8:	e7ab      	b.n	8002342 <HAL_RCC_OscConfig+0x82>
 80023ea:	601a      	str	r2, [r3, #0]
 80023ec:	f7ff ff08 	bl	8002200 <HAL_GetTick>
 80023f0:	4606      	mov	r6, r0
 80023f2:	6823      	ldr	r3, [r4, #0]
 80023f4:	0798      	lsls	r0, r3, #30
 80023f6:	f57f af6d 	bpl.w	80022d4 <HAL_RCC_OscConfig+0x14>
 80023fa:	f7ff ff01 	bl	8002200 <HAL_GetTick>
 80023fe:	1b80      	subs	r0, r0, r6
 8002400:	2802      	cmp	r0, #2
 8002402:	d9f6      	bls.n	80023f2 <HAL_RCC_OscConfig+0x132>
 8002404:	e79d      	b.n	8002342 <HAL_RCC_OscConfig+0x82>
 8002406:	69aa      	ldr	r2, [r5, #24]
 8002408:	4e49      	ldr	r6, [pc, #292]	; (8002530 <HAL_RCC_OscConfig+0x270>)
 800240a:	4b4b      	ldr	r3, [pc, #300]	; (8002538 <HAL_RCC_OscConfig+0x278>)
 800240c:	b1da      	cbz	r2, 8002446 <HAL_RCC_OscConfig+0x186>
 800240e:	2201      	movs	r2, #1
 8002410:	601a      	str	r2, [r3, #0]
 8002412:	f7ff fef5 	bl	8002200 <HAL_GetTick>
 8002416:	4604      	mov	r4, r0
 8002418:	6a73      	ldr	r3, [r6, #36]	; 0x24
 800241a:	079b      	lsls	r3, r3, #30
 800241c:	d50d      	bpl.n	800243a <HAL_RCC_OscConfig+0x17a>
 800241e:	f44f 52fa 	mov.w	r2, #8000	; 0x1f40
 8002422:	4b46      	ldr	r3, [pc, #280]	; (800253c <HAL_RCC_OscConfig+0x27c>)
 8002424:	681b      	ldr	r3, [r3, #0]
 8002426:	fbb3 f3f2 	udiv	r3, r3, r2
 800242a:	9301      	str	r3, [sp, #4]
 800242c:	bf00      	nop
 800242e:	9b01      	ldr	r3, [sp, #4]
 8002430:	1e5a      	subs	r2, r3, #1
 8002432:	9201      	str	r2, [sp, #4]
 8002434:	2b00      	cmp	r3, #0
 8002436:	d1f9      	bne.n	800242c <HAL_RCC_OscConfig+0x16c>
 8002438:	e750      	b.n	80022dc <HAL_RCC_OscConfig+0x1c>
 800243a:	f7ff fee1 	bl	8002200 <HAL_GetTick>
 800243e:	1b00      	subs	r0, r0, r4
 8002440:	2802      	cmp	r0, #2
 8002442:	d9e9      	bls.n	8002418 <HAL_RCC_OscConfig+0x158>
 8002444:	e77d      	b.n	8002342 <HAL_RCC_OscConfig+0x82>
 8002446:	601a      	str	r2, [r3, #0]
 8002448:	f7ff feda 	bl	8002200 <HAL_GetTick>
 800244c:	4604      	mov	r4, r0
 800244e:	6a73      	ldr	r3, [r6, #36]	; 0x24
 8002450:	079f      	lsls	r7, r3, #30
 8002452:	f57f af43 	bpl.w	80022dc <HAL_RCC_OscConfig+0x1c>
 8002456:	f7ff fed3 	bl	8002200 <HAL_GetTick>
 800245a:	1b00      	subs	r0, r0, r4
 800245c:	2802      	cmp	r0, #2
 800245e:	d9f6      	bls.n	800244e <HAL_RCC_OscConfig+0x18e>
 8002460:	e76f      	b.n	8002342 <HAL_RCC_OscConfig+0x82>
 8002462:	4c33      	ldr	r4, [pc, #204]	; (8002530 <HAL_RCC_OscConfig+0x270>)
 8002464:	69e3      	ldr	r3, [r4, #28]
 8002466:	00d8      	lsls	r0, r3, #3
 8002468:	d424      	bmi.n	80024b4 <HAL_RCC_OscConfig+0x1f4>
 800246a:	2701      	movs	r7, #1
 800246c:	69e3      	ldr	r3, [r4, #28]
 800246e:	f043 5380 	orr.w	r3, r3, #268435456	; 0x10000000
 8002472:	61e3      	str	r3, [r4, #28]
 8002474:	69e3      	ldr	r3, [r4, #28]
 8002476:	f003 5380 	and.w	r3, r3, #268435456	; 0x10000000
 800247a:	9300      	str	r3, [sp, #0]
 800247c:	9b00      	ldr	r3, [sp, #0]
 800247e:	4e30      	ldr	r6, [pc, #192]	; (8002540 <HAL_RCC_OscConfig+0x280>)
 8002480:	6833      	ldr	r3, [r6, #0]
 8002482:	05d9      	lsls	r1, r3, #23
 8002484:	d518      	bpl.n	80024b8 <HAL_RCC_OscConfig+0x1f8>
 8002486:	68eb      	ldr	r3, [r5, #12]
 8002488:	2b01      	cmp	r3, #1
 800248a:	d126      	bne.n	80024da <HAL_RCC_OscConfig+0x21a>
 800248c:	6a23      	ldr	r3, [r4, #32]
 800248e:	f043 0301 	orr.w	r3, r3, #1
 8002492:	6223      	str	r3, [r4, #32]
 8002494:	f7ff feb4 	bl	8002200 <HAL_GetTick>
 8002498:	f241 3888 	movw	r8, #5000	; 0x1388
 800249c:	4606      	mov	r6, r0
 800249e:	6a23      	ldr	r3, [r4, #32]
 80024a0:	079b      	lsls	r3, r3, #30
 80024a2:	d53f      	bpl.n	8002524 <HAL_RCC_OscConfig+0x264>
 80024a4:	2f00      	cmp	r7, #0
 80024a6:	f43f af1d 	beq.w	80022e4 <HAL_RCC_OscConfig+0x24>
 80024aa:	69e3      	ldr	r3, [r4, #28]
 80024ac:	f023 5380 	bic.w	r3, r3, #268435456	; 0x10000000
 80024b0:	61e3      	str	r3, [r4, #28]
 80024b2:	e717      	b.n	80022e4 <HAL_RCC_OscConfig+0x24>
 80024b4:	2700      	movs	r7, #0
 80024b6:	e7e2      	b.n	800247e <HAL_RCC_OscConfig+0x1be>
 80024b8:	6833      	ldr	r3, [r6, #0]
 80024ba:	f443 7380 	orr.w	r3, r3, #256	; 0x100
 80024be:	6033      	str	r3, [r6, #0]
 80024c0:	f7ff fe9e 	bl	8002200 <HAL_GetTick>
 80024c4:	4680      	mov	r8, r0
 80024c6:	6833      	ldr	r3, [r6, #0]
 80024c8:	05da      	lsls	r2, r3, #23
 80024ca:	d4dc      	bmi.n	8002486 <HAL_RCC_OscConfig+0x1c6>
 80024cc:	f7ff fe98 	bl	8002200 <HAL_GetTick>
 80024d0:	eba0 0008 	sub.w	r0, r0, r8
 80024d4:	2864      	cmp	r0, #100	; 0x64
 80024d6:	d9f6      	bls.n	80024c6 <HAL_RCC_OscConfig+0x206>
 80024d8:	e733      	b.n	8002342 <HAL_RCC_OscConfig+0x82>
 80024da:	b9ab      	cbnz	r3, 8002508 <HAL_RCC_OscConfig+0x248>
 80024dc:	6a23      	ldr	r3, [r4, #32]
 80024de:	f241 3888 	movw	r8, #5000	; 0x1388
 80024e2:	f023 0301 	bic.w	r3, r3, #1
 80024e6:	6223      	str	r3, [r4, #32]
 80024e8:	6a23      	ldr	r3, [r4, #32]
 80024ea:	f023 0304 	bic.w	r3, r3, #4
 80024ee:	6223      	str	r3, [r4, #32]
 80024f0:	f7ff fe86 	bl	8002200 <HAL_GetTick>
 80024f4:	4606      	mov	r6, r0
 80024f6:	6a23      	ldr	r3, [r4, #32]
 80024f8:	0798      	lsls	r0, r3, #30
 80024fa:	d5d3      	bpl.n	80024a4 <HAL_RCC_OscConfig+0x1e4>
 80024fc:	f7ff fe80 	bl	8002200 <HAL_GetTick>
 8002500:	1b80      	subs	r0, r0, r6
 8002502:	4540      	cmp	r0, r8
 8002504:	d9f7      	bls.n	80024f6 <HAL_RCC_OscConfig+0x236>
 8002506:	e71c      	b.n	8002342 <HAL_RCC_OscConfig+0x82>
 8002508:	2b05      	cmp	r3, #5
 800250a:	6a23      	ldr	r3, [r4, #32]
 800250c:	d103      	bne.n	8002516 <HAL_RCC_OscConfig+0x256>
 800250e:	f043 0304 	orr.w	r3, r3, #4
 8002512:	6223      	str	r3, [r4, #32]
 8002514:	e7ba      	b.n	800248c <HAL_RCC_OscConfig+0x1cc>
 8002516:	f023 0301 	bic.w	r3, r3, #1
 800251a:	6223      	str	r3, [r4, #32]
 800251c:	6a23      	ldr	r3, [r4, #32]
 800251e:	f023 0304 	bic.w	r3, r3, #4
 8002522:	e7b6      	b.n	8002492 <HAL_RCC_OscConfig+0x1d2>
 8002524:	f7ff fe6c 	bl	8002200 <HAL_GetTick>
 8002528:	1b80      	subs	r0, r0, r6
 800252a:	4540      	cmp	r0, r8
 800252c:	d9b7      	bls.n	800249e <HAL_RCC_OscConfig+0x1de>
 800252e:	e708      	b.n	8002342 <HAL_RCC_OscConfig+0x82>
 8002530:	40021000 	.word	0x40021000
 8002534:	42420000 	.word	0x42420000
 8002538:	42420480 	.word	0x42420480
 800253c:	20000000 	.word	0x20000000
 8002540:	40007000 	.word	0x40007000
 8002544:	4b2a      	ldr	r3, [pc, #168]	; (80025f0 <HAL_RCC_OscConfig+0x330>)
 8002546:	685a      	ldr	r2, [r3, #4]
 8002548:	461c      	mov	r4, r3
 800254a:	f002 020c 	and.w	r2, r2, #12
 800254e:	2a08      	cmp	r2, #8
 8002550:	d03d      	beq.n	80025ce <HAL_RCC_OscConfig+0x30e>
 8002552:	2300      	movs	r3, #0
 8002554:	4e27      	ldr	r6, [pc, #156]	; (80025f4 <HAL_RCC_OscConfig+0x334>)
 8002556:	2802      	cmp	r0, #2
 8002558:	6033      	str	r3, [r6, #0]
 800255a:	d12b      	bne.n	80025b4 <HAL_RCC_OscConfig+0x2f4>
 800255c:	f7ff fe50 	bl	8002200 <HAL_GetTick>
 8002560:	4607      	mov	r7, r0
 8002562:	6823      	ldr	r3, [r4, #0]
 8002564:	0199      	lsls	r1, r3, #6
 8002566:	d41f      	bmi.n	80025a8 <HAL_RCC_OscConfig+0x2e8>
 8002568:	6a2b      	ldr	r3, [r5, #32]
 800256a:	f5b3 3f80 	cmp.w	r3, #65536	; 0x10000
 800256e:	d105      	bne.n	800257c <HAL_RCC_OscConfig+0x2bc>
 8002570:	6862      	ldr	r2, [r4, #4]
 8002572:	68a9      	ldr	r1, [r5, #8]
 8002574:	f422 3200 	bic.w	r2, r2, #131072	; 0x20000
 8002578:	430a      	orrs	r2, r1
 800257a:	6062      	str	r2, [r4, #4]
 800257c:	6a69      	ldr	r1, [r5, #36]	; 0x24
 800257e:	6862      	ldr	r2, [r4, #4]
 8002580:	430b      	orrs	r3, r1
 8002582:	f422 1274 	bic.w	r2, r2, #3997696	; 0x3d0000
 8002586:	4313      	orrs	r3, r2
 8002588:	6063      	str	r3, [r4, #4]
 800258a:	2301      	movs	r3, #1
 800258c:	6033      	str	r3, [r6, #0]
 800258e:	f7ff fe37 	bl	8002200 <HAL_GetTick>
 8002592:	4605      	mov	r5, r0
 8002594:	6823      	ldr	r3, [r4, #0]
 8002596:	019a      	lsls	r2, r3, #6
 8002598:	f53f aea8 	bmi.w	80022ec <HAL_RCC_OscConfig+0x2c>
 800259c:	f7ff fe30 	bl	8002200 <HAL_GetTick>
 80025a0:	1b40      	subs	r0, r0, r5
 80025a2:	2802      	cmp	r0, #2
 80025a4:	d9f6      	bls.n	8002594 <HAL_RCC_OscConfig+0x2d4>
 80025a6:	e6cc      	b.n	8002342 <HAL_RCC_OscConfig+0x82>
 80025a8:	f7ff fe2a 	bl	8002200 <HAL_GetTick>
 80025ac:	1bc0      	subs	r0, r0, r7
 80025ae:	2802      	cmp	r0, #2
 80025b0:	d9d7      	bls.n	8002562 <HAL_RCC_OscConfig+0x2a2>
 80025b2:	e6c6      	b.n	8002342 <HAL_RCC_OscConfig+0x82>
 80025b4:	f7ff fe24 	bl	8002200 <HAL_GetTick>
 80025b8:	4605      	mov	r5, r0
 80025ba:	6823      	ldr	r3, [r4, #0]
 80025bc:	019b      	lsls	r3, r3, #6
 80025be:	f57f ae95 	bpl.w	80022ec <HAL_RCC_OscConfig+0x2c>
 80025c2:	f7ff fe1d 	bl	8002200 <HAL_GetTick>
 80025c6:	1b40      	subs	r0, r0, r5
 80025c8:	2802      	cmp	r0, #2
 80025ca:	d9f6      	bls.n	80025ba <HAL_RCC_OscConfig+0x2fa>
 80025cc:	e6b9      	b.n	8002342 <HAL_RCC_OscConfig+0x82>
 80025ce:	2801      	cmp	r0, #1
 80025d0:	f43f aeb8 	beq.w	8002344 <HAL_RCC_OscConfig+0x84>
 80025d4:	685b      	ldr	r3, [r3, #4]
 80025d6:	6a2a      	ldr	r2, [r5, #32]
 80025d8:	f403 3180 	and.w	r1, r3, #65536	; 0x10000
 80025dc:	4291      	cmp	r1, r2
 80025de:	f47f ae9b 	bne.w	8002318 <HAL_RCC_OscConfig+0x58>
 80025e2:	6a6a      	ldr	r2, [r5, #36]	; 0x24
 80025e4:	f403 1370 	and.w	r3, r3, #3932160	; 0x3c0000
 80025e8:	4293      	cmp	r3, r2
 80025ea:	f43f ae7f 	beq.w	80022ec <HAL_RCC_OscConfig+0x2c>
 80025ee:	e693      	b.n	8002318 <HAL_RCC_OscConfig+0x58>
 80025f0:	40021000 	.word	0x40021000
 80025f4:	42420060 	.word	0x42420060

080025f8 <HAL_RCC_GetSysClockFreq>:
 80025f8:	b530      	push	{r4, r5, lr}
 80025fa:	4b1a      	ldr	r3, [pc, #104]	; (8002664 <HAL_RCC_GetSysClockFreq+0x6c>)
 80025fc:	b087      	sub	sp, #28
 80025fe:	ac02      	add	r4, sp, #8
 8002600:	f103 0510 	add.w	r5, r3, #16
 8002604:	4622      	mov	r2, r4
 8002606:	6818      	ldr	r0, [r3, #0]
 8002608:	6859      	ldr	r1, [r3, #4]
 800260a:	3308      	adds	r3, #8
 800260c:	c203      	stmia	r2!, {r0, r1}
 800260e:	42ab      	cmp	r3, r5
 8002610:	4614      	mov	r4, r2
 8002612:	d1f7      	bne.n	8002604 <HAL_RCC_GetSysClockFreq+0xc>
 8002614:	f240 2301 	movw	r3, #513	; 0x201
 8002618:	4913      	ldr	r1, [pc, #76]	; (8002668 <HAL_RCC_GetSysClockFreq+0x70>)
 800261a:	f8ad 3004 	strh.w	r3, [sp, #4]
 800261e:	684b      	ldr	r3, [r1, #4]
 8002620:	f003 020c 	and.w	r2, r3, #12
 8002624:	2a04      	cmp	r2, #4
 8002626:	d019      	beq.n	800265c <HAL_RCC_GetSysClockFreq+0x64>
 8002628:	2a08      	cmp	r2, #8
 800262a:	d119      	bne.n	8002660 <HAL_RCC_GetSysClockFreq+0x68>
 800262c:	f3c3 4283 	ubfx	r2, r3, #18, #4
 8002630:	a806      	add	r0, sp, #24
 8002632:	4402      	add	r2, r0
 8002634:	03db      	lsls	r3, r3, #15
 8002636:	f812 2c10 	ldrb.w	r2, [r2, #-16]
 800263a:	d50c      	bpl.n	8002656 <HAL_RCC_GetSysClockFreq+0x5e>
 800263c:	684b      	ldr	r3, [r1, #4]
 800263e:	480b      	ldr	r0, [pc, #44]	; (800266c <HAL_RCC_GetSysClockFreq+0x74>)
 8002640:	f3c3 4340 	ubfx	r3, r3, #17, #1
 8002644:	4350      	muls	r0, r2
 8002646:	aa06      	add	r2, sp, #24
 8002648:	4413      	add	r3, r2
 800264a:	f813 3c14 	ldrb.w	r3, [r3, #-20]
 800264e:	fbb0 f0f3 	udiv	r0, r0, r3
 8002652:	b007      	add	sp, #28
 8002654:	bd30      	pop	{r4, r5, pc}
 8002656:	4806      	ldr	r0, [pc, #24]	; (8002670 <HAL_RCC_GetSysClockFreq+0x78>)
 8002658:	4350      	muls	r0, r2
 800265a:	e7fa      	b.n	8002652 <HAL_RCC_GetSysClockFreq+0x5a>
 800265c:	4803      	ldr	r0, [pc, #12]	; (800266c <HAL_RCC_GetSysClockFreq+0x74>)
 800265e:	e7f8      	b.n	8002652 <HAL_RCC_GetSysClockFreq+0x5a>
 8002660:	4804      	ldr	r0, [pc, #16]	; (8002674 <HAL_RCC_GetSysClockFreq+0x7c>)
 8002662:	e7f6      	b.n	8002652 <HAL_RCC_GetSysClockFreq+0x5a>
 8002664:	08003344 	.word	0x08003344
 8002668:	40021000 	.word	0x40021000
 800266c:	00f42400 	.word	0x00f42400
 8002670:	003d0900 	.word	0x003d0900
 8002674:	007a1200 	.word	0x007a1200

08002678 <HAL_RCC_ClockConfig>:
 8002678:	e92d 41f0 	stmdb	sp!, {r4, r5, r6, r7, r8, lr}
 800267c:	460d      	mov	r5, r1
 800267e:	4604      	mov	r4, r0
 8002680:	b910      	cbnz	r0, 8002688 <HAL_RCC_ClockConfig+0x10>
 8002682:	2001      	movs	r0, #1
 8002684:	e8bd 81f0 	ldmia.w	sp!, {r4, r5, r6, r7, r8, pc}
 8002688:	4a44      	ldr	r2, [pc, #272]	; (800279c <HAL_RCC_ClockConfig+0x124>)
 800268a:	6813      	ldr	r3, [r2, #0]
 800268c:	f003 0307 	and.w	r3, r3, #7
 8002690:	428b      	cmp	r3, r1
 8002692:	d328      	bcc.n	80026e6 <HAL_RCC_ClockConfig+0x6e>
 8002694:	6821      	ldr	r1, [r4, #0]
 8002696:	078e      	lsls	r6, r1, #30
 8002698:	d430      	bmi.n	80026fc <HAL_RCC_ClockConfig+0x84>
 800269a:	07ca      	lsls	r2, r1, #31
 800269c:	d443      	bmi.n	8002726 <HAL_RCC_ClockConfig+0xae>
 800269e:	4a3f      	ldr	r2, [pc, #252]	; (800279c <HAL_RCC_ClockConfig+0x124>)
 80026a0:	6813      	ldr	r3, [r2, #0]
 80026a2:	f003 0307 	and.w	r3, r3, #7
 80026a6:	42ab      	cmp	r3, r5
 80026a8:	d865      	bhi.n	8002776 <HAL_RCC_ClockConfig+0xfe>
 80026aa:	6822      	ldr	r2, [r4, #0]
 80026ac:	4d3c      	ldr	r5, [pc, #240]	; (80027a0 <HAL_RCC_ClockConfig+0x128>)
 80026ae:	f012 0f04 	tst.w	r2, #4
 80026b2:	d16c      	bne.n	800278e <HAL_RCC_ClockConfig+0x116>
 80026b4:	0713      	lsls	r3, r2, #28
 80026b6:	d506      	bpl.n	80026c6 <HAL_RCC_ClockConfig+0x4e>
 80026b8:	686b      	ldr	r3, [r5, #4]
 80026ba:	6922      	ldr	r2, [r4, #16]
 80026bc:	f423 5360 	bic.w	r3, r3, #14336	; 0x3800
 80026c0:	ea43 03c2 	orr.w	r3, r3, r2, lsl #3
 80026c4:	606b      	str	r3, [r5, #4]
 80026c6:	f7ff ff97 	bl	80025f8 <HAL_RCC_GetSysClockFreq>
 80026ca:	686b      	ldr	r3, [r5, #4]
 80026cc:	4a35      	ldr	r2, [pc, #212]	; (80027a4 <HAL_RCC_ClockConfig+0x12c>)
 80026ce:	f3c3 1303 	ubfx	r3, r3, #4, #4
 80026d2:	5cd3      	ldrb	r3, [r2, r3]
 80026d4:	40d8      	lsrs	r0, r3
 80026d6:	4b34      	ldr	r3, [pc, #208]	; (80027a8 <HAL_RCC_ClockConfig+0x130>)
 80026d8:	6018      	str	r0, [r3, #0]
 80026da:	4b34      	ldr	r3, [pc, #208]	; (80027ac <HAL_RCC_ClockConfig+0x134>)
 80026dc:	6818      	ldr	r0, [r3, #0]
 80026de:	f7ff fd59 	bl	8002194 <HAL_InitTick>
 80026e2:	2000      	movs	r0, #0
 80026e4:	e7ce      	b.n	8002684 <HAL_RCC_ClockConfig+0xc>
 80026e6:	6813      	ldr	r3, [r2, #0]
 80026e8:	f023 0307 	bic.w	r3, r3, #7
 80026ec:	430b      	orrs	r3, r1
 80026ee:	6013      	str	r3, [r2, #0]
 80026f0:	6813      	ldr	r3, [r2, #0]
 80026f2:	f003 0307 	and.w	r3, r3, #7
 80026f6:	428b      	cmp	r3, r1
 80026f8:	d1c3      	bne.n	8002682 <HAL_RCC_ClockConfig+0xa>
 80026fa:	e7cb      	b.n	8002694 <HAL_RCC_ClockConfig+0x1c>
 80026fc:	4b28      	ldr	r3, [pc, #160]	; (80027a0 <HAL_RCC_ClockConfig+0x128>)
 80026fe:	f011 0f04 	tst.w	r1, #4
 8002702:	bf1e      	ittt	ne
 8002704:	685a      	ldrne	r2, [r3, #4]
 8002706:	f442 62e0 	orrne.w	r2, r2, #1792	; 0x700
 800270a:	605a      	strne	r2, [r3, #4]
 800270c:	0708      	lsls	r0, r1, #28
 800270e:	bf42      	ittt	mi
 8002710:	685a      	ldrmi	r2, [r3, #4]
 8002712:	f442 5260 	orrmi.w	r2, r2, #14336	; 0x3800
 8002716:	605a      	strmi	r2, [r3, #4]
 8002718:	685a      	ldr	r2, [r3, #4]
 800271a:	68a0      	ldr	r0, [r4, #8]
 800271c:	f022 02f0 	bic.w	r2, r2, #240	; 0xf0
 8002720:	4302      	orrs	r2, r0
 8002722:	605a      	str	r2, [r3, #4]
 8002724:	e7b9      	b.n	800269a <HAL_RCC_ClockConfig+0x22>
 8002726:	6862      	ldr	r2, [r4, #4]
 8002728:	4e1d      	ldr	r6, [pc, #116]	; (80027a0 <HAL_RCC_ClockConfig+0x128>)
 800272a:	2a01      	cmp	r2, #1
 800272c:	6833      	ldr	r3, [r6, #0]
 800272e:	d11a      	bne.n	8002766 <HAL_RCC_ClockConfig+0xee>
 8002730:	f413 3f00 	tst.w	r3, #131072	; 0x20000
 8002734:	d0a5      	beq.n	8002682 <HAL_RCC_ClockConfig+0xa>
 8002736:	6873      	ldr	r3, [r6, #4]
 8002738:	f241 3888 	movw	r8, #5000	; 0x1388
 800273c:	f023 0303 	bic.w	r3, r3, #3
 8002740:	4313      	orrs	r3, r2
 8002742:	6073      	str	r3, [r6, #4]
 8002744:	f7ff fd5c 	bl	8002200 <HAL_GetTick>
 8002748:	4607      	mov	r7, r0
 800274a:	6873      	ldr	r3, [r6, #4]
 800274c:	6862      	ldr	r2, [r4, #4]
 800274e:	f003 030c 	and.w	r3, r3, #12
 8002752:	ebb3 0f82 	cmp.w	r3, r2, lsl #2
 8002756:	d0a2      	beq.n	800269e <HAL_RCC_ClockConfig+0x26>
 8002758:	f7ff fd52 	bl	8002200 <HAL_GetTick>
 800275c:	1bc0      	subs	r0, r0, r7
 800275e:	4540      	cmp	r0, r8
 8002760:	d9f3      	bls.n	800274a <HAL_RCC_ClockConfig+0xd2>
 8002762:	2003      	movs	r0, #3
 8002764:	e78e      	b.n	8002684 <HAL_RCC_ClockConfig+0xc>
 8002766:	2a02      	cmp	r2, #2
 8002768:	d102      	bne.n	8002770 <HAL_RCC_ClockConfig+0xf8>
 800276a:	f013 7f00 	tst.w	r3, #33554432	; 0x2000000
 800276e:	e7e1      	b.n	8002734 <HAL_RCC_ClockConfig+0xbc>
 8002770:	f013 0f02 	tst.w	r3, #2
 8002774:	e7de      	b.n	8002734 <HAL_RCC_ClockConfig+0xbc>
 8002776:	6813      	ldr	r3, [r2, #0]
 8002778:	f023 0307 	bic.w	r3, r3, #7
 800277c:	432b      	orrs	r3, r5
 800277e:	6013      	str	r3, [r2, #0]
 8002780:	6813      	ldr	r3, [r2, #0]
 8002782:	f003 0307 	and.w	r3, r3, #7
 8002786:	42ab      	cmp	r3, r5
 8002788:	f47f af7b 	bne.w	8002682 <HAL_RCC_ClockConfig+0xa>
 800278c:	e78d      	b.n	80026aa <HAL_RCC_ClockConfig+0x32>
 800278e:	686b      	ldr	r3, [r5, #4]
 8002790:	68e1      	ldr	r1, [r4, #12]
 8002792:	f423 63e0 	bic.w	r3, r3, #1792	; 0x700
 8002796:	430b      	orrs	r3, r1
 8002798:	606b      	str	r3, [r5, #4]
 800279a:	e78b      	b.n	80026b4 <HAL_RCC_ClockConfig+0x3c>
 800279c:	40022000 	.word	0x40022000
 80027a0:	40021000 	.word	0x40021000
 80027a4:	0800332c 	.word	0x0800332c
 80027a8:	20000000 	.word	0x20000000
 80027ac:	20000008 	.word	0x20000008

080027b0 <LL_GPIO_Init>:
 80027b0:	e92d 4ff0 	stmdb	sp!, {r4, r5, r6, r7, r8, r9, sl, fp, lr}
 80027b4:	680d      	ldr	r5, [r1, #0]
 80027b6:	4604      	mov	r4, r0
 80027b8:	f3c5 250f 	ubfx	r5, r5, #8, #16
 80027bc:	fa95 f2a5 	rbit	r2, r5
 80027c0:	2703      	movs	r7, #3
 80027c2:	fab2 f282 	clz	r2, r2
 80027c6:	f04f 0c04 	mov.w	ip, #4
 80027ca:	f04f 1e01 	mov.w	lr, #65537	; 0x10001
 80027ce:	f240 1801 	movw	r8, #257	; 0x101
 80027d2:	fa35 f002 	lsrs.w	r0, r5, r2
 80027d6:	d101      	bne.n	80027dc <LL_GPIO_Init+0x2c>
 80027d8:	e8bd 8ff0 	ldmia.w	sp!, {r4, r5, r6, r7, r8, r9, sl, fp, pc}
 80027dc:	2301      	movs	r3, #1
 80027de:	4093      	lsls	r3, r2
 80027e0:	422b      	tst	r3, r5
 80027e2:	d067      	beq.n	80028b4 <LL_GPIO_Init+0x104>
 80027e4:	2a07      	cmp	r2, #7
 80027e6:	bf88      	it	hi
 80027e8:	f1a2 0308 	subhi.w	r3, r2, #8
 80027ec:	f8d1 a004 	ldr.w	sl, [r1, #4]
 80027f0:	bf8a      	itet	hi
 80027f2:	fa0e f303 	lslhi.w	r3, lr, r3
 80027f6:	fa08 f302 	lslls.w	r3, r8, r2
 80027fa:	f043 6380 	orrhi.w	r3, r3, #67108864	; 0x4000000
 80027fe:	f1ba 0f08 	cmp.w	sl, #8
 8002802:	d10d      	bne.n	8002820 <LL_GPIO_Init+0x70>
 8002804:	68e6      	ldr	r6, [r4, #12]
 8002806:	ea4f 2b13 	mov.w	fp, r3, lsr #8
 800280a:	fa9b f9ab 	rbit	r9, fp
 800280e:	fab9 f989 	clz	r9, r9
 8002812:	6908      	ldr	r0, [r1, #16]
 8002814:	ea26 060b 	bic.w	r6, r6, fp
 8002818:	fa00 f009 	lsl.w	r0, r0, r9
 800281c:	4306      	orrs	r6, r0
 800281e:	60e6      	str	r6, [r4, #12]
 8002820:	ea4f 6913 	mov.w	r9, r3, lsr #24
 8002824:	fa93 f6a3 	rbit	r6, r3
 8002828:	fab6 f686 	clz	r6, r6
 800282c:	fa93 fba3 	rbit	fp, r3
 8002830:	200f      	movs	r0, #15
 8002832:	fabb fb8b 	clz	fp, fp
 8002836:	00b6      	lsls	r6, r6, #2
 8002838:	fa00 f606 	lsl.w	r6, r0, r6
 800283c:	f854 0009 	ldr.w	r0, [r4, r9]
 8002840:	ea4f 0b8b 	mov.w	fp, fp, lsl #2
 8002844:	ea20 0606 	bic.w	r6, r0, r6
 8002848:	fa0a fb0b 	lsl.w	fp, sl, fp
 800284c:	ea46 060b 	orr.w	r6, r6, fp
 8002850:	f844 6009 	str.w	r6, [r4, r9]
 8002854:	6848      	ldr	r0, [r1, #4]
 8002856:	f020 0008 	bic.w	r0, r0, #8
 800285a:	2801      	cmp	r0, #1
 800285c:	d12a      	bne.n	80028b4 <LL_GPIO_Init+0x104>
 800285e:	fa93 f0a3 	rbit	r0, r3
 8002862:	fab0 f080 	clz	r0, r0
 8002866:	fa93 fba3 	rbit	fp, r3
 800286a:	fabb fb8b 	clz	fp, fp
 800286e:	0080      	lsls	r0, r0, #2
 8002870:	fa07 f000 	lsl.w	r0, r7, r0
 8002874:	ea26 0600 	bic.w	r6, r6, r0
 8002878:	6888      	ldr	r0, [r1, #8]
 800287a:	ea4f 0b8b 	mov.w	fp, fp, lsl #2
 800287e:	fa00 fb0b 	lsl.w	fp, r0, fp
 8002882:	ea46 060b 	orr.w	r6, r6, fp
 8002886:	f844 6009 	str.w	r6, [r4, r9]
 800288a:	fa93 faa3 	rbit	sl, r3
 800288e:	faba fa8a 	clz	sl, sl
 8002892:	fa93 f3a3 	rbit	r3, r3
 8002896:	fab3 f383 	clz	r3, r3
 800289a:	ea4f 0a8a 	mov.w	sl, sl, lsl #2
 800289e:	fa0c fa0a 	lsl.w	sl, ip, sl
 80028a2:	ea26 0a0a 	bic.w	sl, r6, sl
 80028a6:	68ce      	ldr	r6, [r1, #12]
 80028a8:	009b      	lsls	r3, r3, #2
 80028aa:	409e      	lsls	r6, r3
 80028ac:	ea4a 0606 	orr.w	r6, sl, r6
 80028b0:	f844 6009 	str.w	r6, [r4, r9]
 80028b4:	3201      	adds	r2, #1
 80028b6:	e78c      	b.n	80027d2 <LL_GPIO_Init+0x22>

080028b8 <RCC_GetHCLKClockFreq>:
 80028b8:	4b03      	ldr	r3, [pc, #12]	; (80028c8 <RCC_GetHCLKClockFreq+0x10>)
 80028ba:	4a04      	ldr	r2, [pc, #16]	; (80028cc <RCC_GetHCLKClockFreq+0x14>)
 80028bc:	685b      	ldr	r3, [r3, #4]
 80028be:	f3c3 1303 	ubfx	r3, r3, #4, #4
 80028c2:	5cd3      	ldrb	r3, [r2, r3]
 80028c4:	40d8      	lsrs	r0, r3
 80028c6:	4770      	bx	lr
 80028c8:	40021000 	.word	0x40021000
 80028cc:	0800332c 	.word	0x0800332c

080028d0 <RCC_GetPCLK1ClockFreq>:
 80028d0:	4b03      	ldr	r3, [pc, #12]	; (80028e0 <RCC_GetPCLK1ClockFreq+0x10>)
 80028d2:	4a04      	ldr	r2, [pc, #16]	; (80028e4 <RCC_GetPCLK1ClockFreq+0x14>)
 80028d4:	685b      	ldr	r3, [r3, #4]
 80028d6:	f3c3 2302 	ubfx	r3, r3, #8, #3
 80028da:	5cd3      	ldrb	r3, [r2, r3]
 80028dc:	40d8      	lsrs	r0, r3
 80028de:	4770      	bx	lr
 80028e0:	40021000 	.word	0x40021000
 80028e4:	0800333c 	.word	0x0800333c

080028e8 <RCC_GetPCLK2ClockFreq>:
 80028e8:	4b03      	ldr	r3, [pc, #12]	; (80028f8 <RCC_GetPCLK2ClockFreq+0x10>)
 80028ea:	4a04      	ldr	r2, [pc, #16]	; (80028fc <RCC_GetPCLK2ClockFreq+0x14>)
 80028ec:	685b      	ldr	r3, [r3, #4]
 80028ee:	f3c3 23c2 	ubfx	r3, r3, #11, #3
 80028f2:	5cd3      	ldrb	r3, [r2, r3]
 80028f4:	40d8      	lsrs	r0, r3
 80028f6:	4770      	bx	lr
 80028f8:	40021000 	.word	0x40021000
 80028fc:	0800333c 	.word	0x0800333c

08002900 <RCC_PLL_GetFreqDomain_SYS>:
 8002900:	4b09      	ldr	r3, [pc, #36]	; (8002928 <RCC_PLL_GetFreqDomain_SYS+0x28>)
 8002902:	685a      	ldr	r2, [r3, #4]
 8002904:	03d2      	lsls	r2, r2, #15
 8002906:	bf41      	itttt	mi
 8002908:	6858      	ldrmi	r0, [r3, #4]
 800290a:	4a08      	ldrmi	r2, [pc, #32]	; (800292c <RCC_PLL_GetFreqDomain_SYS+0x2c>)
 800290c:	f3c0 4040 	ubfxmi	r0, r0, #17, #1
 8002910:	3001      	addmi	r0, #1
 8002912:	bf48      	it	mi
 8002914:	fbb2 f0f0 	udivmi	r0, r2, r0
 8002918:	685b      	ldr	r3, [r3, #4]
 800291a:	bf58      	it	pl
 800291c:	4804      	ldrpl	r0, [pc, #16]	; (8002930 <RCC_PLL_GetFreqDomain_SYS+0x30>)
 800291e:	f3c3 4383 	ubfx	r3, r3, #18, #4
 8002922:	3302      	adds	r3, #2
 8002924:	4358      	muls	r0, r3
 8002926:	4770      	bx	lr
 8002928:	40021000 	.word	0x40021000
 800292c:	00f42400 	.word	0x00f42400
 8002930:	003d0900 	.word	0x003d0900

08002934 <RCC_GetSystemClockFreq>:
 8002934:	4b06      	ldr	r3, [pc, #24]	; (8002950 <RCC_GetSystemClockFreq+0x1c>)
 8002936:	685b      	ldr	r3, [r3, #4]
 8002938:	f003 030c 	and.w	r3, r3, #12
 800293c:	2b04      	cmp	r3, #4
 800293e:	d003      	beq.n	8002948 <RCC_GetSystemClockFreq+0x14>
 8002940:	2b08      	cmp	r3, #8
 8002942:	d103      	bne.n	800294c <RCC_GetSystemClockFreq+0x18>
 8002944:	f7ff bfdc 	b.w	8002900 <RCC_PLL_GetFreqDomain_SYS>
 8002948:	4802      	ldr	r0, [pc, #8]	; (8002954 <RCC_GetSystemClockFreq+0x20>)
 800294a:	4770      	bx	lr
 800294c:	4802      	ldr	r0, [pc, #8]	; (8002958 <RCC_GetSystemClockFreq+0x24>)
 800294e:	4770      	bx	lr
 8002950:	40021000 	.word	0x40021000
 8002954:	00f42400 	.word	0x00f42400
 8002958:	007a1200 	.word	0x007a1200

0800295c <LL_RCC_GetSystemClocksFreq>:
 800295c:	b508      	push	{r3, lr}
 800295e:	4601      	mov	r1, r0
 8002960:	f7ff ffe8 	bl	8002934 <RCC_GetSystemClockFreq>
 8002964:	6008      	str	r0, [r1, #0]
 8002966:	f7ff ffa7 	bl	80028b8 <RCC_GetHCLKClockFreq>
 800296a:	6048      	str	r0, [r1, #4]
 800296c:	f7ff ffb0 	bl	80028d0 <RCC_GetPCLK1ClockFreq>
 8002970:	6088      	str	r0, [r1, #8]
 8002972:	6848      	ldr	r0, [r1, #4]
 8002974:	f7ff ffb8 	bl	80028e8 <RCC_GetPCLK2ClockFreq>
 8002978:	60c8      	str	r0, [r1, #12]
 800297a:	bd08      	pop	{r3, pc}

0800297c <LL_SPI_Init>:
 800297c:	4602      	mov	r2, r0
 800297e:	6800      	ldr	r0, [r0, #0]
 8002980:	b5f0      	push	{r4, r5, r6, r7, lr}
 8002982:	f010 0040 	ands.w	r0, r0, #64	; 0x40
 8002986:	d123      	bne.n	80029d0 <LL_SPI_Init+0x54>
 8002988:	e9d1 3700 	ldrd	r3, r7, [r1]
 800298c:	433b      	orrs	r3, r7
 800298e:	688f      	ldr	r7, [r1, #8]
 8002990:	694d      	ldr	r5, [r1, #20]
 8002992:	433b      	orrs	r3, r7
 8002994:	68cf      	ldr	r7, [r1, #12]
 8002996:	6816      	ldr	r6, [r2, #0]
 8002998:	433b      	orrs	r3, r7
 800299a:	690f      	ldr	r7, [r1, #16]
 800299c:	6a0c      	ldr	r4, [r1, #32]
 800299e:	433b      	orrs	r3, r7
 80029a0:	698f      	ldr	r7, [r1, #24]
 80029a2:	432b      	orrs	r3, r5
 80029a4:	433b      	orrs	r3, r7
 80029a6:	69cf      	ldr	r7, [r1, #28]
 80029a8:	f426 467f 	bic.w	r6, r6, #65280	; 0xff00
 80029ac:	433b      	orrs	r3, r7
 80029ae:	4323      	orrs	r3, r4
 80029b0:	f026 06bf 	bic.w	r6, r6, #191	; 0xbf
 80029b4:	4333      	orrs	r3, r6
 80029b6:	6013      	str	r3, [r2, #0]
 80029b8:	6853      	ldr	r3, [r2, #4]
 80029ba:	f5b4 5f00 	cmp.w	r4, #8192	; 0x2000
 80029be:	f023 0304 	bic.w	r3, r3, #4
 80029c2:	ea43 4515 	orr.w	r5, r3, r5, lsr #16
 80029c6:	6055      	str	r5, [r2, #4]
 80029c8:	d101      	bne.n	80029ce <LL_SPI_Init+0x52>
 80029ca:	8c8b      	ldrh	r3, [r1, #36]	; 0x24
 80029cc:	6113      	str	r3, [r2, #16]
 80029ce:	bdf0      	pop	{r4, r5, r6, r7, pc}
 80029d0:	2001      	movs	r0, #1
 80029d2:	e7fc      	b.n	80029ce <LL_SPI_Init+0x52>

080029d4 <LL_TIM_Init>:
 80029d4:	4a1a      	ldr	r2, [pc, #104]	; (8002a40 <LL_TIM_Init+0x6c>)
 80029d6:	6803      	ldr	r3, [r0, #0]
 80029d8:	4290      	cmp	r0, r2
 80029da:	d00a      	beq.n	80029f2 <LL_TIM_Init+0x1e>
 80029dc:	f1b0 4f80 	cmp.w	r0, #1073741824	; 0x40000000
 80029e0:	d007      	beq.n	80029f2 <LL_TIM_Init+0x1e>
 80029e2:	f5a2 3294 	sub.w	r2, r2, #75776	; 0x12800
 80029e6:	4290      	cmp	r0, r2
 80029e8:	d003      	beq.n	80029f2 <LL_TIM_Init+0x1e>
 80029ea:	f502 6280 	add.w	r2, r2, #1024	; 0x400
 80029ee:	4290      	cmp	r0, r2
 80029f0:	d115      	bne.n	8002a1e <LL_TIM_Init+0x4a>
 80029f2:	684a      	ldr	r2, [r1, #4]
 80029f4:	f023 0370 	bic.w	r3, r3, #112	; 0x70
 80029f8:	4313      	orrs	r3, r2
 80029fa:	4a11      	ldr	r2, [pc, #68]	; (8002a40 <LL_TIM_Init+0x6c>)
 80029fc:	4290      	cmp	r0, r2
 80029fe:	d00a      	beq.n	8002a16 <LL_TIM_Init+0x42>
 8002a00:	f1b0 4f80 	cmp.w	r0, #1073741824	; 0x40000000
 8002a04:	d007      	beq.n	8002a16 <LL_TIM_Init+0x42>
 8002a06:	f5a2 3294 	sub.w	r2, r2, #75776	; 0x12800
 8002a0a:	4290      	cmp	r0, r2
 8002a0c:	d003      	beq.n	8002a16 <LL_TIM_Init+0x42>
 8002a0e:	f502 6280 	add.w	r2, r2, #1024	; 0x400
 8002a12:	4290      	cmp	r0, r2
 8002a14:	d103      	bne.n	8002a1e <LL_TIM_Init+0x4a>
 8002a16:	68ca      	ldr	r2, [r1, #12]
 8002a18:	f423 7340 	bic.w	r3, r3, #768	; 0x300
 8002a1c:	4313      	orrs	r3, r2
 8002a1e:	6003      	str	r3, [r0, #0]
 8002a20:	688b      	ldr	r3, [r1, #8]
 8002a22:	62c3      	str	r3, [r0, #44]	; 0x2c
 8002a24:	880b      	ldrh	r3, [r1, #0]
 8002a26:	6283      	str	r3, [r0, #40]	; 0x28
 8002a28:	4b05      	ldr	r3, [pc, #20]	; (8002a40 <LL_TIM_Init+0x6c>)
 8002a2a:	4298      	cmp	r0, r3
 8002a2c:	bf04      	itt	eq
 8002a2e:	690b      	ldreq	r3, [r1, #16]
 8002a30:	6303      	streq	r3, [r0, #48]	; 0x30
 8002a32:	6943      	ldr	r3, [r0, #20]
 8002a34:	f043 0301 	orr.w	r3, r3, #1
 8002a38:	6143      	str	r3, [r0, #20]
 8002a3a:	2000      	movs	r0, #0
 8002a3c:	4770      	bx	lr
 8002a3e:	bf00      	nop
 8002a40:	40012c00 	.word	0x40012c00

08002a44 <LL_USART_Init>:
 8002a44:	b530      	push	{r4, r5, lr}
 8002a46:	68c3      	ldr	r3, [r0, #12]
 8002a48:	4604      	mov	r4, r0
 8002a4a:	049b      	lsls	r3, r3, #18
 8002a4c:	460d      	mov	r5, r1
 8002a4e:	b085      	sub	sp, #20
 8002a50:	d502      	bpl.n	8002a58 <LL_USART_Init+0x14>
 8002a52:	2001      	movs	r0, #1
 8002a54:	b005      	add	sp, #20
 8002a56:	bd30      	pop	{r4, r5, pc}
 8002a58:	684b      	ldr	r3, [r1, #4]
 8002a5a:	68c9      	ldr	r1, [r1, #12]
 8002a5c:	68c2      	ldr	r2, [r0, #12]
 8002a5e:	430b      	orrs	r3, r1
 8002a60:	6929      	ldr	r1, [r5, #16]
 8002a62:	f422 52b0 	bic.w	r2, r2, #5632	; 0x1600
 8002a66:	430b      	orrs	r3, r1
 8002a68:	f022 020c 	bic.w	r2, r2, #12
 8002a6c:	4313      	orrs	r3, r2
 8002a6e:	60c3      	str	r3, [r0, #12]
 8002a70:	6903      	ldr	r3, [r0, #16]
 8002a72:	68aa      	ldr	r2, [r5, #8]
 8002a74:	f423 5340 	bic.w	r3, r3, #12288	; 0x3000
 8002a78:	4313      	orrs	r3, r2
 8002a7a:	6103      	str	r3, [r0, #16]
 8002a7c:	6943      	ldr	r3, [r0, #20]
 8002a7e:	696a      	ldr	r2, [r5, #20]
 8002a80:	f423 7340 	bic.w	r3, r3, #768	; 0x300
 8002a84:	4313      	orrs	r3, r2
 8002a86:	6143      	str	r3, [r0, #20]
 8002a88:	4668      	mov	r0, sp
 8002a8a:	f7ff ff67 	bl	800295c <LL_RCC_GetSystemClocksFreq>
 8002a8e:	4b13      	ldr	r3, [pc, #76]	; (8002adc <LL_USART_Init+0x98>)
 8002a90:	429c      	cmp	r4, r3
 8002a92:	d119      	bne.n	8002ac8 <LL_USART_Init+0x84>
 8002a94:	9903      	ldr	r1, [sp, #12]
 8002a96:	2900      	cmp	r1, #0
 8002a98:	d0db      	beq.n	8002a52 <LL_USART_Init+0xe>
 8002a9a:	682a      	ldr	r2, [r5, #0]
 8002a9c:	2a00      	cmp	r2, #0
 8002a9e:	d0d8      	beq.n	8002a52 <LL_USART_Init+0xe>
 8002aa0:	2319      	movs	r3, #25
 8002aa2:	434b      	muls	r3, r1
 8002aa4:	0092      	lsls	r2, r2, #2
 8002aa6:	fbb3 f3f2 	udiv	r3, r3, r2
 8002aaa:	2264      	movs	r2, #100	; 0x64
 8002aac:	fbb3 f1f2 	udiv	r1, r3, r2
 8002ab0:	fb02 3311 	mls	r3, r2, r1, r3
 8002ab4:	011b      	lsls	r3, r3, #4
 8002ab6:	3332      	adds	r3, #50	; 0x32
 8002ab8:	fbb3 f3f2 	udiv	r3, r3, r2
 8002abc:	eb03 1301 	add.w	r3, r3, r1, lsl #4
 8002ac0:	b29b      	uxth	r3, r3
 8002ac2:	2000      	movs	r0, #0
 8002ac4:	60a3      	str	r3, [r4, #8]
 8002ac6:	e7c5      	b.n	8002a54 <LL_USART_Init+0x10>
 8002ac8:	4b05      	ldr	r3, [pc, #20]	; (8002ae0 <LL_USART_Init+0x9c>)
 8002aca:	429c      	cmp	r4, r3
 8002acc:	d101      	bne.n	8002ad2 <LL_USART_Init+0x8e>
 8002ace:	9902      	ldr	r1, [sp, #8]
 8002ad0:	e7e1      	b.n	8002a96 <LL_USART_Init+0x52>
 8002ad2:	4b04      	ldr	r3, [pc, #16]	; (8002ae4 <LL_USART_Init+0xa0>)
 8002ad4:	429c      	cmp	r4, r3
 8002ad6:	d1bc      	bne.n	8002a52 <LL_USART_Init+0xe>
 8002ad8:	e7f9      	b.n	8002ace <LL_USART_Init+0x8a>
 8002ada:	bf00      	nop
 8002adc:	40013800 	.word	0x40013800
 8002ae0:	40004400 	.word	0x40004400
 8002ae4:	40004800 	.word	0x40004800

08002ae8 <u8toBCD>:
 8002ae8:	b510      	push	{r4, lr}
 8002aea:	2430      	movs	r4, #48	; 0x30
 8002aec:	700c      	strb	r4, [r1, #0]
 8002aee:	2863      	cmp	r0, #99	; 0x63
 8002af0:	d806      	bhi.n	8002b00 <u8toBCD+0x18>
 8002af2:	2130      	movs	r1, #48	; 0x30
 8002af4:	7011      	strb	r1, [r2, #0]
 8002af6:	2809      	cmp	r0, #9
 8002af8:	d808      	bhi.n	8002b0c <u8toBCD+0x24>
 8002afa:	3030      	adds	r0, #48	; 0x30
 8002afc:	7018      	strb	r0, [r3, #0]
 8002afe:	bd10      	pop	{r4, pc}
 8002b00:	780c      	ldrb	r4, [r1, #0]
 8002b02:	3864      	subs	r0, #100	; 0x64
 8002b04:	3401      	adds	r4, #1
 8002b06:	700c      	strb	r4, [r1, #0]
 8002b08:	b2c0      	uxtb	r0, r0
 8002b0a:	e7f0      	b.n	8002aee <u8toBCD+0x6>
 8002b0c:	7811      	ldrb	r1, [r2, #0]
 8002b0e:	380a      	subs	r0, #10
 8002b10:	3101      	adds	r1, #1
 8002b12:	7011      	strb	r1, [r2, #0]
 8002b14:	b2c0      	uxtb	r0, r0
 8002b16:	e7ee      	b.n	8002af6 <u8toBCD+0xe>

08002b18 <u8toBCDstr>:
 8002b18:	b510      	push	{r4, lr}
 8002b1a:	1c8b      	adds	r3, r1, #2
 8002b1c:	1c4a      	adds	r2, r1, #1
 8002b1e:	460c      	mov	r4, r1
 8002b20:	f7ff ffe2 	bl	8002ae8 <u8toBCD>
 8002b24:	2300      	movs	r3, #0
 8002b26:	70e3      	strb	r3, [r4, #3]
 8002b28:	bd10      	pop	{r4, pc}

08002b2a <s8toBCDstr>:
 8002b2a:	2800      	cmp	r0, #0
 8002b2c:	460b      	mov	r3, r1
 8002b2e:	bfb7      	itett	lt
 8002b30:	222d      	movlt	r2, #45	; 0x2d
 8002b32:	2220      	movge	r2, #32
 8002b34:	4240      	neglt	r0, r0
 8002b36:	b240      	sxtblt	r0, r0
 8002b38:	b510      	push	{r4, lr}
 8002b3a:	b2c0      	uxtb	r0, r0
 8002b3c:	f803 2b03 	strb.w	r2, [r3], #3
 8002b40:	460c      	mov	r4, r1
 8002b42:	1c8a      	adds	r2, r1, #2
 8002b44:	3101      	adds	r1, #1
 8002b46:	f7ff ffcf 	bl	8002ae8 <u8toBCD>
 8002b4a:	2300      	movs	r3, #0
 8002b4c:	7123      	strb	r3, [r4, #4]
 8002b4e:	bd10      	pop	{r4, pc}

08002b50 <u8toHEXstr>:
 8002b50:	0903      	lsrs	r3, r0, #4
 8002b52:	289f      	cmp	r0, #159	; 0x9f
 8002b54:	bf94      	ite	ls
 8002b56:	3330      	addls	r3, #48	; 0x30
 8002b58:	3337      	addhi	r3, #55	; 0x37
 8002b5a:	700b      	strb	r3, [r1, #0]
 8002b5c:	2300      	movs	r3, #0
 8002b5e:	f000 000f 	and.w	r0, r0, #15
 8002b62:	2809      	cmp	r0, #9
 8002b64:	bf94      	ite	ls
 8002b66:	3030      	addls	r0, #48	; 0x30
 8002b68:	3037      	addhi	r0, #55	; 0x37
 8002b6a:	7048      	strb	r0, [r1, #1]
 8002b6c:	708b      	strb	r3, [r1, #2]
 8002b6e:	4770      	bx	lr

08002b70 <u16toHEXstr>:
 8002b70:	b513      	push	{r0, r1, r4, lr}
 8002b72:	460a      	mov	r2, r1
 8002b74:	4604      	mov	r4, r0
 8002b76:	a901      	add	r1, sp, #4
 8002b78:	b2c0      	uxtb	r0, r0
 8002b7a:	f7ff ffe9 	bl	8002b50 <u8toHEXstr>
 8002b7e:	0a20      	lsrs	r0, r4, #8
 8002b80:	4611      	mov	r1, r2
 8002b82:	f7ff ffe5 	bl	8002b50 <u8toHEXstr>
 8002b86:	f89d 3004 	ldrb.w	r3, [sp, #4]
 8002b8a:	7093      	strb	r3, [r2, #2]
 8002b8c:	f89d 3005 	ldrb.w	r3, [sp, #5]
 8002b90:	70d3      	strb	r3, [r2, #3]
 8002b92:	f89d 3006 	ldrb.w	r3, [sp, #6]
 8002b96:	7113      	strb	r3, [r2, #4]
 8002b98:	b002      	add	sp, #8
 8002b9a:	bd10      	pop	{r4, pc}

08002b9c <u8toBCD_s>:
 8002b9c:	b510      	push	{r4, lr}
 8002b9e:	4c03      	ldr	r4, [pc, #12]	; (8002bac <u8toBCD_s+0x10>)
 8002ba0:	4621      	mov	r1, r4
 8002ba2:	f7ff ffb9 	bl	8002b18 <u8toBCDstr>
 8002ba6:	4620      	mov	r0, r4
 8002ba8:	bd10      	pop	{r4, pc}
 8002baa:	bf00      	nop
 8002bac:	200012a0 	.word	0x200012a0

08002bb0 <s8toBCD_s>:
 8002bb0:	b510      	push	{r4, lr}
 8002bb2:	4c03      	ldr	r4, [pc, #12]	; (8002bc0 <s8toBCD_s+0x10>)
 8002bb4:	4621      	mov	r1, r4
 8002bb6:	f7ff ffb8 	bl	8002b2a <s8toBCDstr>
 8002bba:	4620      	mov	r0, r4
 8002bbc:	bd10      	pop	{r4, pc}
 8002bbe:	bf00      	nop
 8002bc0:	200012a0 	.word	0x200012a0

08002bc4 <u16toHEX_s>:
 8002bc4:	b510      	push	{r4, lr}
 8002bc6:	4c03      	ldr	r4, [pc, #12]	; (8002bd4 <u16toHEX_s+0x10>)
 8002bc8:	4621      	mov	r1, r4
 8002bca:	f7ff ffd1 	bl	8002b70 <u16toHEXstr>
 8002bce:	4620      	mov	r0, r4
 8002bd0:	bd10      	pop	{r4, pc}
 8002bd2:	bf00      	nop
 8002bd4:	200012a0 	.word	0x200012a0

08002bd8 <_ZN12SxDriverBase11SpiTransferEhPh>:
 8002bd8:	b513      	push	{r0, r1, r4, lr}
 8002bda:	6803      	ldr	r3, [r0, #0]
 8002bdc:	f88d 1007 	strb.w	r1, [sp, #7]
 8002be0:	689c      	ldr	r4, [r3, #8]
 8002be2:	f10d 0107 	add.w	r1, sp, #7
 8002be6:	2301      	movs	r3, #1
 8002be8:	47a0      	blx	r4
 8002bea:	b002      	add	sp, #8
 8002bec:	bd10      	pop	{r4, pc}

08002bee <_ZN12SxDriverBase11SpiTransferEh>:
 8002bee:	b51f      	push	{r0, r1, r2, r3, r4, lr}
 8002bf0:	6803      	ldr	r3, [r0, #0]
 8002bf2:	f88d 1007 	strb.w	r1, [sp, #7]
 8002bf6:	689c      	ldr	r4, [r3, #8]
 8002bf8:	f10d 020f 	add.w	r2, sp, #15
 8002bfc:	2301      	movs	r3, #1
 8002bfe:	f10d 0107 	add.w	r1, sp, #7
 8002c02:	47a0      	blx	r4
 8002c04:	b004      	add	sp, #16
 8002c06:	bd10      	pop	{r4, pc}

08002c08 <_ZN12SxDriverBase12WriteCommandEhPhh>:
 8002c08:	b5f0      	push	{r4, r5, r6, r7, lr}
 8002c0a:	4604      	mov	r4, r0
 8002c0c:	460f      	mov	r7, r1
 8002c0e:	461d      	mov	r5, r3
 8002c10:	6803      	ldr	r3, [r0, #0]
 8002c12:	b0c1      	sub	sp, #260	; 0x104
 8002c14:	68db      	ldr	r3, [r3, #12]
 8002c16:	4616      	mov	r6, r2
 8002c18:	4798      	blx	r3
 8002c1a:	6823      	ldr	r3, [r4, #0]
 8002c1c:	4620      	mov	r0, r4
 8002c1e:	681b      	ldr	r3, [r3, #0]
 8002c20:	4798      	blx	r3
 8002c22:	4639      	mov	r1, r7
 8002c24:	4620      	mov	r0, r4
 8002c26:	1d22      	adds	r2, r4, #4
 8002c28:	f7ff ffd6 	bl	8002bd8 <_ZN12SxDriverBase11SpiTransferEhPh>
 8002c2c:	b135      	cbz	r5, 8002c3c <_ZN12SxDriverBase12WriteCommandEhPhh+0x34>
 8002c2e:	6823      	ldr	r3, [r4, #0]
 8002c30:	466a      	mov	r2, sp
 8002c32:	689f      	ldr	r7, [r3, #8]
 8002c34:	4631      	mov	r1, r6
 8002c36:	462b      	mov	r3, r5
 8002c38:	4620      	mov	r0, r4
 8002c3a:	47b8      	blx	r7
 8002c3c:	6823      	ldr	r3, [r4, #0]
 8002c3e:	4620      	mov	r0, r4
 8002c40:	685b      	ldr	r3, [r3, #4]
 8002c42:	4798      	blx	r3
 8002c44:	6823      	ldr	r3, [r4, #0]
 8002c46:	210c      	movs	r1, #12
 8002c48:	4620      	mov	r0, r4
 8002c4a:	691b      	ldr	r3, [r3, #16]
 8002c4c:	4798      	blx	r3
 8002c4e:	b041      	add	sp, #260	; 0x104
 8002c50:	bdf0      	pop	{r4, r5, r6, r7, pc}

08002c52 <_ZN12SxDriverBase11ReadCommandEhPhh>:
 8002c52:	b5f0      	push	{r4, r5, r6, r7, lr}
 8002c54:	4604      	mov	r4, r0
 8002c56:	2000      	movs	r0, #0
 8002c58:	461d      	mov	r5, r3
 8002c5a:	460f      	mov	r7, r1
 8002c5c:	4616      	mov	r6, r2
 8002c5e:	4603      	mov	r3, r0
 8002c60:	b0c1      	sub	sp, #260	; 0x104
 8002c62:	b2c2      	uxtb	r2, r0
 8002c64:	4295      	cmp	r5, r2
 8002c66:	d903      	bls.n	8002c70 <_ZN12SxDriverBase11ReadCommandEhPhh+0x1e>
 8002c68:	f80d 3000 	strb.w	r3, [sp, r0]
 8002c6c:	3001      	adds	r0, #1
 8002c6e:	e7f8      	b.n	8002c62 <_ZN12SxDriverBase11ReadCommandEhPhh+0x10>
 8002c70:	6823      	ldr	r3, [r4, #0]
 8002c72:	4620      	mov	r0, r4
 8002c74:	68db      	ldr	r3, [r3, #12]
 8002c76:	4798      	blx	r3
 8002c78:	6823      	ldr	r3, [r4, #0]
 8002c7a:	4620      	mov	r0, r4
 8002c7c:	681b      	ldr	r3, [r3, #0]
 8002c7e:	4798      	blx	r3
 8002c80:	1d22      	adds	r2, r4, #4
 8002c82:	4639      	mov	r1, r7
 8002c84:	4620      	mov	r0, r4
 8002c86:	f7ff ffa7 	bl	8002bd8 <_ZN12SxDriverBase11SpiTransferEhPh>
 8002c8a:	4620      	mov	r0, r4
 8002c8c:	2100      	movs	r1, #0
 8002c8e:	f7ff ffae 	bl	8002bee <_ZN12SxDriverBase11SpiTransferEh>
 8002c92:	6823      	ldr	r3, [r4, #0]
 8002c94:	4632      	mov	r2, r6
 8002c96:	4669      	mov	r1, sp
 8002c98:	4620      	mov	r0, r4
 8002c9a:	689f      	ldr	r7, [r3, #8]
 8002c9c:	462b      	mov	r3, r5
 8002c9e:	47b8      	blx	r7
 8002ca0:	6823      	ldr	r3, [r4, #0]
 8002ca2:	4620      	mov	r0, r4
 8002ca4:	685b      	ldr	r3, [r3, #4]
 8002ca6:	4798      	blx	r3
 8002ca8:	b041      	add	sp, #260	; 0x104
 8002caa:	bdf0      	pop	{r4, r5, r6, r7, pc}

08002cac <_ZN12SxDriverBase13WriteRegisterEtPhh>:
 8002cac:	b5f0      	push	{r4, r5, r6, r7, lr}
 8002cae:	4604      	mov	r4, r0
 8002cb0:	460d      	mov	r5, r1
 8002cb2:	4616      	mov	r6, r2
 8002cb4:	461f      	mov	r7, r3
 8002cb6:	6803      	ldr	r3, [r0, #0]
 8002cb8:	b0c1      	sub	sp, #260	; 0x104
 8002cba:	68db      	ldr	r3, [r3, #12]
 8002cbc:	4798      	blx	r3
 8002cbe:	6823      	ldr	r3, [r4, #0]
 8002cc0:	4620      	mov	r0, r4
 8002cc2:	681b      	ldr	r3, [r3, #0]
 8002cc4:	4798      	blx	r3
 8002cc6:	1d22      	adds	r2, r4, #4
 8002cc8:	4620      	mov	r0, r4
 8002cca:	2118      	movs	r1, #24
 8002ccc:	f7ff ff84 	bl	8002bd8 <_ZN12SxDriverBase11SpiTransferEhPh>
 8002cd0:	4620      	mov	r0, r4
 8002cd2:	0a29      	lsrs	r1, r5, #8
 8002cd4:	f7ff ff8b 	bl	8002bee <_ZN12SxDriverBase11SpiTransferEh>
 8002cd8:	4620      	mov	r0, r4
 8002cda:	b2e9      	uxtb	r1, r5
 8002cdc:	f7ff ff87 	bl	8002bee <_ZN12SxDriverBase11SpiTransferEh>
 8002ce0:	6823      	ldr	r3, [r4, #0]
 8002ce2:	466a      	mov	r2, sp
 8002ce4:	4631      	mov	r1, r6
 8002ce6:	4620      	mov	r0, r4
 8002ce8:	689d      	ldr	r5, [r3, #8]
 8002cea:	463b      	mov	r3, r7
 8002cec:	47a8      	blx	r5
 8002cee:	6823      	ldr	r3, [r4, #0]
 8002cf0:	4620      	mov	r0, r4
 8002cf2:	685b      	ldr	r3, [r3, #4]
 8002cf4:	4798      	blx	r3
 8002cf6:	6823      	ldr	r3, [r4, #0]
 8002cf8:	210c      	movs	r1, #12
 8002cfa:	4620      	mov	r0, r4
 8002cfc:	691b      	ldr	r3, [r3, #16]
 8002cfe:	4798      	blx	r3
 8002d00:	b041      	add	sp, #260	; 0x104
 8002d02:	bdf0      	pop	{r4, r5, r6, r7, pc}

08002d04 <_ZN12SxDriverBase12ReadRegisterEtPhh>:
 8002d04:	b5f0      	push	{r4, r5, r6, r7, lr}
 8002d06:	4604      	mov	r4, r0
 8002d08:	2000      	movs	r0, #0
 8002d0a:	461d      	mov	r5, r3
 8002d0c:	460e      	mov	r6, r1
 8002d0e:	4617      	mov	r7, r2
 8002d10:	4603      	mov	r3, r0
 8002d12:	b0c1      	sub	sp, #260	; 0x104
 8002d14:	b2c2      	uxtb	r2, r0
 8002d16:	4295      	cmp	r5, r2
 8002d18:	d903      	bls.n	8002d22 <_ZN12SxDriverBase12ReadRegisterEtPhh+0x1e>
 8002d1a:	f80d 3000 	strb.w	r3, [sp, r0]
 8002d1e:	3001      	adds	r0, #1
 8002d20:	e7f8      	b.n	8002d14 <_ZN12SxDriverBase12ReadRegisterEtPhh+0x10>
 8002d22:	6823      	ldr	r3, [r4, #0]
 8002d24:	4620      	mov	r0, r4
 8002d26:	68db      	ldr	r3, [r3, #12]
 8002d28:	4798      	blx	r3
 8002d2a:	6823      	ldr	r3, [r4, #0]
 8002d2c:	4620      	mov	r0, r4
 8002d2e:	681b      	ldr	r3, [r3, #0]
 8002d30:	4798      	blx	r3
 8002d32:	1d22      	adds	r2, r4, #4
 8002d34:	4620      	mov	r0, r4
 8002d36:	2119      	movs	r1, #25
 8002d38:	f7ff ff4e 	bl	8002bd8 <_ZN12SxDriverBase11SpiTransferEhPh>
 8002d3c:	4620      	mov	r0, r4
 8002d3e:	0a31      	lsrs	r1, r6, #8
 8002d40:	f7ff ff55 	bl	8002bee <_ZN12SxDriverBase11SpiTransferEh>
 8002d44:	4620      	mov	r0, r4
 8002d46:	b2f1      	uxtb	r1, r6
 8002d48:	f7ff ff51 	bl	8002bee <_ZN12SxDriverBase11SpiTransferEh>
 8002d4c:	4620      	mov	r0, r4
 8002d4e:	2100      	movs	r1, #0
 8002d50:	f7ff ff4d 	bl	8002bee <_ZN12SxDriverBase11SpiTransferEh>
 8002d54:	6823      	ldr	r3, [r4, #0]
 8002d56:	463a      	mov	r2, r7
 8002d58:	4669      	mov	r1, sp
 8002d5a:	4620      	mov	r0, r4
 8002d5c:	689e      	ldr	r6, [r3, #8]
 8002d5e:	462b      	mov	r3, r5
 8002d60:	47b0      	blx	r6
 8002d62:	6823      	ldr	r3, [r4, #0]
 8002d64:	4620      	mov	r0, r4
 8002d66:	685b      	ldr	r3, [r3, #4]
 8002d68:	4798      	blx	r3
 8002d6a:	b041      	add	sp, #260	; 0x104
 8002d6c:	bdf0      	pop	{r4, r5, r6, r7, pc}

08002d6e <_ZN12SxDriverBase12ReadRegisterEt>:
 8002d6e:	b507      	push	{r0, r1, r2, lr}
 8002d70:	2301      	movs	r3, #1
 8002d72:	f10d 0207 	add.w	r2, sp, #7
 8002d76:	f7ff ffc5 	bl	8002d04 <_ZN12SxDriverBase12ReadRegisterEtPhh>
 8002d7a:	f89d 0007 	ldrb.w	r0, [sp, #7]
 8002d7e:	b003      	add	sp, #12
 8002d80:	f85d fb04 	ldr.w	pc, [sp], #4

08002d84 <_ZN12SxDriverBase11WriteBufferEhPhh>:
 8002d84:	b5f0      	push	{r4, r5, r6, r7, lr}
 8002d86:	4604      	mov	r4, r0
 8002d88:	460f      	mov	r7, r1
 8002d8a:	4615      	mov	r5, r2
 8002d8c:	461e      	mov	r6, r3
 8002d8e:	6803      	ldr	r3, [r0, #0]
 8002d90:	b0c1      	sub	sp, #260	; 0x104
 8002d92:	68db      	ldr	r3, [r3, #12]
 8002d94:	4798      	blx	r3
 8002d96:	6823      	ldr	r3, [r4, #0]
 8002d98:	4620      	mov	r0, r4
 8002d9a:	681b      	ldr	r3, [r3, #0]
 8002d9c:	4798      	blx	r3
 8002d9e:	1d22      	adds	r2, r4, #4
 8002da0:	4620      	mov	r0, r4
 8002da2:	211a      	movs	r1, #26
 8002da4:	f7ff ff18 	bl	8002bd8 <_ZN12SxDriverBase11SpiTransferEhPh>
 8002da8:	4639      	mov	r1, r7
 8002daa:	4620      	mov	r0, r4
 8002dac:	f7ff ff1f 	bl	8002bee <_ZN12SxDriverBase11SpiTransferEh>
 8002db0:	6823      	ldr	r3, [r4, #0]
 8002db2:	466a      	mov	r2, sp
 8002db4:	4629      	mov	r1, r5
 8002db6:	4620      	mov	r0, r4
 8002db8:	689f      	ldr	r7, [r3, #8]
 8002dba:	4633      	mov	r3, r6
 8002dbc:	47b8      	blx	r7
 8002dbe:	6823      	ldr	r3, [r4, #0]
 8002dc0:	4620      	mov	r0, r4
 8002dc2:	685b      	ldr	r3, [r3, #4]
 8002dc4:	4798      	blx	r3
 8002dc6:	6823      	ldr	r3, [r4, #0]
 8002dc8:	210c      	movs	r1, #12
 8002dca:	4620      	mov	r0, r4
 8002dcc:	691b      	ldr	r3, [r3, #16]
 8002dce:	4798      	blx	r3
 8002dd0:	b041      	add	sp, #260	; 0x104
 8002dd2:	bdf0      	pop	{r4, r5, r6, r7, pc}

08002dd4 <_ZN12SxDriverBase10ReadBufferEhPhh>:
 8002dd4:	b5f0      	push	{r4, r5, r6, r7, lr}
 8002dd6:	4604      	mov	r4, r0
 8002dd8:	2000      	movs	r0, #0
 8002dda:	461d      	mov	r5, r3
 8002ddc:	460f      	mov	r7, r1
 8002dde:	4616      	mov	r6, r2
 8002de0:	4603      	mov	r3, r0
 8002de2:	b0c1      	sub	sp, #260	; 0x104
 8002de4:	b2c2      	uxtb	r2, r0
 8002de6:	4295      	cmp	r5, r2
 8002de8:	d903      	bls.n	8002df2 <_ZN12SxDriverBase10ReadBufferEhPhh+0x1e>
 8002dea:	f80d 3000 	strb.w	r3, [sp, r0]
 8002dee:	3001      	adds	r0, #1
 8002df0:	e7f8      	b.n	8002de4 <_ZN12SxDriverBase10ReadBufferEhPhh+0x10>
 8002df2:	6823      	ldr	r3, [r4, #0]
 8002df4:	4620      	mov	r0, r4
 8002df6:	68db      	ldr	r3, [r3, #12]
 8002df8:	4798      	blx	r3
 8002dfa:	6823      	ldr	r3, [r4, #0]
 8002dfc:	4620      	mov	r0, r4
 8002dfe:	681b      	ldr	r3, [r3, #0]
 8002e00:	4798      	blx	r3
 8002e02:	1d22      	adds	r2, r4, #4
 8002e04:	4620      	mov	r0, r4
 8002e06:	211b      	movs	r1, #27
 8002e08:	f7ff fee6 	bl	8002bd8 <_ZN12SxDriverBase11SpiTransferEhPh>
 8002e0c:	4639      	mov	r1, r7
 8002e0e:	4620      	mov	r0, r4
 8002e10:	f7ff feed 	bl	8002bee <_ZN12SxDriverBase11SpiTransferEh>
 8002e14:	4620      	mov	r0, r4
 8002e16:	2100      	movs	r1, #0
 8002e18:	f7ff fee9 	bl	8002bee <_ZN12SxDriverBase11SpiTransferEh>
 8002e1c:	6823      	ldr	r3, [r4, #0]
 8002e1e:	4632      	mov	r2, r6
 8002e20:	4669      	mov	r1, sp
 8002e22:	4620      	mov	r0, r4
 8002e24:	689f      	ldr	r7, [r3, #8]
 8002e26:	462b      	mov	r3, r5
 8002e28:	47b8      	blx	r7
 8002e2a:	6823      	ldr	r3, [r4, #0]
 8002e2c:	4620      	mov	r0, r4
 8002e2e:	685b      	ldr	r3, [r3, #4]
 8002e30:	4798      	blx	r3
 8002e32:	b041      	add	sp, #260	; 0x104
 8002e34:	bdf0      	pop	{r4, r5, r6, r7, pc}

08002e36 <_ZN12SxDriverBase10SetStandbyEh>:
 8002e36:	b537      	push	{r0, r1, r2, r4, r5, lr}
 8002e38:	4604      	mov	r4, r0
 8002e3a:	460d      	mov	r5, r1
 8002e3c:	f88d 1007 	strb.w	r1, [sp, #7]
 8002e40:	f10d 0207 	add.w	r2, sp, #7
 8002e44:	2180      	movs	r1, #128	; 0x80
 8002e46:	2301      	movs	r3, #1
 8002e48:	f7ff fede 	bl	8002c08 <_ZN12SxDriverBase12WriteCommandEhPhh>
 8002e4c:	6823      	ldr	r3, [r4, #0]
 8002e4e:	2d01      	cmp	r5, #1
 8002e50:	bf0c      	ite	eq
 8002e52:	2132      	moveq	r1, #50	; 0x32
 8002e54:	f240 51dc 	movwne	r1, #1500	; 0x5dc
 8002e58:	4620      	mov	r0, r4
 8002e5a:	691b      	ldr	r3, [r3, #16]
 8002e5c:	4798      	blx	r3
 8002e5e:	b003      	add	sp, #12
 8002e60:	bd30      	pop	{r4, r5, pc}

08002e62 <_ZN12SxDriverBase13SetPacketTypeEh>:
 8002e62:	b507      	push	{r0, r1, r2, lr}
 8002e64:	2301      	movs	r3, #1
 8002e66:	f88d 1007 	strb.w	r1, [sp, #7]
 8002e6a:	f10d 0207 	add.w	r2, sp, #7
 8002e6e:	218a      	movs	r1, #138	; 0x8a
 8002e70:	f7ff feca 	bl	8002c08 <_ZN12SxDriverBase12WriteCommandEhPhh>
 8002e74:	b003      	add	sp, #12
 8002e76:	f85d fb04 	ldr.w	pc, [sp], #4

08002e7a <_ZN12SxDriverBase14SetRfFrequencyEm>:
 8002e7a:	b507      	push	{r0, r1, r2, lr}
 8002e7c:	0c0b      	lsrs	r3, r1, #16
 8002e7e:	f88d 3004 	strb.w	r3, [sp, #4]
 8002e82:	0a0b      	lsrs	r3, r1, #8
 8002e84:	f88d 3005 	strb.w	r3, [sp, #5]
 8002e88:	f88d 1006 	strb.w	r1, [sp, #6]
 8002e8c:	2303      	movs	r3, #3
 8002e8e:	2186      	movs	r1, #134	; 0x86
 8002e90:	aa01      	add	r2, sp, #4
 8002e92:	f7ff feb9 	bl	8002c08 <_ZN12SxDriverBase12WriteCommandEhPhh>
 8002e96:	b003      	add	sp, #12
 8002e98:	f85d fb04 	ldr.w	pc, [sp], #4

08002e9c <_ZN12SxDriverBase20SetBufferBaseAddressEhh>:
 8002e9c:	b507      	push	{r0, r1, r2, lr}
 8002e9e:	2302      	movs	r3, #2
 8002ea0:	f88d 1004 	strb.w	r1, [sp, #4]
 8002ea4:	f88d 2005 	strb.w	r2, [sp, #5]
 8002ea8:	218f      	movs	r1, #143	; 0x8f
 8002eaa:	aa01      	add	r2, sp, #4
 8002eac:	f7ff feac 	bl	8002c08 <_ZN12SxDriverBase12WriteCommandEhPhh>
 8002eb0:	b003      	add	sp, #12
 8002eb2:	f85d fb04 	ldr.w	pc, [sp], #4

08002eb6 <_ZN12SxDriverBase19SetModulationParamsEhhh>:
 8002eb6:	b537      	push	{r0, r1, r2, r4, r5, lr}
 8002eb8:	460c      	mov	r4, r1
 8002eba:	f88d 1004 	strb.w	r1, [sp, #4]
 8002ebe:	f88d 2005 	strb.w	r2, [sp, #5]
 8002ec2:	f88d 3006 	strb.w	r3, [sp, #6]
 8002ec6:	218b      	movs	r1, #139	; 0x8b
 8002ec8:	2303      	movs	r3, #3
 8002eca:	aa01      	add	r2, sp, #4
 8002ecc:	4605      	mov	r5, r0
 8002ece:	f7ff fe9b 	bl	8002c08 <_ZN12SxDriverBase12WriteCommandEhPhh>
 8002ed2:	2c70      	cmp	r4, #112	; 0x70
 8002ed4:	d008      	beq.n	8002ee8 <_ZN12SxDriverBase19SetModulationParamsEhhh+0x32>
 8002ed6:	d805      	bhi.n	8002ee4 <_ZN12SxDriverBase19SetModulationParamsEhhh+0x2e>
 8002ed8:	2c50      	cmp	r4, #80	; 0x50
 8002eda:	d007      	beq.n	8002eec <_ZN12SxDriverBase19SetModulationParamsEhhh+0x36>
 8002edc:	2c60      	cmp	r4, #96	; 0x60
 8002ede:	d005      	beq.n	8002eec <_ZN12SxDriverBase19SetModulationParamsEhhh+0x36>
 8002ee0:	2332      	movs	r3, #50	; 0x32
 8002ee2:	e004      	b.n	8002eee <_ZN12SxDriverBase19SetModulationParamsEhhh+0x38>
 8002ee4:	2c80      	cmp	r4, #128	; 0x80
 8002ee6:	d1fb      	bne.n	8002ee0 <_ZN12SxDriverBase19SetModulationParamsEhhh+0x2a>
 8002ee8:	2337      	movs	r3, #55	; 0x37
 8002eea:	e000      	b.n	8002eee <_ZN12SxDriverBase19SetModulationParamsEhhh+0x38>
 8002eec:	231e      	movs	r3, #30
 8002eee:	4628      	mov	r0, r5
 8002ef0:	f88d 3003 	strb.w	r3, [sp, #3]
 8002ef4:	f10d 0203 	add.w	r2, sp, #3
 8002ef8:	2301      	movs	r3, #1
 8002efa:	f640 1125 	movw	r1, #2341	; 0x925
 8002efe:	f7ff fed5 	bl	8002cac <_ZN12SxDriverBase13WriteRegisterEtPhh>
 8002f02:	2301      	movs	r3, #1
 8002f04:	f640 113c 	movw	r1, #2364	; 0x93c
 8002f08:	4628      	mov	r0, r5
 8002f0a:	f10d 0203 	add.w	r2, sp, #3
 8002f0e:	f88d 3003 	strb.w	r3, [sp, #3]
 8002f12:	f7ff fecb 	bl	8002cac <_ZN12SxDriverBase13WriteRegisterEtPhh>
 8002f16:	b003      	add	sp, #12
 8002f18:	bd30      	pop	{r4, r5, pc}

08002f1a <_ZN12SxDriverBase15SetPacketParamsEhhhhh>:
 8002f1a:	b507      	push	{r0, r1, r2, lr}
 8002f1c:	f88d 3002 	strb.w	r3, [sp, #2]
 8002f20:	f89d 3010 	ldrb.w	r3, [sp, #16]
 8002f24:	f88d 1000 	strb.w	r1, [sp]
 8002f28:	f88d 3003 	strb.w	r3, [sp, #3]
 8002f2c:	f89d 3014 	ldrb.w	r3, [sp, #20]
 8002f30:	f88d 2001 	strb.w	r2, [sp, #1]
 8002f34:	f88d 3004 	strb.w	r3, [sp, #4]
 8002f38:	2300      	movs	r3, #0
 8002f3a:	466a      	mov	r2, sp
 8002f3c:	f88d 3005 	strb.w	r3, [sp, #5]
 8002f40:	f88d 3006 	strb.w	r3, [sp, #6]
 8002f44:	218c      	movs	r1, #140	; 0x8c
 8002f46:	2307      	movs	r3, #7
 8002f48:	f7ff fe5e 	bl	8002c08 <_ZN12SxDriverBase12WriteCommandEhPhh>
 8002f4c:	b003      	add	sp, #12
 8002f4e:	f85d fb04 	ldr.w	pc, [sp], #4

08002f52 <_ZN12SxDriverBase15SetDioIrqParamsEtttt>:
 8002f52:	b507      	push	{r0, r1, r2, lr}
 8002f54:	ba5b      	rev16	r3, r3
 8002f56:	f8ad 3004 	strh.w	r3, [sp, #4]
 8002f5a:	f8bd 3010 	ldrh.w	r3, [sp, #16]
 8002f5e:	ba49      	rev16	r1, r1
 8002f60:	ba52      	rev16	r2, r2
 8002f62:	ba5b      	rev16	r3, r3
 8002f64:	f8ad 1000 	strh.w	r1, [sp]
 8002f68:	f8ad 2002 	strh.w	r2, [sp, #2]
 8002f6c:	f8ad 3006 	strh.w	r3, [sp, #6]
 8002f70:	466a      	mov	r2, sp
 8002f72:	2308      	movs	r3, #8
 8002f74:	218d      	movs	r1, #141	; 0x8d
 8002f76:	f7ff fe47 	bl	8002c08 <_ZN12SxDriverBase12WriteCommandEhPhh>
 8002f7a:	b003      	add	sp, #12
 8002f7c:	f85d fb04 	ldr.w	pc, [sp], #4

08002f80 <_ZN12SxDriverBase12GetIrqStatusEv>:
 8002f80:	b507      	push	{r0, r1, r2, lr}
 8002f82:	2302      	movs	r3, #2
 8002f84:	2115      	movs	r1, #21
 8002f86:	aa01      	add	r2, sp, #4
 8002f88:	f7ff fe63 	bl	8002c52 <_ZN12SxDriverBase11ReadCommandEhPhh>
 8002f8c:	f89d 3004 	ldrb.w	r3, [sp, #4]
 8002f90:	f89d 0005 	ldrb.w	r0, [sp, #5]
 8002f94:	eb00 2003 	add.w	r0, r0, r3, lsl #8
 8002f98:	b280      	uxth	r0, r0
 8002f9a:	b003      	add	sp, #12
 8002f9c:	f85d fb04 	ldr.w	pc, [sp], #4

08002fa0 <_ZN12SxDriverBase14ClearIrqStatusEt>:
 8002fa0:	b507      	push	{r0, r1, r2, lr}
 8002fa2:	ba49      	rev16	r1, r1
 8002fa4:	f8ad 1004 	strh.w	r1, [sp, #4]
 8002fa8:	2302      	movs	r3, #2
 8002faa:	2197      	movs	r1, #151	; 0x97
 8002fac:	aa01      	add	r2, sp, #4
 8002fae:	f7ff fe2b 	bl	8002c08 <_ZN12SxDriverBase12WriteCommandEhPhh>
 8002fb2:	b003      	add	sp, #12
 8002fb4:	f85d fb04 	ldr.w	pc, [sp], #4

08002fb8 <_ZN12SxDriverBase11SetTxParamsEhh>:
 8002fb8:	291f      	cmp	r1, #31
 8002fba:	b507      	push	{r0, r1, r2, lr}
 8002fbc:	bf28      	it	cs
 8002fbe:	211f      	movcs	r1, #31
 8002fc0:	f88d 2005 	strb.w	r2, [sp, #5]
 8002fc4:	f88d 1004 	strb.w	r1, [sp, #4]
 8002fc8:	2302      	movs	r3, #2
 8002fca:	218e      	movs	r1, #142	; 0x8e
 8002fcc:	aa01      	add	r2, sp, #4
 8002fce:	f7ff fe1b 	bl	8002c08 <_ZN12SxDriverBase12WriteCommandEhPhh>
 8002fd2:	b003      	add	sp, #12
 8002fd4:	f85d fb04 	ldr.w	pc, [sp], #4

08002fd8 <_ZN12SxDriverBase5SetTxEht>:
 8002fd8:	b513      	push	{r0, r1, r4, lr}
 8002fda:	4604      	mov	r4, r0
 8002fdc:	0a13      	lsrs	r3, r2, #8
 8002fde:	f88d 1004 	strb.w	r1, [sp, #4]
 8002fe2:	f88d 3005 	strb.w	r3, [sp, #5]
 8002fe6:	f88d 2006 	strb.w	r2, [sp, #6]
 8002fea:	2303      	movs	r3, #3
 8002fec:	aa01      	add	r2, sp, #4
 8002fee:	2183      	movs	r1, #131	; 0x83
 8002ff0:	f7ff fe0a 	bl	8002c08 <_ZN12SxDriverBase12WriteCommandEhPhh>
 8002ff4:	6823      	ldr	r3, [r4, #0]
 8002ff6:	2164      	movs	r1, #100	; 0x64
 8002ff8:	4620      	mov	r0, r4
 8002ffa:	691b      	ldr	r3, [r3, #16]
 8002ffc:	4798      	blx	r3
 8002ffe:	b002      	add	sp, #8
 8003000:	bd10      	pop	{r4, pc}

08003002 <_ZN12SxDriverBase5SetRxEht>:
 8003002:	b513      	push	{r0, r1, r4, lr}
 8003004:	4604      	mov	r4, r0
 8003006:	0a13      	lsrs	r3, r2, #8
 8003008:	f88d 1004 	strb.w	r1, [sp, #4]
 800300c:	f88d 3005 	strb.w	r3, [sp, #5]
 8003010:	f88d 2006 	strb.w	r2, [sp, #6]
 8003014:	2303      	movs	r3, #3
 8003016:	aa01      	add	r2, sp, #4
 8003018:	2182      	movs	r1, #130	; 0x82
 800301a:	f7ff fdf5 	bl	8002c08 <_ZN12SxDriverBase12WriteCommandEhPhh>
 800301e:	6823      	ldr	r3, [r4, #0]
 8003020:	2164      	movs	r1, #100	; 0x64
 8003022:	4620      	mov	r0, r4
 8003024:	691b      	ldr	r3, [r3, #16]
 8003026:	4798      	blx	r3
 8003028:	b002      	add	sp, #8
 800302a:	bd10      	pop	{r4, pc}

0800302c <_ZN12SxDriverBase15GetPacketStatusEPaS0_>:
 800302c:	b537      	push	{r0, r1, r2, r4, r5, lr}
 800302e:	460d      	mov	r5, r1
 8003030:	4614      	mov	r4, r2
 8003032:	2305      	movs	r3, #5
 8003034:	466a      	mov	r2, sp
 8003036:	211d      	movs	r1, #29
 8003038:	f7ff fe0b 	bl	8002c52 <_ZN12SxDriverBase11ReadCommandEhPhh>
 800303c:	f89d 3000 	ldrb.w	r3, [sp]
 8003040:	085b      	lsrs	r3, r3, #1
 8003042:	425b      	negs	r3, r3
 8003044:	702b      	strb	r3, [r5, #0]
 8003046:	f89d 3001 	ldrb.w	r3, [sp, #1]
 800304a:	089b      	lsrs	r3, r3, #2
 800304c:	7023      	strb	r3, [r4, #0]
 800304e:	b003      	add	sp, #12
 8003050:	bd30      	pop	{r4, r5, pc}

08003052 <_ZN12SxDriverBase17GetRxBufferStatusEPhS0_>:
 8003052:	b537      	push	{r0, r1, r2, r4, r5, lr}
 8003054:	460d      	mov	r5, r1
 8003056:	4614      	mov	r4, r2
 8003058:	2302      	movs	r3, #2
 800305a:	2117      	movs	r1, #23
 800305c:	aa01      	add	r2, sp, #4
 800305e:	f7ff fdf8 	bl	8002c52 <_ZN12SxDriverBase11ReadCommandEhPhh>
 8003062:	f89d 3004 	ldrb.w	r3, [sp, #4]
 8003066:	702b      	strb	r3, [r5, #0]
 8003068:	f89d 3005 	ldrb.w	r3, [sp, #5]
 800306c:	7023      	strb	r3, [r4, #0]
 800306e:	b003      	add	sp, #12
 8003070:	bd30      	pop	{r4, r5, pc}

08003072 <_ZN12SxDriverBase16SetRegulatorModeEh>:
 8003072:	b507      	push	{r0, r1, r2, lr}
 8003074:	2301      	movs	r3, #1
 8003076:	f88d 1007 	strb.w	r1, [sp, #7]
 800307a:	f10d 0207 	add.w	r2, sp, #7
 800307e:	2196      	movs	r1, #150	; 0x96
 8003080:	f7ff fdc2 	bl	8002c08 <_ZN12SxDriverBase12WriteCommandEhPhh>
 8003084:	b003      	add	sp, #12
 8003086:	f85d fb04 	ldr.w	pc, [sp], #4

0800308a <_ZN12SxDriverBase9SetAutoFsEh>:
 800308a:	b507      	push	{r0, r1, r2, lr}
 800308c:	2301      	movs	r3, #1
 800308e:	f88d 1007 	strb.w	r1, [sp, #7]
 8003092:	f10d 0207 	add.w	r2, sp, #7
 8003096:	219e      	movs	r1, #158	; 0x9e
 8003098:	f7ff fdb6 	bl	8002c08 <_ZN12SxDriverBase12WriteCommandEhPhh>
 800309c:	b003      	add	sp, #12
 800309e:	f85d fb04 	ldr.w	pc, [sp], #4

080030a2 <_ZN12SxDriverBase5SetFsEv>:
 80030a2:	2300      	movs	r3, #0
 80030a4:	b510      	push	{r4, lr}
 80030a6:	4604      	mov	r4, r0
 80030a8:	461a      	mov	r2, r3
 80030aa:	21c1      	movs	r1, #193	; 0xc1
 80030ac:	f7ff fdac 	bl	8002c08 <_ZN12SxDriverBase12WriteCommandEhPhh>
 80030b0:	6823      	ldr	r3, [r4, #0]
 80030b2:	4620      	mov	r0, r4
 80030b4:	e8bd 4010 	ldmia.w	sp!, {r4, lr}
 80030b8:	2146      	movs	r1, #70	; 0x46
 80030ba:	691b      	ldr	r3, [r3, #16]
 80030bc:	4718      	bx	r3

080030be <_ZN12SxDriverBase14SetLnaGainModeEh>:
 80030be:	b537      	push	{r0, r1, r2, r4, r5, lr}
 80030c0:	460d      	mov	r5, r1
 80030c2:	f640 0191 	movw	r1, #2193	; 0x891
 80030c6:	4604      	mov	r4, r0
 80030c8:	f7ff fe51 	bl	8002d6e <_ZN12SxDriverBase12ReadRegisterEt>
 80030cc:	2d01      	cmp	r5, #1
 80030ce:	bf0c      	ite	eq
 80030d0:	f060 003f 	orneq	r0, r0, #63	; 0x3f
 80030d4:	f000 003f 	andne.w	r0, r0, #63	; 0x3f
 80030d8:	f88d 0007 	strb.w	r0, [sp, #7]
 80030dc:	2301      	movs	r3, #1
 80030de:	f640 0191 	movw	r1, #2193	; 0x891
 80030e2:	4620      	mov	r0, r4
 80030e4:	f10d 0207 	add.w	r2, sp, #7
 80030e8:	f7ff fde0 	bl	8002cac <_ZN12SxDriverBase13WriteRegisterEtPhh>
 80030ec:	b003      	add	sp, #12
 80030ee:	bd30      	pop	{r4, r5, pc}

080030f0 <_ZN12SxDriverBase14GetFirmwareRevEv>:
 80030f0:	b538      	push	{r3, r4, r5, lr}
 80030f2:	f240 1153 	movw	r1, #339	; 0x153
 80030f6:	4605      	mov	r5, r0
 80030f8:	f7ff fe39 	bl	8002d6e <_ZN12SxDriverBase12ReadRegisterEt>
 80030fc:	f44f 71aa 	mov.w	r1, #340	; 0x154
 8003100:	4604      	mov	r4, r0
 8003102:	4628      	mov	r0, r5
 8003104:	f7ff fe33 	bl	8002d6e <_ZN12SxDriverBase12ReadRegisterEt>
 8003108:	ea40 2004 	orr.w	r0, r0, r4, lsl #8
 800310c:	b280      	uxth	r0, r0
 800310e:	bd38      	pop	{r3, r4, r5, pc}

08003110 <__libc_init_array>:
 8003110:	b570      	push	{r4, r5, r6, lr}
 8003112:	2600      	movs	r6, #0
 8003114:	4d0c      	ldr	r5, [pc, #48]	; (8003148 <__libc_init_array+0x38>)
 8003116:	4c0d      	ldr	r4, [pc, #52]	; (800314c <__libc_init_array+0x3c>)
 8003118:	1b64      	subs	r4, r4, r5
 800311a:	10a4      	asrs	r4, r4, #2
 800311c:	42a6      	cmp	r6, r4
 800311e:	d109      	bne.n	8003134 <__libc_init_array+0x24>
 8003120:	f000 f830 	bl	8003184 <_init>
 8003124:	2600      	movs	r6, #0
 8003126:	4d0a      	ldr	r5, [pc, #40]	; (8003150 <__libc_init_array+0x40>)
 8003128:	4c0a      	ldr	r4, [pc, #40]	; (8003154 <__libc_init_array+0x44>)
 800312a:	1b64      	subs	r4, r4, r5
 800312c:	10a4      	asrs	r4, r4, #2
 800312e:	42a6      	cmp	r6, r4
 8003130:	d105      	bne.n	800313e <__libc_init_array+0x2e>
 8003132:	bd70      	pop	{r4, r5, r6, pc}
 8003134:	f855 3b04 	ldr.w	r3, [r5], #4
 8003138:	4798      	blx	r3
 800313a:	3601      	adds	r6, #1
 800313c:	e7ee      	b.n	800311c <__libc_init_array+0xc>
 800313e:	f855 3b04 	ldr.w	r3, [r5], #4
 8003142:	4798      	blx	r3
 8003144:	3601      	adds	r6, #1
 8003146:	e7f2      	b.n	800312e <__libc_init_array+0x1e>
 8003148:	08003358 	.word	0x08003358
 800314c:	08003358 	.word	0x08003358
 8003150:	08003358 	.word	0x08003358
 8003154:	08003360 	.word	0x08003360

08003158 <memcpy>:
 8003158:	440a      	add	r2, r1
 800315a:	4291      	cmp	r1, r2
 800315c:	f100 33ff 	add.w	r3, r0, #4294967295
 8003160:	d100      	bne.n	8003164 <memcpy+0xc>
 8003162:	4770      	bx	lr
 8003164:	b510      	push	{r4, lr}
 8003166:	f811 4b01 	ldrb.w	r4, [r1], #1
 800316a:	4291      	cmp	r1, r2
 800316c:	f803 4f01 	strb.w	r4, [r3, #1]!
 8003170:	d1f9      	bne.n	8003166 <memcpy+0xe>
 8003172:	bd10      	pop	{r4, pc}

08003174 <memset>:
 8003174:	4603      	mov	r3, r0
 8003176:	4402      	add	r2, r0
 8003178:	4293      	cmp	r3, r2
 800317a:	d100      	bne.n	800317e <memset+0xa>
 800317c:	4770      	bx	lr
 800317e:	f803 1b01 	strb.w	r1, [r3], #1
 8003182:	e7f9      	b.n	8003178 <memset+0x4>

08003184 <_init>:
 8003184:	b5f8      	push	{r3, r4, r5, r6, r7, lr}
 8003186:	bf00      	nop
 8003188:	bcf8      	pop	{r3, r4, r5, r6, r7}
 800318a:	bc08      	pop	{r3}
 800318c:	469e      	mov	lr, r3
 800318e:	4770      	bx	lr

08003190 <_fini>:
 8003190:	b5f8      	push	{r3, r4, r5, r6, r7, lr}
 8003192:	bf00      	nop
 8003194:	bcf8      	pop	{r3, r4, r5, r6, r7}
 8003196:	bc08      	pop	{r3}
 8003198:	469e      	mov	lr, r3
 800319a:	4770      	bx	lr
