
rx-siyi-f373cc.elf:     file format elf32-littlearm

Sections:
Idx Name          Size      VMA       LMA       File off  Algn
  0 .isr_vector   00000188  08000000  08000000  00010000  2**0
                  CONTENTS, ALLOC, LOAD, READONLY, DATA
  1 .text         000034c8  08000188  08000188  00010188  2**2
                  CONTENTS, ALLOC, LOAD, READONLY, CODE
  2 .rodata       000001bc  08003650  08003650  00013650  2**2
                  CONTENTS, ALLOC, LOAD, READONLY, DATA
  3 .ARM.extab    00000000  0800380c  0800380c  00020074  2**0
                  CONTENTS
  4 .ARM          00000000  0800380c  0800380c  00020074  2**0
                  CONTENTS
  5 .preinit_array 00000000  0800380c  0800380c  00020074  2**0
                  CONTENTS, ALLOC, LOAD, DATA
  6 .init_array   00000008  0800380c  0800380c  0001380c  2**2
                  CONTENTS, ALLOC, LOAD, DATA
  7 .fini_array   00000004  08003814  08003814  00013814  2**2
                  CONTENTS, ALLOC, LOAD, DATA
  8 .data         00000074  20000000  08003818  00020000  2**2
                  CONTENTS, ALLOC, LOAD, DATA
  9 .bss          0000184c  20000078  0800388c  00020078  2**3
                  ALLOC
 10 ._user_heap_stack 00000404  200018c4  0800388c  000218c4  2**0
                  ALLOC
 11 .ARM.attributes 00000030  00000000  00000000  00020074  2**0
                  CONTENTS, READONLY
 12 .comment      00000053  00000000  00000000  000200a4  2**0
                  CONTENTS, READONLY
 13 .debug_frame  000002e8  00000000  00000000  000200f8  2**2
                  CONTENTS, READONLY, DEBUGGING, OCTETS

Disassembly of section .text:

08000188 <__do_global_dtors_aux>:
 8000188:	b510      	push	{r4, lr}
 800018a:	4c05      	ldr	r4, [pc, #20]	; (80001a0 <__do_global_dtors_aux+0x18>)
 800018c:	7823      	ldrb	r3, [r4, #0]
 800018e:	b933      	cbnz	r3, 800019e <__do_global_dtors_aux+0x16>
 8000190:	4b04      	ldr	r3, [pc, #16]	; (80001a4 <__do_global_dtors_aux+0x1c>)
 8000192:	b113      	cbz	r3, 800019a <__do_global_dtors_aux+0x12>
 8000194:	4804      	ldr	r0, [pc, #16]	; (80001a8 <__do_global_dtors_aux+0x20>)
 8000196:	f3af 8000 	nop.w
 800019a:	2301      	movs	r3, #1
 800019c:	7023      	strb	r3, [r4, #0]
 800019e:	bd10      	pop	{r4, pc}
 80001a0:	20000078 	.word	0x20000078
 80001a4:	00000000 	.word	0x00000000
 80001a8:	08003638 	.word	0x08003638

080001ac <frame_dummy>:
 80001ac:	b508      	push	{r3, lr}
 80001ae:	4b03      	ldr	r3, [pc, #12]	; (80001bc <frame_dummy+0x10>)
 80001b0:	b11b      	cbz	r3, 80001ba <frame_dummy+0xe>
 80001b2:	4903      	ldr	r1, [pc, #12]	; (80001c0 <frame_dummy+0x14>)
 80001b4:	4803      	ldr	r0, [pc, #12]	; (80001c4 <frame_dummy+0x18>)
 80001b6:	f3af 8000 	nop.w
 80001ba:	bd08      	pop	{r3, pc}
 80001bc:	00000000 	.word	0x00000000
 80001c0:	2000007c 	.word	0x2000007c
 80001c4:	08003638 	.word	0x08003638

080001c8 <_ZN8FhssBase4prngEv>:
 80001c8:	6843      	ldr	r3, [r0, #4]
 80001ca:	4904      	ldr	r1, [pc, #16]	; (80001dc <_ZN8FhssBase4prngEv+0x14>)
 80001cc:	4a04      	ldr	r2, [pc, #16]	; (80001e0 <_ZN8FhssBase4prngEv+0x18>)
 80001ce:	fb01 2303 	mla	r3, r1, r3, r2
 80001d2:	f023 4300 	bic.w	r3, r3, #2147483648	; 0x80000000
 80001d6:	6043      	str	r3, [r0, #4]
 80001d8:	0c18      	lsrs	r0, r3, #16
 80001da:	4770      	bx	lr
 80001dc:	000343fd 	.word	0x000343fd
 80001e0:	00269ec3 	.word	0x00269ec3

080001e4 <_ZN8FhssBase8generateEm>:
 80001e4:	e92d 41f0 	stmdb	sp!, {r4, r5, r6, r7, r8, lr}
 80001e8:	b092      	sub	sp, #72	; 0x48
 80001ea:	6041      	str	r1, [r0, #4]
 80001ec:	4604      	mov	r4, r0
 80001ee:	aa01      	add	r2, sp, #4
 80001f0:	2344      	movs	r3, #68	; 0x44
 80001f2:	2100      	movs	r1, #0
 80001f4:	3b01      	subs	r3, #1
 80001f6:	f013 03ff 	ands.w	r3, r3, #255	; 0xff
 80001fa:	f802 1b01 	strb.w	r1, [r2], #1
 80001fe:	d1f9      	bne.n	80001f4 <_ZN8FhssBase8generateEm+0x10>
 8000200:	f8df 8060 	ldr.w	r8, [pc, #96]	; 8000264 <_ZN8FhssBase8generateEm+0x80>
 8000204:	f104 060c 	add.w	r6, r4, #12
 8000208:	2544      	movs	r5, #68	; 0x44
 800020a:	2701      	movs	r7, #1
 800020c:	4620      	mov	r0, r4
 800020e:	f7ff ffdb 	bl	80001c8 <_ZN8FhssBase4prngEv>
 8000212:	fbb0 f3f5 	udiv	r3, r0, r5
 8000216:	fb03 0015 	mls	r0, r3, r5, r0
 800021a:	2300      	movs	r3, #0
 800021c:	b2c0      	uxtb	r0, r0
 800021e:	a901      	add	r1, sp, #4
 8000220:	461a      	mov	r2, r3
 8000222:	f811 cb01 	ldrb.w	ip, [r1], #1
 8000226:	f1bc 0f00 	cmp.w	ip, #0
 800022a:	d103      	bne.n	8000234 <_ZN8FhssBase8generateEm+0x50>
 800022c:	4282      	cmp	r2, r0
 800022e:	d006      	beq.n	800023e <_ZN8FhssBase8generateEm+0x5a>
 8000230:	3201      	adds	r2, #1
 8000232:	b2d2      	uxtb	r2, r2
 8000234:	3301      	adds	r3, #1
 8000236:	b2db      	uxtb	r3, r3
 8000238:	2b44      	cmp	r3, #68	; 0x44
 800023a:	d1f2      	bne.n	8000222 <_ZN8FhssBase8generateEm+0x3e>
 800023c:	2300      	movs	r3, #0
 800023e:	f858 2023 	ldr.w	r2, [r8, r3, lsl #2]
 8000242:	f846 2b04 	str.w	r2, [r6], #4
 8000246:	aa12      	add	r2, sp, #72	; 0x48
 8000248:	4413      	add	r3, r2
 800024a:	3d01      	subs	r5, #1
 800024c:	2d40      	cmp	r5, #64	; 0x40
 800024e:	f803 7c44 	strb.w	r7, [r3, #-68]
 8000252:	d1db      	bne.n	800020c <_ZN8FhssBase8generateEm+0x28>
 8000254:	2300      	movs	r3, #0
 8000256:	7223      	strb	r3, [r4, #8]
 8000258:	f04f 3380 	mov.w	r3, #2155905152	; 0x80808080
 800025c:	61e3      	str	r3, [r4, #28]
 800025e:	b012      	add	sp, #72	; 0x48
 8000260:	e8bd 81f0 	ldmia.w	sp!, {r4, r5, r6, r7, r8, pc}
 8000264:	08003650 	.word	0x08003650

08000268 <LL_AHB1_GRP1_EnableClock>:
 8000268:	4b05      	ldr	r3, [pc, #20]	; (8000280 <LL_AHB1_GRP1_EnableClock+0x18>)
 800026a:	695a      	ldr	r2, [r3, #20]
 800026c:	4302      	orrs	r2, r0
 800026e:	615a      	str	r2, [r3, #20]
 8000270:	695b      	ldr	r3, [r3, #20]
 8000272:	b082      	sub	sp, #8
 8000274:	4018      	ands	r0, r3
 8000276:	9001      	str	r0, [sp, #4]
 8000278:	9b01      	ldr	r3, [sp, #4]
 800027a:	b002      	add	sp, #8
 800027c:	4770      	bx	lr
 800027e:	bf00      	nop
 8000280:	40021000 	.word	0x40021000

08000284 <LL_APB1_GRP1_EnableClock>:
 8000284:	4b05      	ldr	r3, [pc, #20]	; (800029c <LL_APB1_GRP1_EnableClock+0x18>)
 8000286:	69da      	ldr	r2, [r3, #28]
 8000288:	4302      	orrs	r2, r0
 800028a:	61da      	str	r2, [r3, #28]
 800028c:	69db      	ldr	r3, [r3, #28]
 800028e:	b082      	sub	sp, #8
 8000290:	4018      	ands	r0, r3
 8000292:	9001      	str	r0, [sp, #4]
 8000294:	9b01      	ldr	r3, [sp, #4]
 8000296:	b002      	add	sp, #8
 8000298:	4770      	bx	lr
 800029a:	bf00      	nop
 800029c:	40021000 	.word	0x40021000

080002a0 <LL_APB2_GRP1_EnableClock>:
 80002a0:	4b05      	ldr	r3, [pc, #20]	; (80002b8 <LL_APB2_GRP1_EnableClock+0x18>)
 80002a2:	699a      	ldr	r2, [r3, #24]
 80002a4:	4302      	orrs	r2, r0
 80002a6:	619a      	str	r2, [r3, #24]
 80002a8:	699b      	ldr	r3, [r3, #24]
 80002aa:	b082      	sub	sp, #8
 80002ac:	4018      	ands	r0, r3
 80002ae:	9001      	str	r0, [sp, #4]
 80002b0:	9b01      	ldr	r3, [sp, #4]
 80002b2:	b002      	add	sp, #8
 80002b4:	4770      	bx	lr
 80002b6:	bf00      	nop
 80002b8:	40021000 	.word	0x40021000

080002bc <LL_USART_EnableIT_TXE>:
 80002bc:	e850 3f00 	ldrex	r3, [r0]
 80002c0:	f043 0380 	orr.w	r3, r3, #128	; 0x80
 80002c4:	e840 3200 	strex	r2, r3, [r0]
 80002c8:	2a00      	cmp	r2, #0
 80002ca:	d1f7      	bne.n	80002bc <LL_USART_EnableIT_TXE>
 80002cc:	4770      	bx	lr

080002ce <LL_USART_DisableIT_TXE>:
 80002ce:	e850 3f00 	ldrex	r3, [r0]
 80002d2:	f023 0380 	bic.w	r3, r3, #128	; 0x80
 80002d6:	e840 3200 	strex	r2, r3, [r0]
 80002da:	2a00      	cmp	r2, #0
 80002dc:	d1f7      	bne.n	80002ce <LL_USART_DisableIT_TXE>
 80002de:	4770      	bx	lr

080002e0 <_ZN12SxDriverBase8SetDelayEt>:
 80002e0:	4770      	bx	lr

080002e2 <fmav_crc_accumulate_buf>:
 80002e2:	b530      	push	{r4, r5, lr}
 80002e4:	440a      	add	r2, r1
 80002e6:	4291      	cmp	r1, r2
 80002e8:	d00f      	beq.n	800030a <fmav_crc_accumulate_buf+0x28>
 80002ea:	8805      	ldrh	r5, [r0, #0]
 80002ec:	f811 3b01 	ldrb.w	r3, [r1], #1
 80002f0:	406b      	eors	r3, r5
 80002f2:	ea83 1303 	eor.w	r3, r3, r3, lsl #4
 80002f6:	b2db      	uxtb	r3, r3
 80002f8:	00dc      	lsls	r4, r3, #3
 80002fa:	ea84 2403 	eor.w	r4, r4, r3, lsl #8
 80002fe:	ea84 2415 	eor.w	r4, r4, r5, lsr #8
 8000302:	ea84 1313 	eor.w	r3, r4, r3, lsr #4
 8000306:	8003      	strh	r3, [r0, #0]
 8000308:	e7ed      	b.n	80002e6 <fmav_crc_accumulate_buf+0x4>
 800030a:	bd30      	pop	{r4, r5, pc}

0800030c <_ZN3Pll8tim_10usEv>:
 800030c:	4b01      	ldr	r3, [pc, #4]	; (8000314 <_ZN3Pll8tim_10usEv+0x8>)
 800030e:	6a58      	ldr	r0, [r3, #36]	; 0x24
 8000310:	b280      	uxth	r0, r0
 8000312:	4770      	bx	lr
 8000314:	40000400 	.word	0x40000400

08000318 <_ZN3Pll19tim_set_period_10usEt>:
 8000318:	4b01      	ldr	r3, [pc, #4]	; (8000320 <_ZN3Pll19tim_set_period_10usEt+0x8>)
 800031a:	8019      	strh	r1, [r3, #0]
 800031c:	4770      	bx	lr
 800031e:	bf00      	nop
 8000320:	20000096 	.word	0x20000096

08000324 <_ZL9connectedv>:
 8000324:	4b02      	ldr	r3, [pc, #8]	; (8000330 <_ZL9connectedv+0xc>)
 8000326:	8818      	ldrh	r0, [r3, #0]
 8000328:	b108      	cbz	r0, 800032e <_ZL9connectedv+0xa>
 800032a:	4b02      	ldr	r3, [pc, #8]	; (8000334 <_ZL9connectedv+0x10>)
 800032c:	7f18      	ldrb	r0, [r3, #28]
 800032e:	4770      	bx	lr
 8000330:	20000098 	.word	0x20000098
 8000334:	200000d0 	.word	0x200000d0

08000338 <delay_ns.constprop.0>:
 8000338:	4b0a      	ldr	r3, [pc, #40]	; (8000364 <delay_ns.constprop.0+0x2c>)
 800033a:	4a0b      	ldr	r2, [pc, #44]	; (8000368 <delay_ns.constprop.0+0x30>)
 800033c:	681b      	ldr	r3, [r3, #0]
 800033e:	480b      	ldr	r0, [pc, #44]	; (800036c <delay_ns.constprop.0+0x34>)
 8000340:	490b      	ldr	r1, [pc, #44]	; (8000370 <delay_ns.constprop.0+0x38>)
 8000342:	fba2 3203 	umull	r3, r2, r2, r3
 8000346:	0c93      	lsrs	r3, r2, #18
 8000348:	2232      	movs	r2, #50	; 0x32
 800034a:	fb02 f203 	mul.w	r2, r2, r3
 800034e:	f502 72fa 	add.w	r2, r2, #500	; 0x1f4
 8000352:	fba0 3202 	umull	r3, r2, r0, r2
 8000356:	6848      	ldr	r0, [r1, #4]
 8000358:	0992      	lsrs	r2, r2, #6
 800035a:	684b      	ldr	r3, [r1, #4]
 800035c:	1a1b      	subs	r3, r3, r0
 800035e:	429a      	cmp	r2, r3
 8000360:	d8fb      	bhi.n	800035a <delay_ns.constprop.0+0x22>
 8000362:	4770      	bx	lr
 8000364:	20000000 	.word	0x20000000
 8000368:	431bde83 	.word	0x431bde83
 800036c:	10624dd3 	.word	0x10624dd3
 8000370:	e0001000 	.word	0xe0001000

08000374 <_ZN8SxDriver11SpiDeselectEv>:
 8000374:	b508      	push	{r3, lr}
 8000376:	f7ff ffdf 	bl	8000338 <delay_ns.constprop.0>
 800037a:	f04f 4390 	mov.w	r3, #1207959552	; 0x48000000
 800037e:	f44f 4200 	mov.w	r2, #32768	; 0x8000
 8000382:	619a      	str	r2, [r3, #24]
 8000384:	bd08      	pop	{r3, pc}

08000386 <_ZN8SxDriver9SpiSelectEv>:
 8000386:	f04f 4390 	mov.w	r3, #1207959552	; 0x48000000
 800038a:	f44f 4200 	mov.w	r2, #32768	; 0x8000
 800038e:	629a      	str	r2, [r3, #40]	; 0x28
 8000390:	f7ff bfd2 	b.w	8000338 <delay_ns.constprop.0>

08000394 <LL_USART_EnableIT_RXNE.constprop.0>:
 8000394:	4a04      	ldr	r2, [pc, #16]	; (80003a8 <LL_USART_EnableIT_RXNE.constprop.0+0x14>)
 8000396:	e852 3f00 	ldrex	r3, [r2]
 800039a:	f043 0320 	orr.w	r3, r3, #32
 800039e:	e842 3100 	strex	r1, r3, [r2]
 80003a2:	2900      	cmp	r1, #0
 80003a4:	d1f7      	bne.n	8000396 <LL_USART_EnableIT_RXNE.constprop.0+0x2>
 80003a6:	4770      	bx	lr
 80003a8:	40004400 	.word	0x40004400

080003ac <LL_GPIO_TogglePin.constprop.0>:
 80003ac:	4b04      	ldr	r3, [pc, #16]	; (80003c0 <LL_GPIO_TogglePin.constprop.0+0x14>)
 80003ae:	695a      	ldr	r2, [r3, #20]
 80003b0:	ea02 0100 	and.w	r1, r2, r0
 80003b4:	ea20 0002 	bic.w	r0, r0, r2
 80003b8:	ea40 4001 	orr.w	r0, r0, r1, lsl #16
 80003bc:	6198      	str	r0, [r3, #24]
 80003be:	4770      	bx	lr
 80003c0:	48000400 	.word	0x48000400

080003c4 <rcc_init_gpio>:
 80003c4:	f1b0 4f90 	cmp.w	r0, #1207959552	; 0x48000000
 80003c8:	b508      	push	{r3, lr}
 80003ca:	4601      	mov	r1, r0
 80003cc:	d10c      	bne.n	80003e8 <rcc_init_gpio+0x24>
 80003ce:	f44f 3000 	mov.w	r0, #131072	; 0x20000
 80003d2:	f7ff ff49 	bl	8000268 <LL_AHB1_GRP1_EnableClock>
 80003d6:	4b17      	ldr	r3, [pc, #92]	; (8000434 <rcc_init_gpio+0x70>)
 80003d8:	4299      	cmp	r1, r3
 80003da:	d129      	bne.n	8000430 <rcc_init_gpio+0x6c>
 80003dc:	e8bd 4008 	ldmia.w	sp!, {r3, lr}
 80003e0:	f44f 0080 	mov.w	r0, #4194304	; 0x400000
 80003e4:	f7ff bf40 	b.w	8000268 <LL_AHB1_GRP1_EnableClock>
 80003e8:	4b13      	ldr	r3, [pc, #76]	; (8000438 <rcc_init_gpio+0x74>)
 80003ea:	4298      	cmp	r0, r3
 80003ec:	d009      	beq.n	8000402 <rcc_init_gpio+0x3e>
 80003ee:	f503 6380 	add.w	r3, r3, #1024	; 0x400
 80003f2:	4298      	cmp	r0, r3
 80003f4:	d10a      	bne.n	800040c <rcc_init_gpio+0x48>
 80003f6:	e8bd 4008 	ldmia.w	sp!, {r3, lr}
 80003fa:	f44f 2000 	mov.w	r0, #524288	; 0x80000
 80003fe:	f7ff bf33 	b.w	8000268 <LL_AHB1_GRP1_EnableClock>
 8000402:	f44f 2080 	mov.w	r0, #262144	; 0x40000
 8000406:	f7ff ff2f 	bl	8000268 <LL_AHB1_GRP1_EnableClock>
 800040a:	e7e4      	b.n	80003d6 <rcc_init_gpio+0x12>
 800040c:	4b0b      	ldr	r3, [pc, #44]	; (800043c <rcc_init_gpio+0x78>)
 800040e:	4298      	cmp	r0, r3
 8000410:	d105      	bne.n	800041e <rcc_init_gpio+0x5a>
 8000412:	e8bd 4008 	ldmia.w	sp!, {r3, lr}
 8000416:	f44f 1080 	mov.w	r0, #1048576	; 0x100000
 800041a:	f7ff bf25 	b.w	8000268 <LL_AHB1_GRP1_EnableClock>
 800041e:	4b08      	ldr	r3, [pc, #32]	; (8000440 <rcc_init_gpio+0x7c>)
 8000420:	4298      	cmp	r0, r3
 8000422:	d1d8      	bne.n	80003d6 <rcc_init_gpio+0x12>
 8000424:	e8bd 4008 	ldmia.w	sp!, {r3, lr}
 8000428:	f44f 1000 	mov.w	r0, #2097152	; 0x200000
 800042c:	f7ff bf1c 	b.w	8000268 <LL_AHB1_GRP1_EnableClock>
 8000430:	bd08      	pop	{r3, pc}
 8000432:	bf00      	nop
 8000434:	48001400 	.word	0x48001400
 8000438:	48000400 	.word	0x48000400
 800043c:	48000c00 	.word	0x48000c00
 8000440:	48001000 	.word	0x48001000

08000444 <rcc_init_tim>:
 8000444:	f1b0 4f80 	cmp.w	r0, #1073741824	; 0x40000000
 8000448:	d102      	bne.n	8000450 <rcc_init_tim+0xc>
 800044a:	2001      	movs	r0, #1
 800044c:	f7ff bf1a 	b.w	8000284 <LL_APB1_GRP1_EnableClock>
 8000450:	4b09      	ldr	r3, [pc, #36]	; (8000478 <rcc_init_tim+0x34>)
 8000452:	4298      	cmp	r0, r3
 8000454:	d006      	beq.n	8000464 <rcc_init_tim+0x20>
 8000456:	f503 6380 	add.w	r3, r3, #1024	; 0x400
 800045a:	4298      	cmp	r0, r3
 800045c:	d105      	bne.n	800046a <rcc_init_tim+0x26>
 800045e:	2004      	movs	r0, #4
 8000460:	f7ff bf10 	b.w	8000284 <LL_APB1_GRP1_EnableClock>
 8000464:	2002      	movs	r0, #2
 8000466:	f7ff bf0d 	b.w	8000284 <LL_APB1_GRP1_EnableClock>
 800046a:	4b04      	ldr	r3, [pc, #16]	; (800047c <rcc_init_tim+0x38>)
 800046c:	4298      	cmp	r0, r3
 800046e:	d102      	bne.n	8000476 <rcc_init_tim+0x32>
 8000470:	2008      	movs	r0, #8
 8000472:	f7ff bf07 	b.w	8000284 <LL_APB1_GRP1_EnableClock>
 8000476:	4770      	bx	lr
 8000478:	40000400 	.word	0x40000400
 800047c:	40000c00 	.word	0x40000c00

08000480 <_gpio_init>:
 8000480:	e92d 43f0 	stmdb	sp!, {r4, r5, r6, r7, r8, r9, lr}
 8000484:	b087      	sub	sp, #28
 8000486:	460f      	mov	r7, r1
 8000488:	4606      	mov	r6, r0
 800048a:	4614      	mov	r4, r2
 800048c:	2100      	movs	r1, #0
 800048e:	2214      	movs	r2, #20
 8000490:	a801      	add	r0, sp, #4
 8000492:	f89d 8038 	ldrb.w	r8, [sp, #56]	; 0x38
 8000496:	f89d 903c 	ldrb.w	r9, [sp, #60]	; 0x3c
 800049a:	461d      	mov	r5, r3
 800049c:	f003 f880 	bl	80035a0 <memset>
 80004a0:	9700      	str	r7, [sp, #0]
 80004a2:	2c0b      	cmp	r4, #11
 80004a4:	d807      	bhi.n	80004b6 <_gpio_init+0x36>
 80004a6:	e8df f004 	tbb	[pc, r4]
 80004aa:	0707      	.short	0x0707
 80004ac:	1919140f 	.word	0x1919140f
 80004b0:	1e1e1e19 	.word	0x1e1e1e19
 80004b4:	2722      	.short	0x2722
 80004b6:	e7fe      	b.n	80004b6 <_gpio_init+0x36>
 80004b8:	2303      	movs	r3, #3
 80004ba:	9301      	str	r3, [sp, #4]
 80004bc:	2d03      	cmp	r5, #3
 80004be:	d820      	bhi.n	8000502 <_gpio_init+0x82>
 80004c0:	e8df f005 	tbb	[pc, r5]
 80004c4:	202f2c20 	.word	0x202f2c20
 80004c8:	2300      	movs	r3, #0
 80004ca:	9301      	str	r3, [sp, #4]
 80004cc:	2302      	movs	r3, #2
 80004ce:	9304      	str	r3, [sp, #16]
 80004d0:	e7f4      	b.n	80004bc <_gpio_init+0x3c>
 80004d2:	2300      	movs	r3, #0
 80004d4:	9301      	str	r3, [sp, #4]
 80004d6:	2301      	movs	r3, #1
 80004d8:	9304      	str	r3, [sp, #16]
 80004da:	e7ef      	b.n	80004bc <_gpio_init+0x3c>
 80004dc:	2301      	movs	r3, #1
 80004de:	9301      	str	r3, [sp, #4]
 80004e0:	2300      	movs	r3, #0
 80004e2:	9303      	str	r3, [sp, #12]
 80004e4:	e7ea      	b.n	80004bc <_gpio_init+0x3c>
 80004e6:	2301      	movs	r3, #1
 80004e8:	9301      	str	r3, [sp, #4]
 80004ea:	9303      	str	r3, [sp, #12]
 80004ec:	e7e6      	b.n	80004bc <_gpio_init+0x3c>
 80004ee:	2302      	movs	r3, #2
 80004f0:	9301      	str	r3, [sp, #4]
 80004f2:	2300      	movs	r3, #0
 80004f4:	9303      	str	r3, [sp, #12]
 80004f6:	e7e1      	b.n	80004bc <_gpio_init+0x3c>
 80004f8:	2302      	movs	r3, #2
 80004fa:	9301      	str	r3, [sp, #4]
 80004fc:	2301      	movs	r3, #1
 80004fe:	9303      	str	r3, [sp, #12]
 8000500:	e7dc      	b.n	80004bc <_gpio_init+0x3c>
 8000502:	e7fe      	b.n	8000502 <_gpio_init+0x82>
 8000504:	2303      	movs	r3, #3
 8000506:	9302      	str	r3, [sp, #8]
 8000508:	f1b8 0f09 	cmp.w	r8, #9
 800050c:	d80c      	bhi.n	8000528 <_gpio_init+0xa8>
 800050e:	e8df f008 	tbb	[pc, r8]
 8000512:	0c0c      	.short	0x0c0c
 8000514:	2724211c 	.word	0x2724211c
 8000518:	33302d2a 	.word	0x33302d2a
 800051c:	2300      	movs	r3, #0
 800051e:	9302      	str	r3, [sp, #8]
 8000520:	e7f2      	b.n	8000508 <_gpio_init+0x88>
 8000522:	2301      	movs	r3, #1
 8000524:	9302      	str	r3, [sp, #8]
 8000526:	e7ef      	b.n	8000508 <_gpio_init+0x88>
 8000528:	e7fe      	b.n	8000528 <_gpio_init+0xa8>
 800052a:	2300      	movs	r3, #0
 800052c:	9305      	str	r3, [sp, #20]
 800052e:	f1b9 0f00 	cmp.w	r9, #0
 8000532:	d002      	beq.n	800053a <_gpio_init+0xba>
 8000534:	4630      	mov	r0, r6
 8000536:	f7ff ff45 	bl	80003c4 <rcc_init_gpio>
 800053a:	3c05      	subs	r4, #5
 800053c:	2c04      	cmp	r4, #4
 800053e:	d81f      	bhi.n	8000580 <_gpio_init+0x100>
 8000540:	e8df f004 	tbb	[pc, r4]
 8000544:	1d1e251d 	.word	0x1d1e251d
 8000548:	25          	.byte	0x25
 8000549:	00          	.byte	0x00
 800054a:	2301      	movs	r3, #1
 800054c:	9305      	str	r3, [sp, #20]
 800054e:	2302      	movs	r3, #2
 8000550:	9301      	str	r3, [sp, #4]
 8000552:	e7ec      	b.n	800052e <_gpio_init+0xae>
 8000554:	2302      	movs	r3, #2
 8000556:	9305      	str	r3, [sp, #20]
 8000558:	e7f9      	b.n	800054e <_gpio_init+0xce>
 800055a:	2303      	movs	r3, #3
 800055c:	9305      	str	r3, [sp, #20]
 800055e:	e7f6      	b.n	800054e <_gpio_init+0xce>
 8000560:	2304      	movs	r3, #4
 8000562:	9305      	str	r3, [sp, #20]
 8000564:	e7f3      	b.n	800054e <_gpio_init+0xce>
 8000566:	2305      	movs	r3, #5
 8000568:	9305      	str	r3, [sp, #20]
 800056a:	e7f0      	b.n	800054e <_gpio_init+0xce>
 800056c:	2306      	movs	r3, #6
 800056e:	9305      	str	r3, [sp, #20]
 8000570:	e7ed      	b.n	800054e <_gpio_init+0xce>
 8000572:	2307      	movs	r3, #7
 8000574:	9305      	str	r3, [sp, #20]
 8000576:	e7ea      	b.n	800054e <_gpio_init+0xce>
 8000578:	2308      	movs	r3, #8
 800057a:	9305      	str	r3, [sp, #20]
 800057c:	e7e7      	b.n	800054e <_gpio_init+0xce>
 800057e:	62b7      	str	r7, [r6, #40]	; 0x28
 8000580:	4669      	mov	r1, sp
 8000582:	4630      	mov	r0, r6
 8000584:	f002 f968 	bl	8002858 <LL_GPIO_Init>
 8000588:	b007      	add	sp, #28
 800058a:	e8bd 83f0 	ldmia.w	sp!, {r4, r5, r6, r7, r8, r9, pc}
 800058e:	61b7      	str	r7, [r6, #24]
 8000590:	e7f6      	b.n	8000580 <_gpio_init+0x100>

08000592 <gpio_init>:
 8000592:	b513      	push	{r0, r1, r4, lr}
 8000594:	f04f 0c01 	mov.w	ip, #1
 8000598:	2400      	movs	r4, #0
 800059a:	e9cd 4c00 	strd	r4, ip, [sp]
 800059e:	f7ff ff6f 	bl	8000480 <_gpio_init>
 80005a2:	b002      	add	sp, #8
 80005a4:	bd10      	pop	{r4, pc}
	...

080005a8 <tim_config_up>:
 80005a8:	b570      	push	{r4, r5, r6, lr}
 80005aa:	b086      	sub	sp, #24
 80005ac:	4604      	mov	r4, r0
 80005ae:	460d      	mov	r5, r1
 80005b0:	4616      	mov	r6, r2
 80005b2:	2100      	movs	r1, #0
 80005b4:	2214      	movs	r2, #20
 80005b6:	a801      	add	r0, sp, #4
 80005b8:	f002 fff2 	bl	80035a0 <memset>
 80005bc:	4620      	mov	r0, r4
 80005be:	f7ff ff41 	bl	8000444 <rcc_init_tim>
 80005c2:	2e04      	cmp	r6, #4
 80005c4:	d804      	bhi.n	80005d0 <tim_config_up+0x28>
 80005c6:	e8df f006 	tbb	[pc, r6]
 80005ca:	312a      	.short	0x312a
 80005cc:	3804      	.short	0x3804
 80005ce:	42          	.byte	0x42
 80005cf:	00          	.byte	0x00
 80005d0:	e7fe      	b.n	80005d0 <tim_config_up+0x28>
 80005d2:	4b20      	ldr	r3, [pc, #128]	; (8000654 <tim_config_up+0xac>)
 80005d4:	4a20      	ldr	r2, [pc, #128]	; (8000658 <tim_config_up+0xb0>)
 80005d6:	681b      	ldr	r3, [r3, #0]
 80005d8:	fbb3 f3f2 	udiv	r3, r3, r2
 80005dc:	b29b      	uxth	r3, r3
 80005de:	2200      	movs	r2, #0
 80005e0:	3b01      	subs	r3, #1
 80005e2:	a901      	add	r1, sp, #4
 80005e4:	4620      	mov	r0, r4
 80005e6:	f8ad 3004 	strh.w	r3, [sp, #4]
 80005ea:	e9cd 2502 	strd	r2, r5, [sp, #8]
 80005ee:	9204      	str	r2, [sp, #16]
 80005f0:	9205      	str	r2, [sp, #20]
 80005f2:	f002 fadb 	bl	8002bac <LL_TIM_Init>
 80005f6:	6823      	ldr	r3, [r4, #0]
 80005f8:	f023 0380 	bic.w	r3, r3, #128	; 0x80
 80005fc:	6023      	str	r3, [r4, #0]
 80005fe:	68a3      	ldr	r3, [r4, #8]
 8000600:	f423 4380 	bic.w	r3, r3, #16384	; 0x4000
 8000604:	f023 0307 	bic.w	r3, r3, #7
 8000608:	60a3      	str	r3, [r4, #8]
 800060a:	6863      	ldr	r3, [r4, #4]
 800060c:	f023 0370 	bic.w	r3, r3, #112	; 0x70
 8000610:	6063      	str	r3, [r4, #4]
 8000612:	68a3      	ldr	r3, [r4, #8]
 8000614:	f023 0380 	bic.w	r3, r3, #128	; 0x80
 8000618:	60a3      	str	r3, [r4, #8]
 800061a:	b006      	add	sp, #24
 800061c:	bd70      	pop	{r4, r5, r6, pc}
 800061e:	4b0d      	ldr	r3, [pc, #52]	; (8000654 <tim_config_up+0xac>)
 8000620:	4a0e      	ldr	r2, [pc, #56]	; (800065c <tim_config_up+0xb4>)
 8000622:	681b      	ldr	r3, [r3, #0]
 8000624:	fbb3 f3f2 	udiv	r3, r3, r2
 8000628:	b29b      	uxth	r3, r3
 800062a:	e7d8      	b.n	80005de <tim_config_up+0x36>
 800062c:	4b09      	ldr	r3, [pc, #36]	; (8000654 <tim_config_up+0xac>)
 800062e:	4a0c      	ldr	r2, [pc, #48]	; (8000660 <tim_config_up+0xb8>)
 8000630:	681b      	ldr	r3, [r3, #0]
 8000632:	fbb3 f3f2 	udiv	r3, r3, r2
 8000636:	b29b      	uxth	r3, r3
 8000638:	e7d1      	b.n	80005de <tim_config_up+0x36>
 800063a:	4b06      	ldr	r3, [pc, #24]	; (8000654 <tim_config_up+0xac>)
 800063c:	4a07      	ldr	r2, [pc, #28]	; (800065c <tim_config_up+0xb4>)
 800063e:	681b      	ldr	r3, [r3, #0]
 8000640:	fbb3 f3f2 	udiv	r3, r3, r2
 8000644:	eb03 0383 	add.w	r3, r3, r3, lsl #2
 8000648:	005b      	lsls	r3, r3, #1
 800064a:	b29b      	uxth	r3, r3
 800064c:	e7c7      	b.n	80005de <tim_config_up+0x36>
 800064e:	2301      	movs	r3, #1
 8000650:	e7c5      	b.n	80005de <tim_config_up+0x36>
 8000652:	bf00      	nop
 8000654:	20000000 	.word	0x20000000
 8000658:	0112a880 	.word	0x0112a880
 800065c:	000f4240 	.word	0x000f4240
 8000660:	007a1200 	.word	0x007a1200

08000664 <tim_init_up>:
 8000664:	b510      	push	{r4, lr}
 8000666:	4604      	mov	r4, r0
 8000668:	f7ff ff9e 	bl	80005a8 <tim_config_up>
 800066c:	6823      	ldr	r3, [r4, #0]
 800066e:	f043 0301 	orr.w	r3, r3, #1
 8000672:	6023      	str	r3, [r4, #0]
 8000674:	bd10      	pop	{r4, pc}
	...

08000678 <_Z12sx_init_gpiov>:
 8000678:	b510      	push	{r4, lr}
 800067a:	4812      	ldr	r0, [pc, #72]	; (80006c4 <_Z12sx_init_gpiov+0x4c>)
 800067c:	2303      	movs	r3, #3
 800067e:	2206      	movs	r2, #6
 8000680:	2104      	movs	r1, #4
 8000682:	f7ff ff86 	bl	8000592 <gpio_init>
 8000686:	4810      	ldr	r0, [pc, #64]	; (80006c8 <_Z12sx_init_gpiov+0x50>)
 8000688:	2303      	movs	r3, #3
 800068a:	2206      	movs	r2, #6
 800068c:	f44f 7180 	mov.w	r1, #256	; 0x100
 8000690:	f7ff ff7f 	bl	8000592 <gpio_init>
 8000694:	2303      	movs	r3, #3
 8000696:	2205      	movs	r2, #5
 8000698:	f44f 7180 	mov.w	r1, #256	; 0x100
 800069c:	f04f 4090 	mov.w	r0, #1207959552	; 0x48000000
 80006a0:	f7ff ff77 	bl	8000592 <gpio_init>
 80006a4:	4809      	ldr	r0, [pc, #36]	; (80006cc <_Z12sx_init_gpiov+0x54>)
 80006a6:	2303      	movs	r3, #3
 80006a8:	2202      	movs	r2, #2
 80006aa:	f44f 7180 	mov.w	r1, #256	; 0x100
 80006ae:	f7ff ff70 	bl	8000592 <gpio_init>
 80006b2:	2303      	movs	r3, #3
 80006b4:	e8bd 4010 	ldmia.w	sp!, {r4, lr}
 80006b8:	4804      	ldr	r0, [pc, #16]	; (80006cc <_Z12sx_init_gpiov+0x54>)
 80006ba:	461a      	mov	r2, r3
 80006bc:	f44f 7100 	mov.w	r1, #512	; 0x200
 80006c0:	f7ff bf67 	b.w	8000592 <gpio_init>
 80006c4:	48000400 	.word	0x48000400
 80006c8:	48000c00 	.word	0x48000c00
 80006cc:	48001000 	.word	0x48001000

080006d0 <_Z12sx_busy_readv>:
 80006d0:	4b02      	ldr	r3, [pc, #8]	; (80006dc <_Z12sx_busy_readv+0xc>)
 80006d2:	6918      	ldr	r0, [r3, #16]
 80006d4:	f3c0 2040 	ubfx	r0, r0, #9, #1
 80006d8:	4770      	bx	lr
 80006da:	bf00      	nop
 80006dc:	48001000 	.word	0x48001000

080006e0 <_ZN8SxDriver10WaitOnBusyEv>:
 80006e0:	b508      	push	{r3, lr}
 80006e2:	f7ff fff5 	bl	80006d0 <_Z12sx_busy_readv>
 80006e6:	b108      	cbz	r0, 80006ec <_ZN8SxDriver10WaitOnBusyEv+0xc>
 80006e8:	bf00      	nop
 80006ea:	e7fa      	b.n	80006e2 <_ZN8SxDriver10WaitOnBusyEv+0x2>
 80006ec:	bd08      	pop	{r3, pc}
	...

080006f0 <_Z24sx_dio1_init_exti_isroffv>:
 80006f0:	b508      	push	{r3, lr}
 80006f2:	2001      	movs	r0, #1
 80006f4:	f7ff fdd4 	bl	80002a0 <LL_APB2_GRP1_EnableClock>
 80006f8:	4813      	ldr	r0, [pc, #76]	; (8000748 <_Z24sx_dio1_init_exti_isroffv+0x58>)
 80006fa:	220f      	movs	r2, #15
 80006fc:	6903      	ldr	r3, [r0, #16]
 80006fe:	fa92 f2a2 	rbit	r2, r2
 8000702:	2104      	movs	r1, #4
 8000704:	fab2 f282 	clz	r2, r2
 8000708:	fa01 f202 	lsl.w	r2, r1, r2
 800070c:	f023 030f 	bic.w	r3, r3, #15
 8000710:	4313      	orrs	r3, r2
 8000712:	6103      	str	r3, [r0, #16]
 8000714:	4b0d      	ldr	r3, [pc, #52]	; (800074c <_Z24sx_dio1_init_exti_isroffv+0x5c>)
 8000716:	685a      	ldr	r2, [r3, #4]
 8000718:	f422 7280 	bic.w	r2, r2, #256	; 0x100
 800071c:	605a      	str	r2, [r3, #4]
 800071e:	681a      	ldr	r2, [r3, #0]
 8000720:	f422 7280 	bic.w	r2, r2, #256	; 0x100
 8000724:	601a      	str	r2, [r3, #0]
 8000726:	68da      	ldr	r2, [r3, #12]
 8000728:	f422 7280 	bic.w	r2, r2, #256	; 0x100
 800072c:	60da      	str	r2, [r3, #12]
 800072e:	689a      	ldr	r2, [r3, #8]
 8000730:	f442 7280 	orr.w	r2, r2, #256	; 0x100
 8000734:	609a      	str	r2, [r3, #8]
 8000736:	4b06      	ldr	r3, [pc, #24]	; (8000750 <_Z24sx_dio1_init_exti_isroffv+0x60>)
 8000738:	22b0      	movs	r2, #176	; 0xb0
 800073a:	f883 2317 	strb.w	r2, [r3, #791]	; 0x317
 800073e:	f44f 0200 	mov.w	r2, #8388608	; 0x800000
 8000742:	601a      	str	r2, [r3, #0]
 8000744:	bd08      	pop	{r3, pc}
 8000746:	bf00      	nop
 8000748:	40010000 	.word	0x40010000
 800074c:	40010400 	.word	0x40010400
 8000750:	e000e100 	.word	0xe000e100

08000754 <_Z18sx_dio1_enable_isrv>:
 8000754:	4b04      	ldr	r3, [pc, #16]	; (8000768 <_Z18sx_dio1_enable_isrv+0x14>)
 8000756:	f44f 7280 	mov.w	r2, #256	; 0x100
 800075a:	615a      	str	r2, [r3, #20]
 800075c:	681a      	ldr	r2, [r3, #0]
 800075e:	f442 7280 	orr.w	r2, r2, #256	; 0x100
 8000762:	601a      	str	r2, [r3, #0]
 8000764:	4770      	bx	lr
 8000766:	bf00      	nop
 8000768:	40010400 	.word	0x40010400

0800076c <_Z13out_init_gpiov>:
 800076c:	b510      	push	{r4, lr}
 800076e:	4c05      	ldr	r4, [pc, #20]	; (8000784 <_Z13out_init_gpiov+0x18>)
 8000770:	2303      	movs	r3, #3
 8000772:	2205      	movs	r2, #5
 8000774:	2140      	movs	r1, #64	; 0x40
 8000776:	4620      	mov	r0, r4
 8000778:	f7ff ff0b 	bl	8000592 <gpio_init>
 800077c:	2340      	movs	r3, #64	; 0x40
 800077e:	62a3      	str	r3, [r4, #40]	; 0x28
 8000780:	bd10      	pop	{r4, pc}
 8000782:	bf00      	nop
 8000784:	48001400 	.word	0x48001400

08000788 <_Z9leds_initv>:
 8000788:	b510      	push	{r4, lr}
 800078a:	4c09      	ldr	r4, [pc, #36]	; (80007b0 <_Z9leds_initv+0x28>)
 800078c:	2300      	movs	r3, #0
 800078e:	2206      	movs	r2, #6
 8000790:	2180      	movs	r1, #128	; 0x80
 8000792:	4620      	mov	r0, r4
 8000794:	f7ff fefd 	bl	8000592 <gpio_init>
 8000798:	2300      	movs	r3, #0
 800079a:	2206      	movs	r2, #6
 800079c:	2140      	movs	r1, #64	; 0x40
 800079e:	4620      	mov	r0, r4
 80007a0:	f7ff fef7 	bl	8000592 <gpio_init>
 80007a4:	2380      	movs	r3, #128	; 0x80
 80007a6:	61a3      	str	r3, [r4, #24]
 80007a8:	2340      	movs	r3, #64	; 0x40
 80007aa:	61a3      	str	r3, [r4, #24]
 80007ac:	bd10      	pop	{r4, pc}
 80007ae:	bf00      	nop
 80007b0:	48000400 	.word	0x48000400

080007b4 <delay_init>:
 80007b4:	4b0a      	ldr	r3, [pc, #40]	; (80007e0 <delay_init+0x2c>)
 80007b6:	68da      	ldr	r2, [r3, #12]
 80007b8:	f022 7280 	bic.w	r2, r2, #16777216	; 0x1000000
 80007bc:	60da      	str	r2, [r3, #12]
 80007be:	68da      	ldr	r2, [r3, #12]
 80007c0:	f042 7280 	orr.w	r2, r2, #16777216	; 0x1000000
 80007c4:	60da      	str	r2, [r3, #12]
 80007c6:	4b07      	ldr	r3, [pc, #28]	; (80007e4 <delay_init+0x30>)
 80007c8:	681a      	ldr	r2, [r3, #0]
 80007ca:	f022 0201 	bic.w	r2, r2, #1
 80007ce:	601a      	str	r2, [r3, #0]
 80007d0:	681a      	ldr	r2, [r3, #0]
 80007d2:	f042 0201 	orr.w	r2, r2, #1
 80007d6:	601a      	str	r2, [r3, #0]
 80007d8:	2200      	movs	r2, #0
 80007da:	605a      	str	r2, [r3, #4]
 80007dc:	4770      	bx	lr
 80007de:	bf00      	nop
 80007e0:	e000edf0 	.word	0xe000edf0
 80007e4:	e0001000 	.word	0xe0001000

080007e8 <delay_us>:
 80007e8:	4b06      	ldr	r3, [pc, #24]	; (8000804 <delay_us+0x1c>)
 80007ea:	4a07      	ldr	r2, [pc, #28]	; (8000808 <delay_us+0x20>)
 80007ec:	6859      	ldr	r1, [r3, #4]
 80007ee:	6812      	ldr	r2, [r2, #0]
 80007f0:	b510      	push	{r4, lr}
 80007f2:	4c06      	ldr	r4, [pc, #24]	; (800080c <delay_us+0x24>)
 80007f4:	fbb2 f2f4 	udiv	r2, r2, r4
 80007f8:	4350      	muls	r0, r2
 80007fa:	685a      	ldr	r2, [r3, #4]
 80007fc:	1a52      	subs	r2, r2, r1
 80007fe:	4282      	cmp	r2, r0
 8000800:	d3fb      	bcc.n	80007fa <delay_us+0x12>
 8000802:	bd10      	pop	{r4, pc}
 8000804:	e0001000 	.word	0xe0001000
 8000808:	20000000 	.word	0x20000000
 800080c:	000f4240 	.word	0x000f4240

08000810 <delay_ms>:
 8000810:	f44f 737a 	mov.w	r3, #1000	; 0x3e8
 8000814:	4358      	muls	r0, r3
 8000816:	f7ff bfe7 	b.w	80007e8 <delay_us>
	...

0800081c <spi_transmitchar>:
 800081c:	4b03      	ldr	r3, [pc, #12]	; (800082c <spi_transmitchar+0x10>)
 800081e:	7318      	strb	r0, [r3, #12]
 8000820:	689a      	ldr	r2, [r3, #8]
 8000822:	07d2      	lsls	r2, r2, #31
 8000824:	d5fc      	bpl.n	8000820 <spi_transmitchar+0x4>
 8000826:	7b18      	ldrb	r0, [r3, #12]
 8000828:	4770      	bx	lr
 800082a:	bf00      	nop
 800082c:	40013000 	.word	0x40013000

08000830 <spi_transfer>:
 8000830:	b538      	push	{r3, r4, r5, lr}
 8000832:	1e44      	subs	r4, r0, #1
 8000834:	188d      	adds	r5, r1, r2
 8000836:	42a9      	cmp	r1, r5
 8000838:	d006      	beq.n	8000848 <spi_transfer+0x18>
 800083a:	f814 0f01 	ldrb.w	r0, [r4, #1]!
 800083e:	f7ff ffed 	bl	800081c <spi_transmitchar>
 8000842:	f801 0b01 	strb.w	r0, [r1], #1
 8000846:	e7f6      	b.n	8000836 <spi_transfer+0x6>
 8000848:	bd38      	pop	{r3, r4, r5, pc}

0800084a <_ZN8SxDriver11SpiTransferEPhS0_h>:
 800084a:	4608      	mov	r0, r1
 800084c:	4611      	mov	r1, r2
 800084e:	461a      	mov	r2, r3
 8000850:	f7ff bfee 	b.w	8000830 <spi_transfer>

08000854 <spi_init>:
 8000854:	b530      	push	{r4, r5, lr}
 8000856:	b08f      	sub	sp, #60	; 0x3c
 8000858:	2228      	movs	r2, #40	; 0x28
 800085a:	2100      	movs	r1, #0
 800085c:	a804      	add	r0, sp, #16
 800085e:	f002 fe9f 	bl	80035a0 <memset>
 8000862:	f44f 5080 	mov.w	r0, #4096	; 0x1000
 8000866:	f7ff fd1b 	bl	80002a0 <LL_APB2_GRP1_EnableClock>
 800086a:	2303      	movs	r3, #3
 800086c:	2206      	movs	r2, #6
 800086e:	f44f 4100 	mov.w	r1, #32768	; 0x8000
 8000872:	f04f 4090 	mov.w	r0, #1207959552	; 0x48000000
 8000876:	f7ff fe8c 	bl	8000592 <gpio_init>
 800087a:	f04f 4390 	mov.w	r3, #1207959552	; 0x48000000
 800087e:	2406      	movs	r4, #6
 8000880:	2501      	movs	r5, #1
 8000882:	f44f 4200 	mov.w	r2, #32768	; 0x8000
 8000886:	619a      	str	r2, [r3, #24]
 8000888:	4824      	ldr	r0, [pc, #144]	; (800091c <spi_init+0xc8>)
 800088a:	e9cd 4500 	strd	r4, r5, [sp]
 800088e:	2303      	movs	r3, #3
 8000890:	220a      	movs	r2, #10
 8000892:	2108      	movs	r1, #8
 8000894:	f7ff fdf4 	bl	8000480 <_gpio_init>
 8000898:	e9cd 4500 	strd	r4, r5, [sp]
 800089c:	481f      	ldr	r0, [pc, #124]	; (800091c <spi_init+0xc8>)
 800089e:	2303      	movs	r3, #3
 80008a0:	220a      	movs	r2, #10
 80008a2:	2120      	movs	r1, #32
 80008a4:	f7ff fdec 	bl	8000480 <_gpio_init>
 80008a8:	2303      	movs	r3, #3
 80008aa:	461a      	mov	r2, r3
 80008ac:	e9cd 4500 	strd	r4, r5, [sp]
 80008b0:	481a      	ldr	r0, [pc, #104]	; (800091c <spi_init+0xc8>)
 80008b2:	4c1b      	ldr	r4, [pc, #108]	; (8000920 <spi_init+0xcc>)
 80008b4:	2110      	movs	r1, #16
 80008b6:	f7ff fde3 	bl	8000480 <_gpio_init>
 80008ba:	2300      	movs	r3, #0
 80008bc:	f44f 7282 	mov.w	r2, #260	; 0x104
 80008c0:	e9cd 3204 	strd	r3, r2, [sp, #16]
 80008c4:	f44f 62e0 	mov.w	r2, #1792	; 0x700
 80008c8:	e9cd 2306 	strd	r2, r3, [sp, #24]
 80008cc:	f44f 7100 	mov.w	r1, #512	; 0x200
 80008d0:	2210      	movs	r2, #16
 80008d2:	e9cd 1209 	strd	r1, r2, [sp, #36]	; 0x24
 80008d6:	e9cd 330b 	strd	r3, r3, [sp, #44]	; 0x2c
 80008da:	9308      	str	r3, [sp, #32]
 80008dc:	eb0d 0102 	add.w	r1, sp, r2
 80008e0:	2307      	movs	r3, #7
 80008e2:	4620      	mov	r0, r4
 80008e4:	930d      	str	r3, [sp, #52]	; 0x34
 80008e6:	f002 f927 	bl	8002b38 <LL_SPI_Init>
 80008ea:	6863      	ldr	r3, [r4, #4]
 80008ec:	f023 0310 	bic.w	r3, r3, #16
 80008f0:	6063      	str	r3, [r4, #4]
 80008f2:	6863      	ldr	r3, [r4, #4]
 80008f4:	f023 0308 	bic.w	r3, r3, #8
 80008f8:	6063      	str	r3, [r4, #4]
 80008fa:	6823      	ldr	r3, [r4, #0]
 80008fc:	f043 0340 	orr.w	r3, r3, #64	; 0x40
 8000900:	6023      	str	r3, [r4, #0]
 8000902:	68a3      	ldr	r3, [r4, #8]
 8000904:	079b      	lsls	r3, r3, #30
 8000906:	d5fc      	bpl.n	8000902 <spi_init+0xae>
 8000908:	7b23      	ldrb	r3, [r4, #12]
 800090a:	f8ad 300e 	strh.w	r3, [sp, #14]
 800090e:	f8bd 300e 	ldrh.w	r3, [sp, #14]
 8000912:	b29b      	uxth	r3, r3
 8000914:	f8ad 300e 	strh.w	r3, [sp, #14]
 8000918:	b00f      	add	sp, #60	; 0x3c
 800091a:	bd30      	pop	{r4, r5, pc}
 800091c:	48000400 	.word	0x48000400
 8000920:	40013000 	.word	0x40013000

08000924 <USART2_IRQHandler>:
 8000924:	4b19      	ldr	r3, [pc, #100]	; (800098c <USART2_IRQHandler+0x68>)
 8000926:	b410      	push	{r4}
 8000928:	69dc      	ldr	r4, [r3, #28]
 800092a:	06a2      	lsls	r2, r4, #26
 800092c:	d50f      	bpl.n	800094e <USART2_IRQHandler+0x2a>
 800092e:	4818      	ldr	r0, [pc, #96]	; (8000990 <USART2_IRQHandler+0x6c>)
 8000930:	4918      	ldr	r1, [pc, #96]	; (8000994 <USART2_IRQHandler+0x70>)
 8000932:	8c9a      	ldrh	r2, [r3, #36]	; 0x24
 8000934:	8803      	ldrh	r3, [r0, #0]
 8000936:	8809      	ldrh	r1, [r1, #0]
 8000938:	3301      	adds	r3, #1
 800093a:	f3c3 0308 	ubfx	r3, r3, #0, #9
 800093e:	b289      	uxth	r1, r1
 8000940:	4299      	cmp	r1, r3
 8000942:	b292      	uxth	r2, r2
 8000944:	bf1f      	itttt	ne
 8000946:	4914      	ldrne	r1, [pc, #80]	; (8000998 <USART2_IRQHandler+0x74>)
 8000948:	b2d2      	uxtbne	r2, r2
 800094a:	54ca      	strbne	r2, [r1, r3]
 800094c:	8003      	strhne	r3, [r0, #0]
 800094e:	480f      	ldr	r0, [pc, #60]	; (800098c <USART2_IRQHandler+0x68>)
 8000950:	231f      	movs	r3, #31
 8000952:	6203      	str	r3, [r0, #32]
 8000954:	0623      	lsls	r3, r4, #24
 8000956:	d511      	bpl.n	800097c <USART2_IRQHandler+0x58>
 8000958:	4b10      	ldr	r3, [pc, #64]	; (800099c <USART2_IRQHandler+0x78>)
 800095a:	4a11      	ldr	r2, [pc, #68]	; (80009a0 <USART2_IRQHandler+0x7c>)
 800095c:	8819      	ldrh	r1, [r3, #0]
 800095e:	8813      	ldrh	r3, [r2, #0]
 8000960:	b289      	uxth	r1, r1
 8000962:	b29b      	uxth	r3, r3
 8000964:	4299      	cmp	r1, r3
 8000966:	d00c      	beq.n	8000982 <USART2_IRQHandler+0x5e>
 8000968:	8813      	ldrh	r3, [r2, #0]
 800096a:	3301      	adds	r3, #1
 800096c:	f3c3 0308 	ubfx	r3, r3, #0, #9
 8000970:	8013      	strh	r3, [r2, #0]
 8000972:	8813      	ldrh	r3, [r2, #0]
 8000974:	4a0b      	ldr	r2, [pc, #44]	; (80009a4 <USART2_IRQHandler+0x80>)
 8000976:	b29b      	uxth	r3, r3
 8000978:	5cd3      	ldrb	r3, [r2, r3]
 800097a:	8503      	strh	r3, [r0, #40]	; 0x28
 800097c:	f85d 4b04 	ldr.w	r4, [sp], #4
 8000980:	4770      	bx	lr
 8000982:	f85d 4b04 	ldr.w	r4, [sp], #4
 8000986:	f7ff bca2 	b.w	80002ce <LL_USART_DisableIT_TXE>
 800098a:	bf00      	nop
 800098c:	40004400 	.word	0x40004400
 8000990:	20000692 	.word	0x20000692
 8000994:	20000690 	.word	0x20000690
 8000998:	20000490 	.word	0x20000490
 800099c:	20000896 	.word	0x20000896
 80009a0:	20000894 	.word	0x20000894
 80009a4:	20000694 	.word	0x20000694

080009a8 <uartb_putc>:
 80009a8:	490a      	ldr	r1, [pc, #40]	; (80009d4 <uartb_putc+0x2c>)
 80009aa:	4a0b      	ldr	r2, [pc, #44]	; (80009d8 <uartb_putc+0x30>)
 80009ac:	b508      	push	{r3, lr}
 80009ae:	880b      	ldrh	r3, [r1, #0]
 80009b0:	8812      	ldrh	r2, [r2, #0]
 80009b2:	3301      	adds	r3, #1
 80009b4:	f3c3 0308 	ubfx	r3, r3, #0, #9
 80009b8:	b292      	uxth	r2, r2
 80009ba:	429a      	cmp	r2, r3
 80009bc:	d007      	beq.n	80009ce <uartb_putc+0x26>
 80009be:	4a07      	ldr	r2, [pc, #28]	; (80009dc <uartb_putc+0x34>)
 80009c0:	54d0      	strb	r0, [r2, r3]
 80009c2:	4807      	ldr	r0, [pc, #28]	; (80009e0 <uartb_putc+0x38>)
 80009c4:	800b      	strh	r3, [r1, #0]
 80009c6:	f7ff fc79 	bl	80002bc <LL_USART_EnableIT_TXE>
 80009ca:	2001      	movs	r0, #1
 80009cc:	bd08      	pop	{r3, pc}
 80009ce:	2000      	movs	r0, #0
 80009d0:	e7fc      	b.n	80009cc <uartb_putc+0x24>
 80009d2:	bf00      	nop
 80009d4:	20000896 	.word	0x20000896
 80009d8:	20000894 	.word	0x20000894
 80009dc:	20000694 	.word	0x20000694
 80009e0:	40004400 	.word	0x40004400

080009e4 <uartb_getc>:
 80009e4:	4808      	ldr	r0, [pc, #32]	; (8000a08 <uartb_getc+0x24>)
 80009e6:	4a09      	ldr	r2, [pc, #36]	; (8000a0c <uartb_getc+0x28>)
 80009e8:	8801      	ldrh	r1, [r0, #0]
 80009ea:	8813      	ldrh	r3, [r2, #0]
 80009ec:	b289      	uxth	r1, r1
 80009ee:	b29b      	uxth	r3, r3
 80009f0:	4299      	cmp	r1, r3
 80009f2:	d0f9      	beq.n	80009e8 <uartb_getc+0x4>
 80009f4:	8813      	ldrh	r3, [r2, #0]
 80009f6:	3301      	adds	r3, #1
 80009f8:	f3c3 0308 	ubfx	r3, r3, #0, #9
 80009fc:	8013      	strh	r3, [r2, #0]
 80009fe:	8813      	ldrh	r3, [r2, #0]
 8000a00:	4a03      	ldr	r2, [pc, #12]	; (8000a10 <uartb_getc+0x2c>)
 8000a02:	b29b      	uxth	r3, r3
 8000a04:	5cd0      	ldrb	r0, [r2, r3]
 8000a06:	4770      	bx	lr
 8000a08:	20000692 	.word	0x20000692
 8000a0c:	20000690 	.word	0x20000690
 8000a10:	20000490 	.word	0x20000490

08000a14 <uartb_init_isroff>:
 8000a14:	b570      	push	{r4, r5, r6, lr}
 8000a16:	4c2e      	ldr	r4, [pc, #184]	; (8000ad0 <uartb_init_isroff+0xbc>)
 8000a18:	b08a      	sub	sp, #40	; 0x28
 8000a1a:	221c      	movs	r2, #28
 8000a1c:	2100      	movs	r1, #0
 8000a1e:	a803      	add	r0, sp, #12
 8000a20:	f002 fdbe 	bl	80035a0 <memset>
 8000a24:	6823      	ldr	r3, [r4, #0]
 8000a26:	f023 0301 	bic.w	r3, r3, #1
 8000a2a:	2508      	movs	r5, #8
 8000a2c:	2601      	movs	r6, #1
 8000a2e:	6023      	str	r3, [r4, #0]
 8000a30:	f44f 3000 	mov.w	r0, #131072	; 0x20000
 8000a34:	f7ff fc26 	bl	8000284 <LL_APB1_GRP1_EnableClock>
 8000a38:	e9cd 5600 	strd	r5, r6, [sp]
 8000a3c:	2303      	movs	r3, #3
 8000a3e:	220a      	movs	r2, #10
 8000a40:	2104      	movs	r1, #4
 8000a42:	f04f 4090 	mov.w	r0, #1207959552	; 0x48000000
 8000a46:	f7ff fd1b 	bl	8000480 <_gpio_init>
 8000a4a:	2303      	movs	r3, #3
 8000a4c:	461a      	mov	r2, r3
 8000a4e:	e9cd 5600 	strd	r5, r6, [sp]
 8000a52:	4629      	mov	r1, r5
 8000a54:	f04f 4090 	mov.w	r0, #1207959552	; 0x48000000
 8000a58:	f7ff fd12 	bl	8000480 <_gpio_init>
 8000a5c:	2500      	movs	r5, #0
 8000a5e:	f44f 4361 	mov.w	r3, #57600	; 0xe100
 8000a62:	e9cd 3503 	strd	r3, r5, [sp, #12]
 8000a66:	230c      	movs	r3, #12
 8000a68:	eb0d 0103 	add.w	r1, sp, r3
 8000a6c:	4620      	mov	r0, r4
 8000a6e:	e9cd 3507 	strd	r3, r5, [sp, #28]
 8000a72:	e9cd 5505 	strd	r5, r5, [sp, #20]
 8000a76:	9509      	str	r5, [sp, #36]	; 0x24
 8000a78:	f002 f9c4 	bl	8002e04 <LL_USART_Init>
 8000a7c:	6863      	ldr	r3, [r4, #4]
 8000a7e:	f423 4390 	bic.w	r3, r3, #18432	; 0x4800
 8000a82:	6063      	str	r3, [r4, #4]
 8000a84:	68a3      	ldr	r3, [r4, #8]
 8000a86:	f023 032a 	bic.w	r3, r3, #42	; 0x2a
 8000a8a:	60a3      	str	r3, [r4, #8]
 8000a8c:	4b11      	ldr	r3, [pc, #68]	; (8000ad4 <uartb_init_isroff+0xc0>)
 8000a8e:	2140      	movs	r1, #64	; 0x40
 8000a90:	22f0      	movs	r2, #240	; 0xf0
 8000a92:	f883 2326 	strb.w	r2, [r3, #806]	; 0x326
 8000a96:	4620      	mov	r0, r4
 8000a98:	6059      	str	r1, [r3, #4]
 8000a9a:	f7ff fc18 	bl	80002ce <LL_USART_DisableIT_TXE>
 8000a9e:	4b0e      	ldr	r3, [pc, #56]	; (8000ad8 <uartb_init_isroff+0xc4>)
 8000aa0:	6221      	str	r1, [r4, #32]
 8000aa2:	801d      	strh	r5, [r3, #0]
 8000aa4:	4b0d      	ldr	r3, [pc, #52]	; (8000adc <uartb_init_isroff+0xc8>)
 8000aa6:	801d      	strh	r5, [r3, #0]
 8000aa8:	f7ff fc74 	bl	8000394 <LL_USART_EnableIT_RXNE.constprop.0>
 8000aac:	4b0c      	ldr	r3, [pc, #48]	; (8000ae0 <uartb_init_isroff+0xcc>)
 8000aae:	801d      	strh	r5, [r3, #0]
 8000ab0:	4b0c      	ldr	r3, [pc, #48]	; (8000ae4 <uartb_init_isroff+0xd0>)
 8000ab2:	801d      	strh	r5, [r3, #0]
 8000ab4:	6863      	ldr	r3, [r4, #4]
 8000ab6:	f423 4390 	bic.w	r3, r3, #18432	; 0x4800
 8000aba:	6063      	str	r3, [r4, #4]
 8000abc:	68a3      	ldr	r3, [r4, #8]
 8000abe:	f023 032a 	bic.w	r3, r3, #42	; 0x2a
 8000ac2:	60a3      	str	r3, [r4, #8]
 8000ac4:	6823      	ldr	r3, [r4, #0]
 8000ac6:	4333      	orrs	r3, r6
 8000ac8:	6023      	str	r3, [r4, #0]
 8000aca:	b00a      	add	sp, #40	; 0x28
 8000acc:	bd70      	pop	{r4, r5, r6, pc}
 8000ace:	bf00      	nop
 8000ad0:	40004400 	.word	0x40004400
 8000ad4:	e000e100 	.word	0xe000e100
 8000ad8:	20000894 	.word	0x20000894
 8000adc:	20000896 	.word	0x20000896
 8000ae0:	20000690 	.word	0x20000690
 8000ae4:	20000692 	.word	0x20000692

08000ae8 <uartb_init>:
 8000ae8:	b508      	push	{r3, lr}
 8000aea:	f7ff ff93 	bl	8000a14 <uartb_init_isroff>
 8000aee:	e8bd 4008 	ldmia.w	sp!, {r3, lr}
 8000af2:	f7ff bc4f 	b.w	8000394 <LL_USART_EnableIT_RXNE.constprop.0>
	...

08000af8 <USART3_IRQHandler>:
 8000af8:	480c      	ldr	r0, [pc, #48]	; (8000b2c <USART3_IRQHandler+0x34>)
 8000afa:	69c3      	ldr	r3, [r0, #28]
 8000afc:	061b      	lsls	r3, r3, #24
 8000afe:	d514      	bpl.n	8000b2a <USART3_IRQHandler+0x32>
 8000b00:	4b0b      	ldr	r3, [pc, #44]	; (8000b30 <USART3_IRQHandler+0x38>)
 8000b02:	4a0c      	ldr	r2, [pc, #48]	; (8000b34 <USART3_IRQHandler+0x3c>)
 8000b04:	8819      	ldrh	r1, [r3, #0]
 8000b06:	8813      	ldrh	r3, [r2, #0]
 8000b08:	b289      	uxth	r1, r1
 8000b0a:	b29b      	uxth	r3, r3
 8000b0c:	4299      	cmp	r1, r3
 8000b0e:	d00a      	beq.n	8000b26 <USART3_IRQHandler+0x2e>
 8000b10:	8813      	ldrh	r3, [r2, #0]
 8000b12:	3301      	adds	r3, #1
 8000b14:	f3c3 030b 	ubfx	r3, r3, #0, #12
 8000b18:	8013      	strh	r3, [r2, #0]
 8000b1a:	8813      	ldrh	r3, [r2, #0]
 8000b1c:	4a06      	ldr	r2, [pc, #24]	; (8000b38 <USART3_IRQHandler+0x40>)
 8000b1e:	b29b      	uxth	r3, r3
 8000b20:	5cd3      	ldrb	r3, [r2, r3]
 8000b22:	8503      	strh	r3, [r0, #40]	; 0x28
 8000b24:	4770      	bx	lr
 8000b26:	f7ff bbd2 	b.w	80002ce <LL_USART_DisableIT_TXE>
 8000b2a:	4770      	bx	lr
 8000b2c:	40004800 	.word	0x40004800
 8000b30:	2000189a 	.word	0x2000189a
 8000b34:	20001898 	.word	0x20001898
 8000b38:	20000898 	.word	0x20000898

08000b3c <uartc_putc>:
 8000b3c:	490a      	ldr	r1, [pc, #40]	; (8000b68 <uartc_putc+0x2c>)
 8000b3e:	4a0b      	ldr	r2, [pc, #44]	; (8000b6c <uartc_putc+0x30>)
 8000b40:	b508      	push	{r3, lr}
 8000b42:	880b      	ldrh	r3, [r1, #0]
 8000b44:	8812      	ldrh	r2, [r2, #0]
 8000b46:	3301      	adds	r3, #1
 8000b48:	f3c3 030b 	ubfx	r3, r3, #0, #12
 8000b4c:	b292      	uxth	r2, r2
 8000b4e:	429a      	cmp	r2, r3
 8000b50:	d007      	beq.n	8000b62 <uartc_putc+0x26>
 8000b52:	4a07      	ldr	r2, [pc, #28]	; (8000b70 <uartc_putc+0x34>)
 8000b54:	54d0      	strb	r0, [r2, r3]
 8000b56:	4807      	ldr	r0, [pc, #28]	; (8000b74 <uartc_putc+0x38>)
 8000b58:	800b      	strh	r3, [r1, #0]
 8000b5a:	f7ff fbaf 	bl	80002bc <LL_USART_EnableIT_TXE>
 8000b5e:	2001      	movs	r0, #1
 8000b60:	bd08      	pop	{r3, pc}
 8000b62:	2000      	movs	r0, #0
 8000b64:	e7fc      	b.n	8000b60 <uartc_putc+0x24>
 8000b66:	bf00      	nop
 8000b68:	2000189a 	.word	0x2000189a
 8000b6c:	20001898 	.word	0x20001898
 8000b70:	20000898 	.word	0x20000898
 8000b74:	40004800 	.word	0x40004800

08000b78 <uartc_puts>:
 8000b78:	b510      	push	{r4, lr}
 8000b7a:	1e44      	subs	r4, r0, #1
 8000b7c:	f814 0f01 	ldrb.w	r0, [r4, #1]!
 8000b80:	b110      	cbz	r0, 8000b88 <uartc_puts+0x10>
 8000b82:	f7ff ffdb 	bl	8000b3c <uartc_putc>
 8000b86:	e7f9      	b.n	8000b7c <uartc_puts+0x4>
 8000b88:	bd10      	pop	{r4, pc}
	...

08000b8c <uartc_init_isroff>:
 8000b8c:	b530      	push	{r4, r5, lr}
 8000b8e:	4c27      	ldr	r4, [pc, #156]	; (8000c2c <uartc_init_isroff+0xa0>)
 8000b90:	b08b      	sub	sp, #44	; 0x2c
 8000b92:	221c      	movs	r2, #28
 8000b94:	2100      	movs	r1, #0
 8000b96:	a803      	add	r0, sp, #12
 8000b98:	f002 fd02 	bl	80035a0 <memset>
 8000b9c:	6823      	ldr	r3, [r4, #0]
 8000b9e:	f023 0301 	bic.w	r3, r3, #1
 8000ba2:	6023      	str	r3, [r4, #0]
 8000ba4:	f44f 2080 	mov.w	r0, #262144	; 0x40000
 8000ba8:	f7ff fb6c 	bl	8000284 <LL_APB1_GRP1_EnableClock>
 8000bac:	2308      	movs	r3, #8
 8000bae:	2201      	movs	r2, #1
 8000bb0:	e9cd 3200 	strd	r3, r2, [sp]
 8000bb4:	481e      	ldr	r0, [pc, #120]	; (8000c30 <uartc_init_isroff+0xa4>)
 8000bb6:	220a      	movs	r2, #10
 8000bb8:	2303      	movs	r3, #3
 8000bba:	f44f 7180 	mov.w	r1, #256	; 0x100
 8000bbe:	f7ff fc5f 	bl	8000480 <_gpio_init>
 8000bc2:	2500      	movs	r5, #0
 8000bc4:	f44f 33e1 	mov.w	r3, #115200	; 0x1c200
 8000bc8:	e9cd 3503 	strd	r3, r5, [sp, #12]
 8000bcc:	230c      	movs	r3, #12
 8000bce:	eb0d 0103 	add.w	r1, sp, r3
 8000bd2:	4620      	mov	r0, r4
 8000bd4:	e9cd 3507 	strd	r3, r5, [sp, #28]
 8000bd8:	e9cd 5505 	strd	r5, r5, [sp, #20]
 8000bdc:	9509      	str	r5, [sp, #36]	; 0x24
 8000bde:	f002 f911 	bl	8002e04 <LL_USART_Init>
 8000be2:	6863      	ldr	r3, [r4, #4]
 8000be4:	f423 4390 	bic.w	r3, r3, #18432	; 0x4800
 8000be8:	6063      	str	r3, [r4, #4]
 8000bea:	68a3      	ldr	r3, [r4, #8]
 8000bec:	f023 032a 	bic.w	r3, r3, #42	; 0x2a
 8000bf0:	60a3      	str	r3, [r4, #8]
 8000bf2:	4b10      	ldr	r3, [pc, #64]	; (8000c34 <uartc_init_isroff+0xa8>)
 8000bf4:	22f0      	movs	r2, #240	; 0xf0
 8000bf6:	f883 2327 	strb.w	r2, [r3, #807]	; 0x327
 8000bfa:	2280      	movs	r2, #128	; 0x80
 8000bfc:	605a      	str	r2, [r3, #4]
 8000bfe:	4620      	mov	r0, r4
 8000c00:	f7ff fb65 	bl	80002ce <LL_USART_DisableIT_TXE>
 8000c04:	2340      	movs	r3, #64	; 0x40
 8000c06:	6223      	str	r3, [r4, #32]
 8000c08:	4b0b      	ldr	r3, [pc, #44]	; (8000c38 <uartc_init_isroff+0xac>)
 8000c0a:	801d      	strh	r5, [r3, #0]
 8000c0c:	4b0b      	ldr	r3, [pc, #44]	; (8000c3c <uartc_init_isroff+0xb0>)
 8000c0e:	801d      	strh	r5, [r3, #0]
 8000c10:	6863      	ldr	r3, [r4, #4]
 8000c12:	f423 4390 	bic.w	r3, r3, #18432	; 0x4800
 8000c16:	6063      	str	r3, [r4, #4]
 8000c18:	68a3      	ldr	r3, [r4, #8]
 8000c1a:	f023 032a 	bic.w	r3, r3, #42	; 0x2a
 8000c1e:	60a3      	str	r3, [r4, #8]
 8000c20:	6823      	ldr	r3, [r4, #0]
 8000c22:	f043 0301 	orr.w	r3, r3, #1
 8000c26:	6023      	str	r3, [r4, #0]
 8000c28:	b00b      	add	sp, #44	; 0x2c
 8000c2a:	bd30      	pop	{r4, r5, pc}
 8000c2c:	40004800 	.word	0x40004800
 8000c30:	48000400 	.word	0x48000400
 8000c34:	e000e100 	.word	0xe000e100
 8000c38:	20001898 	.word	0x20001898
 8000c3c:	2000189a 	.word	0x2000189a

08000c40 <USART1_IRQHandler>:
 8000c40:	480c      	ldr	r0, [pc, #48]	; (8000c74 <USART1_IRQHandler+0x34>)
 8000c42:	69c3      	ldr	r3, [r0, #28]
 8000c44:	061b      	lsls	r3, r3, #24
 8000c46:	d514      	bpl.n	8000c72 <USART1_IRQHandler+0x32>
 8000c48:	4b0b      	ldr	r3, [pc, #44]	; (8000c78 <USART1_IRQHandler+0x38>)
 8000c4a:	4a0c      	ldr	r2, [pc, #48]	; (8000c7c <USART1_IRQHandler+0x3c>)
 8000c4c:	8819      	ldrh	r1, [r3, #0]
 8000c4e:	8813      	ldrh	r3, [r2, #0]
 8000c50:	b289      	uxth	r1, r1
 8000c52:	b29b      	uxth	r3, r3
 8000c54:	4299      	cmp	r1, r3
 8000c56:	d00a      	beq.n	8000c6e <USART1_IRQHandler+0x2e>
 8000c58:	8813      	ldrh	r3, [r2, #0]
 8000c5a:	3301      	adds	r3, #1
 8000c5c:	f3c3 0308 	ubfx	r3, r3, #0, #9
 8000c60:	8013      	strh	r3, [r2, #0]
 8000c62:	8813      	ldrh	r3, [r2, #0]
 8000c64:	4a06      	ldr	r2, [pc, #24]	; (8000c80 <USART1_IRQHandler+0x40>)
 8000c66:	b29b      	uxth	r3, r3
 8000c68:	5cd3      	ldrb	r3, [r2, r3]
 8000c6a:	8503      	strh	r3, [r0, #40]	; 0x28
 8000c6c:	4770      	bx	lr
 8000c6e:	f7ff bb2e 	b.w	80002ce <LL_USART_DisableIT_TXE>
 8000c72:	4770      	bx	lr
 8000c74:	40013800 	.word	0x40013800
 8000c78:	2000048e 	.word	0x2000048e
 8000c7c:	2000048c 	.word	0x2000048c
 8000c80:	2000028c 	.word	0x2000028c

08000c84 <uart_putc>:
 8000c84:	490a      	ldr	r1, [pc, #40]	; (8000cb0 <uart_putc+0x2c>)
 8000c86:	4a0b      	ldr	r2, [pc, #44]	; (8000cb4 <uart_putc+0x30>)
 8000c88:	b508      	push	{r3, lr}
 8000c8a:	880b      	ldrh	r3, [r1, #0]
 8000c8c:	8812      	ldrh	r2, [r2, #0]
 8000c8e:	3301      	adds	r3, #1
 8000c90:	f3c3 0308 	ubfx	r3, r3, #0, #9
 8000c94:	b292      	uxth	r2, r2
 8000c96:	429a      	cmp	r2, r3
 8000c98:	d007      	beq.n	8000caa <uart_putc+0x26>
 8000c9a:	4a07      	ldr	r2, [pc, #28]	; (8000cb8 <uart_putc+0x34>)
 8000c9c:	54d0      	strb	r0, [r2, r3]
 8000c9e:	4807      	ldr	r0, [pc, #28]	; (8000cbc <uart_putc+0x38>)
 8000ca0:	800b      	strh	r3, [r1, #0]
 8000ca2:	f7ff fb0b 	bl	80002bc <LL_USART_EnableIT_TXE>
 8000ca6:	2001      	movs	r0, #1
 8000ca8:	bd08      	pop	{r3, pc}
 8000caa:	2000      	movs	r0, #0
 8000cac:	e7fc      	b.n	8000ca8 <uart_putc+0x24>
 8000cae:	bf00      	nop
 8000cb0:	2000048e 	.word	0x2000048e
 8000cb4:	2000048c 	.word	0x2000048c
 8000cb8:	2000028c 	.word	0x2000028c
 8000cbc:	40013800 	.word	0x40013800

08000cc0 <_ZN3Out4putcEc>:
 8000cc0:	4608      	mov	r0, r1
 8000cc2:	f7ff bfdf 	b.w	8000c84 <uart_putc>
	...

08000cc8 <uart_setprotocol>:
 8000cc8:	b570      	push	{r4, r5, r6, lr}
 8000cca:	b088      	sub	sp, #32
 8000ccc:	460c      	mov	r4, r1
 8000cce:	4606      	mov	r6, r0
 8000cd0:	4615      	mov	r5, r2
 8000cd2:	2100      	movs	r1, #0
 8000cd4:	221c      	movs	r2, #28
 8000cd6:	a801      	add	r0, sp, #4
 8000cd8:	f002 fc62 	bl	80035a0 <memset>
 8000cdc:	a801      	add	r0, sp, #4
 8000cde:	f002 f8e7 	bl	8002eb0 <LL_USART_StructInit>
 8000ce2:	2c00      	cmp	r4, #0
 8000ce4:	bf14      	ite	ne
 8000ce6:	f44f 5380 	movne.w	r3, #4096	; 0x1000
 8000cea:	2300      	moveq	r3, #0
 8000cec:	e9cd 3502 	strd	r3, r5, [sp, #8]
 8000cf0:	9404      	str	r4, [sp, #16]
 8000cf2:	230c      	movs	r3, #12
 8000cf4:	4c08      	ldr	r4, [pc, #32]	; (8000d18 <uart_setprotocol+0x50>)
 8000cf6:	9601      	str	r6, [sp, #4]
 8000cf8:	9305      	str	r3, [sp, #20]
 8000cfa:	6823      	ldr	r3, [r4, #0]
 8000cfc:	f023 0301 	bic.w	r3, r3, #1
 8000d00:	6023      	str	r3, [r4, #0]
 8000d02:	a901      	add	r1, sp, #4
 8000d04:	4620      	mov	r0, r4
 8000d06:	f002 f87d 	bl	8002e04 <LL_USART_Init>
 8000d0a:	6823      	ldr	r3, [r4, #0]
 8000d0c:	f043 0301 	orr.w	r3, r3, #1
 8000d10:	6023      	str	r3, [r4, #0]
 8000d12:	b008      	add	sp, #32
 8000d14:	bd70      	pop	{r4, r5, r6, pc}
 8000d16:	bf00      	nop
 8000d18:	40013800 	.word	0x40013800

08000d1c <_ZN3Out11config_sbusEv>:
 8000d1c:	b508      	push	{r3, lr}
 8000d1e:	f44f 5200 	mov.w	r2, #8192	; 0x2000
 8000d22:	4804      	ldr	r0, [pc, #16]	; (8000d34 <_ZN3Out11config_sbusEv+0x18>)
 8000d24:	f44f 6180 	mov.w	r1, #1024	; 0x400
 8000d28:	f7ff ffce 	bl	8000cc8 <uart_setprotocol>
 8000d2c:	4b02      	ldr	r3, [pc, #8]	; (8000d38 <_ZN3Out11config_sbusEv+0x1c>)
 8000d2e:	2240      	movs	r2, #64	; 0x40
 8000d30:	619a      	str	r2, [r3, #24]
 8000d32:	bd08      	pop	{r3, pc}
 8000d34:	000186a0 	.word	0x000186a0
 8000d38:	48001400 	.word	0x48001400

08000d3c <uart_init_isroff>:
 8000d3c:	b530      	push	{r4, r5, lr}
 8000d3e:	4c27      	ldr	r4, [pc, #156]	; (8000ddc <uart_init_isroff+0xa0>)
 8000d40:	b08b      	sub	sp, #44	; 0x2c
 8000d42:	221c      	movs	r2, #28
 8000d44:	2100      	movs	r1, #0
 8000d46:	a803      	add	r0, sp, #12
 8000d48:	f002 fc2a 	bl	80035a0 <memset>
 8000d4c:	6823      	ldr	r3, [r4, #0]
 8000d4e:	f023 0301 	bic.w	r3, r3, #1
 8000d52:	6023      	str	r3, [r4, #0]
 8000d54:	f44f 4080 	mov.w	r0, #16384	; 0x4000
 8000d58:	f7ff faa2 	bl	80002a0 <LL_APB2_GRP1_EnableClock>
 8000d5c:	2308      	movs	r3, #8
 8000d5e:	2201      	movs	r2, #1
 8000d60:	e9cd 3200 	strd	r3, r2, [sp]
 8000d64:	f44f 7100 	mov.w	r1, #512	; 0x200
 8000d68:	220a      	movs	r2, #10
 8000d6a:	2303      	movs	r3, #3
 8000d6c:	f04f 4090 	mov.w	r0, #1207959552	; 0x48000000
 8000d70:	f7ff fb86 	bl	8000480 <_gpio_init>
 8000d74:	4b1a      	ldr	r3, [pc, #104]	; (8000de0 <uart_init_isroff+0xa4>)
 8000d76:	2500      	movs	r5, #0
 8000d78:	e9cd 3503 	strd	r3, r5, [sp, #12]
 8000d7c:	230c      	movs	r3, #12
 8000d7e:	eb0d 0103 	add.w	r1, sp, r3
 8000d82:	4620      	mov	r0, r4
 8000d84:	e9cd 3507 	strd	r3, r5, [sp, #28]
 8000d88:	e9cd 5505 	strd	r5, r5, [sp, #20]
 8000d8c:	9509      	str	r5, [sp, #36]	; 0x24
 8000d8e:	f002 f839 	bl	8002e04 <LL_USART_Init>
 8000d92:	6863      	ldr	r3, [r4, #4]
 8000d94:	f423 4390 	bic.w	r3, r3, #18432	; 0x4800
 8000d98:	6063      	str	r3, [r4, #4]
 8000d9a:	68a3      	ldr	r3, [r4, #8]
 8000d9c:	f023 032a 	bic.w	r3, r3, #42	; 0x2a
 8000da0:	60a3      	str	r3, [r4, #8]
 8000da2:	4b10      	ldr	r3, [pc, #64]	; (8000de4 <uart_init_isroff+0xa8>)
 8000da4:	22e0      	movs	r2, #224	; 0xe0
 8000da6:	f883 2325 	strb.w	r2, [r3, #805]	; 0x325
 8000daa:	2220      	movs	r2, #32
 8000dac:	605a      	str	r2, [r3, #4]
 8000dae:	4620      	mov	r0, r4
 8000db0:	f7ff fa8d 	bl	80002ce <LL_USART_DisableIT_TXE>
 8000db4:	2340      	movs	r3, #64	; 0x40
 8000db6:	6223      	str	r3, [r4, #32]
 8000db8:	4b0b      	ldr	r3, [pc, #44]	; (8000de8 <uart_init_isroff+0xac>)
 8000dba:	801d      	strh	r5, [r3, #0]
 8000dbc:	4b0b      	ldr	r3, [pc, #44]	; (8000dec <uart_init_isroff+0xb0>)
 8000dbe:	801d      	strh	r5, [r3, #0]
 8000dc0:	6863      	ldr	r3, [r4, #4]
 8000dc2:	f423 4390 	bic.w	r3, r3, #18432	; 0x4800
 8000dc6:	6063      	str	r3, [r4, #4]
 8000dc8:	68a3      	ldr	r3, [r4, #8]
 8000dca:	f023 032a 	bic.w	r3, r3, #42	; 0x2a
 8000dce:	60a3      	str	r3, [r4, #8]
 8000dd0:	6823      	ldr	r3, [r4, #0]
 8000dd2:	f043 0301 	orr.w	r3, r3, #1
 8000dd6:	6023      	str	r3, [r4, #0]
 8000dd8:	b00b      	add	sp, #44	; 0x2c
 8000dda:	bd30      	pop	{r4, r5, pc}
 8000ddc:	40013800 	.word	0x40013800
 8000de0:	000186a0 	.word	0x000186a0
 8000de4:	e000e100 	.word	0xe000e100
 8000de8:	2000048c 	.word	0x2000048c
 8000dec:	2000048e 	.word	0x2000048e

08000df0 <_ZN8SxDriver9ConfigureEv>:
 8000df0:	b537      	push	{r0, r1, r2, r4, r5, lr}
 8000df2:	2101      	movs	r1, #1
 8000df4:	4604      	mov	r4, r0
 8000df6:	f002 fa35 	bl	8003264 <_ZN12SxDriverBase13SetPacketTypeEh>
 8000dfa:	2200      	movs	r2, #0
 8000dfc:	4611      	mov	r1, r2
 8000dfe:	4620      	mov	r0, r4
 8000e00:	f002 fa4d 	bl	800329e <_ZN12SxDriverBase20SetBufferBaseAddressEhh>
 8000e04:	4620      	mov	r0, r4
 8000e06:	2101      	movs	r1, #1
 8000e08:	f002 fb40 	bl	800348c <_ZN12SxDriverBase9SetAutoFsEh>
 8000e0c:	4620      	mov	r0, r4
 8000e0e:	2101      	movs	r1, #1
 8000e10:	f002 fb56 	bl	80034c0 <_ZN12SxDriverBase14SetLnaGainModeEh>
 8000e14:	4b16      	ldr	r3, [pc, #88]	; (8000e70 <_ZN8SxDriver9ConfigureEv+0x80>)
 8000e16:	60a3      	str	r3, [r4, #8]
 8000e18:	4620      	mov	r0, r4
 8000e1a:	2305      	movs	r3, #5
 8000e1c:	2218      	movs	r2, #24
 8000e1e:	2150      	movs	r1, #80	; 0x50
 8000e20:	f002 fa4a 	bl	80032b8 <_ZN12SxDriverBase19SetModulationParamsEhhh>
 8000e24:	2500      	movs	r5, #0
 8000e26:	2340      	movs	r3, #64	; 0x40
 8000e28:	e9cd 5300 	strd	r5, r3, [sp]
 8000e2c:	4620      	mov	r0, r4
 8000e2e:	235a      	movs	r3, #90	; 0x5a
 8000e30:	2280      	movs	r2, #128	; 0x80
 8000e32:	210c      	movs	r1, #12
 8000e34:	f002 fa72 	bl	800331c <_ZN12SxDriverBase15SetPacketParamsEhhhhh>
 8000e38:	4629      	mov	r1, r5
 8000e3a:	4620      	mov	r0, r4
 8000e3c:	2220      	movs	r2, #32
 8000e3e:	f002 fabc 	bl	80033ba <_ZN12SxDriverBase11SetTxParamsEhh>
 8000e42:	462b      	mov	r3, r5
 8000e44:	f244 0203 	movw	r2, #16387	; 0x4003
 8000e48:	4620      	mov	r0, r4
 8000e4a:	9500      	str	r5, [sp, #0]
 8000e4c:	f64f 71ff 	movw	r1, #65535	; 0xffff
 8000e50:	f002 fa80 	bl	8003354 <_ZN12SxDriverBase15SetDioIrqParamsEtttt>
 8000e54:	f64f 71ff 	movw	r1, #65535	; 0xffff
 8000e58:	4620      	mov	r0, r4
 8000e5a:	f002 faa2 	bl	80033a2 <_ZN12SxDriverBase14ClearIrqStatusEt>
 8000e5e:	4620      	mov	r0, r4
 8000e60:	f002 fb20 	bl	80034a4 <_ZN12SxDriverBase5SetFsEv>
 8000e64:	207d      	movs	r0, #125	; 0x7d
 8000e66:	b003      	add	sp, #12
 8000e68:	e8bd 4030 	ldmia.w	sp!, {r4, r5, lr}
 8000e6c:	f7ff bcbc 	b.w	80007e8 <delay_us>
 8000e70:	080037b8 	.word	0x080037b8

08000e74 <_ZN13LqCounterBase4InitEh>:
 8000e74:	b530      	push	{r4, r5, lr}
 8000e76:	2201      	movs	r2, #1
 8000e78:	f1a1 0321 	sub.w	r3, r1, #33	; 0x21
 8000e7c:	f1c1 0421 	rsb	r4, r1, #33	; 0x21
 8000e80:	fa22 f404 	lsr.w	r4, r2, r4
 8000e84:	1e4d      	subs	r5, r1, #1
 8000e86:	fa02 f303 	lsl.w	r3, r2, r3
 8000e8a:	4323      	orrs	r3, r4
 8000e8c:	40aa      	lsls	r2, r5
 8000e8e:	f04f 34ff 	mov.w	r4, #4294967295
 8000e92:	f04f 35ff 	mov.w	r5, #4294967295
 8000e96:	e9c0 2302 	strd	r2, r3, [r0, #8]
 8000e9a:	e9c0 4504 	strd	r4, r5, [r0, #16]
 8000e9e:	e9c0 2306 	strd	r2, r3, [r0, #24]
 8000ea2:	7001      	strb	r1, [r0, #0]
 8000ea4:	f880 1020 	strb.w	r1, [r0, #32]
 8000ea8:	bd30      	pop	{r4, r5, pc}

08000eaa <_ZN13LqCounterBase4NextEv>:
 8000eaa:	e92d 47f0 	stmdb	sp!, {r4, r5, r6, r7, r8, r9, sl, lr}
 8000eae:	e9d0 8902 	ldrd	r8, r9, [r0, #8]
 8000eb2:	e9d0 ec04 	ldrd	lr, ip, [r0, #16]
 8000eb6:	2201      	movs	r2, #1
 8000eb8:	2300      	movs	r3, #0
 8000eba:	2100      	movs	r1, #0
 8000ebc:	4599      	cmp	r9, r3
 8000ebe:	bf08      	it	eq
 8000ec0:	4590      	cmpeq	r8, r2
 8000ec2:	d30b      	bcc.n	8000edc <_ZN13LqCounterBase4NextEv+0x32>
 8000ec4:	ea02 060e 	and.w	r6, r2, lr
 8000ec8:	ea03 070c 	and.w	r7, r3, ip
 8000ecc:	ea56 0a07 	orrs.w	sl, r6, r7
 8000ed0:	bf1c      	itt	ne
 8000ed2:	3101      	addne	r1, #1
 8000ed4:	b289      	uxthne	r1, r1
 8000ed6:	1892      	adds	r2, r2, r2
 8000ed8:	415b      	adcs	r3, r3
 8000eda:	e7ef      	b.n	8000ebc <_ZN13LqCounterBase4NextEv+0x12>
 8000edc:	e9d0 3206 	ldrd	r3, r2, [r0, #24]
 8000ee0:	18dc      	adds	r4, r3, r3
 8000ee2:	eb42 0502 	adc.w	r5, r2, r2
 8000ee6:	45a9      	cmp	r9, r5
 8000ee8:	bf08      	it	eq
 8000eea:	45a0      	cmpeq	r8, r4
 8000eec:	bf3b      	ittet	cc
 8000eee:	2201      	movcc	r2, #1
 8000ef0:	2300      	movcc	r3, #0
 8000ef2:	e9c0 4506 	strdcs	r4, r5, [r0, #24]
 8000ef6:	e9c0 2306 	strdcc	r2, r3, [r0, #24]
 8000efa:	e9d0 2306 	ldrd	r2, r3, [r0, #24]
 8000efe:	ea2e 0202 	bic.w	r2, lr, r2
 8000f02:	ea2c 0303 	bic.w	r3, ip, r3
 8000f06:	e9c0 2304 	strd	r2, r3, [r0, #16]
 8000f0a:	f880 1020 	strb.w	r1, [r0, #32]
 8000f0e:	e8bd 87f0 	ldmia.w	sp!, {r4, r5, r6, r7, r8, r9, sl, pc}
	...

08000f14 <HAL_IncTick>:
 8000f14:	4a04      	ldr	r2, [pc, #16]	; (8000f28 <HAL_IncTick+0x14>)
 8000f16:	4b05      	ldr	r3, [pc, #20]	; (8000f2c <HAL_IncTick+0x18>)
 8000f18:	6811      	ldr	r1, [r2, #0]
 8000f1a:	781b      	ldrb	r3, [r3, #0]
 8000f1c:	440b      	add	r3, r1
 8000f1e:	6013      	str	r3, [r2, #0]
 8000f20:	4b03      	ldr	r3, [pc, #12]	; (8000f30 <HAL_IncTick+0x1c>)
 8000f22:	2201      	movs	r2, #1
 8000f24:	701a      	strb	r2, [r3, #0]
 8000f26:	4770      	bx	lr
 8000f28:	2000189c 	.word	0x2000189c
 8000f2c:	20000004 	.word	0x20000004
 8000f30:	2000009a 	.word	0x2000009a

08000f34 <_Z14check_tx_frameP8tTxFrame>:
 8000f34:	b573      	push	{r0, r1, r4, r5, r6, lr}
 8000f36:	8804      	ldrh	r4, [r0, #0]
 8000f38:	7902      	ldrb	r2, [r0, #4]
 8000f3a:	f244 2381 	movw	r3, #17025	; 0x4281
 8000f3e:	1ae4      	subs	r4, r4, r3
 8000f40:	7883      	ldrb	r3, [r0, #2]
 8000f42:	bf18      	it	ne
 8000f44:	2401      	movne	r4, #1
 8000f46:	f013 0ff0 	tst.w	r3, #240	; 0xf0
 8000f4a:	7943      	ldrb	r3, [r0, #5]
 8000f4c:	f003 031f 	and.w	r3, r3, #31
 8000f50:	ea4f 0383 	mov.w	r3, r3, lsl #2
 8000f54:	ea43 1392 	orr.w	r3, r3, r2, lsr #6
 8000f58:	bf18      	it	ne
 8000f5a:	f044 0402 	orrne.w	r4, r4, #2
 8000f5e:	2b40      	cmp	r3, #64	; 0x40
 8000f60:	4605      	mov	r5, r0
 8000f62:	d905      	bls.n	8000f70 <_Z14check_tx_frameP8tTxFrame+0x3c>
 8000f64:	f044 0404 	orr.w	r4, r4, #4
 8000f68:	b2a4      	uxth	r4, r4
 8000f6a:	4620      	mov	r0, r4
 8000f6c:	b002      	add	sp, #8
 8000f6e:	bd70      	pop	{r4, r5, r6, pc}
 8000f70:	2c00      	cmp	r4, #0
 8000f72:	d1fa      	bne.n	8000f6a <_Z14check_tx_frameP8tTxFrame+0x36>
 8000f74:	4601      	mov	r1, r0
 8000f76:	f64f 76ff 	movw	r6, #65535	; 0xffff
 8000f7a:	220c      	movs	r2, #12
 8000f7c:	f10d 0006 	add.w	r0, sp, #6
 8000f80:	f8ad 6006 	strh.w	r6, [sp, #6]
 8000f84:	f7ff f9ad 	bl	80002e2 <fmav_crc_accumulate_buf>
 8000f88:	f89d 3006 	ldrb.w	r3, [sp, #6]
 8000f8c:	7b2a      	ldrb	r2, [r5, #12]
 8000f8e:	f8ad 6006 	strh.w	r6, [sp, #6]
 8000f92:	429a      	cmp	r2, r3
 8000f94:	bf18      	it	ne
 8000f96:	2408      	movne	r4, #8
 8000f98:	4629      	mov	r1, r5
 8000f9a:	2258      	movs	r2, #88	; 0x58
 8000f9c:	f10d 0006 	add.w	r0, sp, #6
 8000fa0:	f7ff f99f 	bl	80002e2 <fmav_crc_accumulate_buf>
 8000fa4:	f8b5 2058 	ldrh.w	r2, [r5, #88]	; 0x58
 8000fa8:	f8bd 3006 	ldrh.w	r3, [sp, #6]
 8000fac:	429a      	cmp	r2, r3
 8000fae:	bf1c      	itt	ne
 8000fb0:	f044 0410 	orrne.w	r4, r4, #16
 8000fb4:	b2a4      	uxthne	r4, r4
 8000fb6:	e7d8      	b.n	8000f6a <_Z14check_tx_frameP8tTxFrame+0x36>

08000fb8 <_Z26rcdata_ch0to3_from_txframeP7tRcDataP8tTxFrame>:
 8000fb8:	79ca      	ldrb	r2, [r1, #7]
 8000fba:	798b      	ldrb	r3, [r1, #6]
 8000fbc:	f002 0207 	and.w	r2, r2, #7
 8000fc0:	ea43 2302 	orr.w	r3, r3, r2, lsl #8
 8000fc4:	8003      	strh	r3, [r0, #0]
 8000fc6:	7a0b      	ldrb	r3, [r1, #8]
 8000fc8:	79ca      	ldrb	r2, [r1, #7]
 8000fca:	f003 033f 	and.w	r3, r3, #63	; 0x3f
 8000fce:	015b      	lsls	r3, r3, #5
 8000fd0:	ea43 03d2 	orr.w	r3, r3, r2, lsr #3
 8000fd4:	8043      	strh	r3, [r0, #2]
 8000fd6:	7a4b      	ldrb	r3, [r1, #9]
 8000fd8:	7a0a      	ldrb	r2, [r1, #8]
 8000fda:	009b      	lsls	r3, r3, #2
 8000fdc:	ea43 1392 	orr.w	r3, r3, r2, lsr #6
 8000fe0:	7a8a      	ldrb	r2, [r1, #10]
 8000fe2:	f002 0201 	and.w	r2, r2, #1
 8000fe6:	ea43 2382 	orr.w	r3, r3, r2, lsl #10
 8000fea:	8083      	strh	r3, [r0, #4]
 8000fec:	7acb      	ldrb	r3, [r1, #11]
 8000fee:	7a8a      	ldrb	r2, [r1, #10]
 8000ff0:	f003 030f 	and.w	r3, r3, #15
 8000ff4:	01db      	lsls	r3, r3, #7
 8000ff6:	ea43 0352 	orr.w	r3, r3, r2, lsr #1
 8000ffa:	80c3      	strh	r3, [r0, #6]
 8000ffc:	4770      	bx	lr

08000ffe <_Z19rcdata_from_txframeP7tRcDataP8tTxFrame>:
 8000ffe:	b530      	push	{r4, r5, lr}
 8001000:	79ca      	ldrb	r2, [r1, #7]
 8001002:	798b      	ldrb	r3, [r1, #6]
 8001004:	f002 0207 	and.w	r2, r2, #7
 8001008:	ea43 2302 	orr.w	r3, r3, r2, lsl #8
 800100c:	8003      	strh	r3, [r0, #0]
 800100e:	7a0b      	ldrb	r3, [r1, #8]
 8001010:	79ca      	ldrb	r2, [r1, #7]
 8001012:	f003 033f 	and.w	r3, r3, #63	; 0x3f
 8001016:	015b      	lsls	r3, r3, #5
 8001018:	ea43 03d2 	orr.w	r3, r3, r2, lsr #3
 800101c:	8043      	strh	r3, [r0, #2]
 800101e:	7a4b      	ldrb	r3, [r1, #9]
 8001020:	7a0a      	ldrb	r2, [r1, #8]
 8001022:	009b      	lsls	r3, r3, #2
 8001024:	ea43 1392 	orr.w	r3, r3, r2, lsr #6
 8001028:	7a8a      	ldrb	r2, [r1, #10]
 800102a:	f002 0201 	and.w	r2, r2, #1
 800102e:	ea43 2382 	orr.w	r3, r3, r2, lsl #10
 8001032:	8083      	strh	r3, [r0, #4]
 8001034:	7acb      	ldrb	r3, [r1, #11]
 8001036:	7a8a      	ldrb	r2, [r1, #10]
 8001038:	f003 030f 	and.w	r3, r3, #15
 800103c:	01db      	lsls	r3, r3, #7
 800103e:	ea43 0352 	orr.w	r3, r3, r2, lsr #1
 8001042:	80c3      	strh	r3, [r0, #6]
 8001044:	f100 0408 	add.w	r4, r0, #8
 8001048:	f101 030d 	add.w	r3, r1, #13
 800104c:	f101 0517 	add.w	r5, r1, #23
 8001050:	f813 2b01 	ldrb.w	r2, [r3], #1
 8001054:	00d2      	lsls	r2, r2, #3
 8001056:	42ab      	cmp	r3, r5
 8001058:	f824 2b02 	strh.w	r2, [r4], #2
 800105c:	d1f8      	bne.n	8001050 <_Z19rcdata_from_txframeP7tRcDataP8tTxFrame+0x52>
 800105e:	7aca      	ldrb	r2, [r1, #11]
 8001060:	f240 73ff 	movw	r3, #2047	; 0x7ff
 8001064:	f012 0f10 	tst.w	r2, #16
 8001068:	bf14      	ite	ne
 800106a:	4619      	movne	r1, r3
 800106c:	2100      	moveq	r1, #0
 800106e:	f012 0f20 	tst.w	r2, #32
 8001072:	8381      	strh	r1, [r0, #28]
 8001074:	bf14      	ite	ne
 8001076:	4619      	movne	r1, r3
 8001078:	2100      	moveq	r1, #0
 800107a:	f012 0f40 	tst.w	r2, #64	; 0x40
 800107e:	83c1      	strh	r1, [r0, #30]
 8001080:	bf14      	ite	ne
 8001082:	4619      	movne	r1, r3
 8001084:	2100      	moveq	r1, #0
 8001086:	f012 0f80 	tst.w	r2, #128	; 0x80
 800108a:	bf08      	it	eq
 800108c:	2300      	moveq	r3, #0
 800108e:	8401      	strh	r1, [r0, #32]
 8001090:	8443      	strh	r3, [r0, #34]	; 0x22
 8001092:	bd30      	pop	{r4, r5, pc}

08001094 <_Z13pack_rx_frameP8tRxFrameP11tFrameStatsPhh>:
 8001094:	2b52      	cmp	r3, #82	; 0x52
 8001096:	b5f7      	push	{r0, r1, r2, r4, r5, r6, r7, lr}
 8001098:	bf28      	it	cs
 800109a:	2352      	movcs	r3, #82	; 0x52
 800109c:	4604      	mov	r4, r0
 800109e:	460f      	mov	r7, r1
 80010a0:	4616      	mov	r6, r2
 80010a2:	2100      	movs	r1, #0
 80010a4:	225a      	movs	r2, #90	; 0x5a
 80010a6:	461d      	mov	r5, r3
 80010a8:	f002 fa7a 	bl	80035a0 <memset>
 80010ac:	f06f 037e 	mvn.w	r3, #126	; 0x7e
 80010b0:	7023      	strb	r3, [r4, #0]
 80010b2:	2342      	movs	r3, #66	; 0x42
 80010b4:	7063      	strb	r3, [r4, #1]
 80010b6:	783b      	ldrb	r3, [r7, #0]
 80010b8:	78e2      	ldrb	r2, [r4, #3]
 80010ba:	f003 0307 	and.w	r3, r3, #7
 80010be:	f043 0310 	orr.w	r3, r3, #16
 80010c2:	70a3      	strb	r3, [r4, #2]
 80010c4:	787b      	ldrb	r3, [r7, #1]
 80010c6:	425b      	negs	r3, r3
 80010c8:	f363 0206 	bfi	r2, r3, #0, #7
 80010cc:	70e2      	strb	r2, [r4, #3]
 80010ce:	78fb      	ldrb	r3, [r7, #3]
 80010d0:	f003 0201 	and.w	r2, r3, #1
 80010d4:	78e3      	ldrb	r3, [r4, #3]
 80010d6:	f003 037f 	and.w	r3, r3, #127	; 0x7f
 80010da:	ea43 13c2 	orr.w	r3, r3, r2, lsl #7
 80010de:	70e3      	strb	r3, [r4, #3]
 80010e0:	78fb      	ldrb	r3, [r7, #3]
 80010e2:	f005 0203 	and.w	r2, r5, #3
 80010e6:	f3c3 0345 	ubfx	r3, r3, #1, #6
 80010ea:	ea43 1382 	orr.w	r3, r3, r2, lsl #6
 80010ee:	7123      	strb	r3, [r4, #4]
 80010f0:	7963      	ldrb	r3, [r4, #5]
 80010f2:	f3c5 0284 	ubfx	r2, r5, #2, #5
 80010f6:	f023 031f 	bic.w	r3, r3, #31
 80010fa:	4313      	orrs	r3, r2
 80010fc:	7163      	strb	r3, [r4, #5]
 80010fe:	4632      	mov	r2, r6
 8001100:	1da3      	adds	r3, r4, #6
 8001102:	4435      	add	r5, r6
 8001104:	42aa      	cmp	r2, r5
 8001106:	d004      	beq.n	8001112 <_Z13pack_rx_frameP8tRxFrameP11tFrameStatsPhh+0x7e>
 8001108:	f812 1b01 	ldrb.w	r1, [r2], #1
 800110c:	f803 1b01 	strb.w	r1, [r3], #1
 8001110:	e7f8      	b.n	8001104 <_Z13pack_rx_frameP8tRxFrameP11tFrameStatsPhh+0x70>
 8001112:	f64f 73ff 	movw	r3, #65535	; 0xffff
 8001116:	2258      	movs	r2, #88	; 0x58
 8001118:	4621      	mov	r1, r4
 800111a:	f10d 0006 	add.w	r0, sp, #6
 800111e:	f8ad 3006 	strh.w	r3, [sp, #6]
 8001122:	f7ff f8de 	bl	80002e2 <fmav_crc_accumulate_buf>
 8001126:	f8bd 3006 	ldrh.w	r3, [sp, #6]
 800112a:	f8a4 3058 	strh.w	r3, [r4, #88]	; 0x58
 800112e:	b003      	add	sp, #12
 8001130:	bdf0      	pop	{r4, r5, r6, r7, pc}

08001132 <_ZN5Stats6UpdateEv>:
 8001132:	b570      	push	{r4, r5, r6, lr}
 8001134:	6803      	ldr	r3, [r0, #0]
 8001136:	6845      	ldr	r5, [r0, #4]
 8001138:	6942      	ldr	r2, [r0, #20]
 800113a:	6884      	ldr	r4, [r0, #8]
 800113c:	f44f 61fa 	mov.w	r1, #2000	; 0x7d0
 8001140:	f44f 767a 	mov.w	r6, #1000	; 0x3e8
 8001144:	434b      	muls	r3, r1
 8001146:	434d      	muls	r5, r1
 8001148:	fbb3 f3f6 	udiv	r3, r3, r6
 800114c:	fbb5 f5f6 	udiv	r5, r5, r6
 8001150:	b2db      	uxtb	r3, r3
 8001152:	b2ed      	uxtb	r5, r5
 8001154:	42ab      	cmp	r3, r5
 8001156:	7303      	strb	r3, [r0, #12]
 8001158:	fb01 f202 	mul.w	r2, r1, r2
 800115c:	bf28      	it	cs
 800115e:	462b      	movcs	r3, r5
 8001160:	fbb2 f2f6 	udiv	r2, r2, r6
 8001164:	b2d2      	uxtb	r2, r2
 8001166:	4293      	cmp	r3, r2
 8001168:	bf88      	it	hi
 800116a:	4613      	movhi	r3, r2
 800116c:	434c      	muls	r4, r1
 800116e:	7443      	strb	r3, [r0, #17]
 8001170:	fbb4 f4f6 	udiv	r4, r4, r6
 8001174:	b2db      	uxtb	r3, r3
 8001176:	b2e4      	uxtb	r4, r4
 8001178:	42a3      	cmp	r3, r4
 800117a:	f04f 0100 	mov.w	r1, #0
 800117e:	f04f 0300 	mov.w	r3, #0
 8001182:	e9c0 3300 	strd	r3, r3, [r0]
 8001186:	7345      	strb	r5, [r0, #13]
 8001188:	7384      	strb	r4, [r0, #14]
 800118a:	7602      	strb	r2, [r0, #24]
 800118c:	6141      	str	r1, [r0, #20]
 800118e:	bf88      	it	hi
 8001190:	7444      	strbhi	r4, [r0, #17]
 8001192:	6083      	str	r3, [r0, #8]
 8001194:	bd70      	pop	{r4, r5, r6, pc}
	...

08001198 <_ZN9ClockBase10InitIsrOffEt>:
 8001198:	b530      	push	{r4, r5, lr}
 800119a:	4d18      	ldr	r5, [pc, #96]	; (80011fc <_ZN9ClockBase10InitIsrOffEt+0x64>)
 800119c:	b089      	sub	sp, #36	; 0x24
 800119e:	4628      	mov	r0, r5
 80011a0:	460c      	mov	r4, r1
 80011a2:	2203      	movs	r2, #3
 80011a4:	f64f 71ff 	movw	r1, #65535	; 0xffff
 80011a8:	f7ff fa5c 	bl	8000664 <tim_init_up>
 80011ac:	4b14      	ldr	r3, [pc, #80]	; (8001200 <_ZN9ClockBase10InitIsrOffEt+0x68>)
 80011ae:	210a      	movs	r1, #10
 80011b0:	2220      	movs	r2, #32
 80011b2:	fbb4 f4f1 	udiv	r4, r4, r1
 80011b6:	4668      	mov	r0, sp
 80011b8:	2100      	movs	r1, #0
 80011ba:	801c      	strh	r4, [r3, #0]
 80011bc:	f002 f9f0 	bl	80035a0 <memset>
 80011c0:	2364      	movs	r3, #100	; 0x64
 80011c2:	466a      	mov	r2, sp
 80011c4:	2101      	movs	r1, #1
 80011c6:	4628      	mov	r0, r5
 80011c8:	9303      	str	r3, [sp, #12]
 80011ca:	24c8      	movs	r4, #200	; 0xc8
 80011cc:	f001 fd52 	bl	8002c74 <LL_TIM_OC_Init>
 80011d0:	466a      	mov	r2, sp
 80011d2:	2110      	movs	r1, #16
 80011d4:	4628      	mov	r0, r5
 80011d6:	9403      	str	r4, [sp, #12]
 80011d8:	f001 fd4c 	bl	8002c74 <LL_TIM_OC_Init>
 80011dc:	466a      	mov	r2, sp
 80011de:	f44f 7180 	mov.w	r1, #256	; 0x100
 80011e2:	4628      	mov	r0, r5
 80011e4:	9403      	str	r4, [sp, #12]
 80011e6:	f001 fd45 	bl	8002c74 <LL_TIM_OC_Init>
 80011ea:	4b06      	ldr	r3, [pc, #24]	; (8001204 <_ZN9ClockBase10InitIsrOffEt+0x6c>)
 80011ec:	22a0      	movs	r2, #160	; 0xa0
 80011ee:	f883 231d 	strb.w	r2, [r3, #797]	; 0x31d
 80011f2:	f04f 5200 	mov.w	r2, #536870912	; 0x20000000
 80011f6:	601a      	str	r2, [r3, #0]
 80011f8:	b009      	add	sp, #36	; 0x24
 80011fa:	bd30      	pop	{r4, r5, pc}
 80011fc:	40000400 	.word	0x40000400
 8001200:	20000096 	.word	0x20000096
 8001204:	e000e100 	.word	0xe000e100

08001208 <_ZN9ClockBase9EnableIsrEv>:
 8001208:	4b06      	ldr	r3, [pc, #24]	; (8001224 <_ZN9ClockBase9EnableIsrEv+0x1c>)
 800120a:	68da      	ldr	r2, [r3, #12]
 800120c:	f042 0202 	orr.w	r2, r2, #2
 8001210:	60da      	str	r2, [r3, #12]
 8001212:	68da      	ldr	r2, [r3, #12]
 8001214:	f042 0204 	orr.w	r2, r2, #4
 8001218:	60da      	str	r2, [r3, #12]
 800121a:	68da      	ldr	r2, [r3, #12]
 800121c:	f042 0208 	orr.w	r2, r2, #8
 8001220:	60da      	str	r2, [r3, #12]
 8001222:	4770      	bx	lr
 8001224:	40000400 	.word	0x40000400

08001228 <_ZN7RxStats4InitEh>:
 8001228:	4b10      	ldr	r3, [pc, #64]	; (800126c <_ZN7RxStats4InitEh+0x44>)
 800122a:	f04f 42fe 	mov.w	r2, #2130706432	; 0x7f000000
 800122e:	b570      	push	{r4, r5, r6, lr}
 8001230:	60da      	str	r2, [r3, #12]
 8001232:	227f      	movs	r2, #127	; 0x7f
 8001234:	821a      	strh	r2, [r3, #16]
 8001236:	f44f 02fe 	mov.w	r2, #8323072	; 0x7f0000
 800123a:	4604      	mov	r4, r0
 800123c:	2500      	movs	r5, #0
 800123e:	460e      	mov	r6, r1
 8001240:	619a      	str	r2, [r3, #24]
 8001242:	3008      	adds	r0, #8
 8001244:	e9c3 5500 	strd	r5, r5, [r3]
 8001248:	609d      	str	r5, [r3, #8]
 800124a:	615d      	str	r5, [r3, #20]
 800124c:	f7ff fe12 	bl	8000e74 <_ZN13LqCounterBase4InitEh>
 8001250:	4631      	mov	r1, r6
 8001252:	f104 0030 	add.w	r0, r4, #48	; 0x30
 8001256:	f7ff fe0d 	bl	8000e74 <_ZN13LqCounterBase4InitEh>
 800125a:	4631      	mov	r1, r6
 800125c:	f104 0058 	add.w	r0, r4, #88	; 0x58
 8001260:	f7ff fe08 	bl	8000e74 <_ZN13LqCounterBase4InitEh>
 8001264:	8025      	strh	r5, [r4, #0]
 8001266:	70a5      	strb	r5, [r4, #2]
 8001268:	bd70      	pop	{r4, r5, r6, pc}
 800126a:	bf00      	nop
 800126c:	20000208 	.word	0x20000208

08001270 <_ZN7RxStats4NextEv>:
 8001270:	b510      	push	{r4, lr}
 8001272:	4604      	mov	r4, r0
 8001274:	3008      	adds	r0, #8
 8001276:	f7ff fe18 	bl	8000eaa <_ZN13LqCounterBase4NextEv>
 800127a:	f104 0030 	add.w	r0, r4, #48	; 0x30
 800127e:	f7ff fe14 	bl	8000eaa <_ZN13LqCounterBase4NextEv>
 8001282:	f104 0058 	add.w	r0, r4, #88	; 0x58
 8001286:	f7ff fe10 	bl	8000eaa <_ZN13LqCounterBase4NextEv>
 800128a:	bd10      	pop	{r4, pc}

0800128c <_ZN7RxStats3SetEv>:
 800128c:	7883      	ldrb	r3, [r0, #2]
 800128e:	b510      	push	{r4, lr}
 8001290:	b13b      	cbz	r3, 80012a2 <_ZN7RxStats3SetEv+0x16>
 8001292:	e9d0 231a 	ldrd	r2, r3, [r0, #104]	; 0x68
 8001296:	e9d0 411c 	ldrd	r4, r1, [r0, #112]	; 0x70
 800129a:	4322      	orrs	r2, r4
 800129c:	430b      	orrs	r3, r1
 800129e:	e9c0 231a 	strd	r2, r3, [r0, #104]	; 0x68
 80012a2:	7803      	ldrb	r3, [r0, #0]
 80012a4:	b13b      	cbz	r3, 80012b6 <_ZN7RxStats3SetEv+0x2a>
 80012a6:	e9d0 2306 	ldrd	r2, r3, [r0, #24]
 80012aa:	e9d0 4108 	ldrd	r4, r1, [r0, #32]
 80012ae:	4322      	orrs	r2, r4
 80012b0:	430b      	orrs	r3, r1
 80012b2:	e9c0 2306 	strd	r2, r3, [r0, #24]
 80012b6:	7843      	ldrb	r3, [r0, #1]
 80012b8:	b13b      	cbz	r3, 80012ca <_ZN7RxStats3SetEv+0x3e>
 80012ba:	e9d0 2310 	ldrd	r2, r3, [r0, #64]	; 0x40
 80012be:	e9d0 4112 	ldrd	r4, r1, [r0, #72]	; 0x48
 80012c2:	4322      	orrs	r2, r4
 80012c4:	430b      	orrs	r3, r1
 80012c6:	e9c0 2310 	strd	r2, r3, [r0, #64]	; 0x40
 80012ca:	bd10      	pop	{r4, pc}

080012cc <_ZN7RxStats15doFrameReceivedEv>:
 80012cc:	4a03      	ldr	r2, [pc, #12]	; (80012dc <_ZN7RxStats15doFrameReceivedEv+0x10>)
 80012ce:	2301      	movs	r3, #1
 80012d0:	7083      	strb	r3, [r0, #2]
 80012d2:	6853      	ldr	r3, [r2, #4]
 80012d4:	3301      	adds	r3, #1
 80012d6:	6053      	str	r3, [r2, #4]
 80012d8:	4770      	bx	lr
 80012da:	bf00      	nop
 80012dc:	20000208 	.word	0x20000208

080012e0 <_ZN7RxStats24doValidCrc1FrameReceivedEv>:
 80012e0:	4a03      	ldr	r2, [pc, #12]	; (80012f0 <_ZN7RxStats24doValidCrc1FrameReceivedEv+0x10>)
 80012e2:	2301      	movs	r3, #1
 80012e4:	7003      	strb	r3, [r0, #0]
 80012e6:	6953      	ldr	r3, [r2, #20]
 80012e8:	3301      	adds	r3, #1
 80012ea:	6153      	str	r3, [r2, #20]
 80012ec:	4770      	bx	lr
 80012ee:	bf00      	nop
 80012f0:	20000208 	.word	0x20000208

080012f4 <_ZN7RxStats20doValidFrameReceivedEv>:
 80012f4:	4a03      	ldr	r2, [pc, #12]	; (8001304 <_ZN7RxStats20doValidFrameReceivedEv+0x10>)
 80012f6:	2301      	movs	r3, #1
 80012f8:	7043      	strb	r3, [r0, #1]
 80012fa:	6893      	ldr	r3, [r2, #8]
 80012fc:	3301      	adds	r3, #1
 80012fe:	6093      	str	r3, [r2, #8]
 8001300:	4770      	bx	lr
 8001302:	bf00      	nop
 8001304:	20000208 	.word	0x20000208

08001308 <_ZN7RxStats18doFrameTransmittedEv>:
 8001308:	4a02      	ldr	r2, [pc, #8]	; (8001314 <_ZN7RxStats18doFrameTransmittedEv+0xc>)
 800130a:	6813      	ldr	r3, [r2, #0]
 800130c:	3301      	adds	r3, #1
 800130e:	6013      	str	r3, [r2, #0]
 8001310:	4770      	bx	lr
 8001312:	bf00      	nop
 8001314:	20000208 	.word	0x20000208

08001318 <_ZN7RxStats5GetLQEb>:
 8001318:	b510      	push	{r4, lr}
 800131a:	b1d9      	cbz	r1, 8001354 <_ZN7RxStats5GetLQEb+0x3c>
 800131c:	f890 2030 	ldrb.w	r2, [r0, #48]	; 0x30
 8001320:	f890 1050 	ldrb.w	r1, [r0, #80]	; 0x50
 8001324:	0854      	lsrs	r4, r2, #1
 8001326:	2364      	movs	r3, #100	; 0x64
 8001328:	fb13 4101 	smlabb	r1, r3, r1, r4
 800132c:	fbb1 f1f2 	udiv	r1, r1, r2
 8001330:	b2c9      	uxtb	r1, r1
 8001332:	2918      	cmp	r1, #24
 8001334:	d80e      	bhi.n	8001354 <_ZN7RxStats5GetLQEb+0x3c>
 8001336:	7a02      	ldrb	r2, [r0, #8]
 8001338:	f890 0028 	ldrb.w	r0, [r0, #40]	; 0x28
 800133c:	0851      	lsrs	r1, r2, #1
 800133e:	fb13 1100 	smlabb	r1, r3, r0, r1
 8001342:	fbb1 f1f2 	udiv	r1, r1, r2
 8001346:	b2c9      	uxtb	r1, r1
 8001348:	2901      	cmp	r1, #1
 800134a:	bf38      	it	cc
 800134c:	2101      	movcc	r1, #1
 800134e:	2919      	cmp	r1, #25
 8001350:	bf28      	it	cs
 8001352:	2119      	movcs	r1, #25
 8001354:	4608      	mov	r0, r1
 8001356:	bd10      	pop	{r4, pc}

08001358 <TIM3_IRQHandler>:
 8001358:	4b16      	ldr	r3, [pc, #88]	; (80013b4 <TIM3_IRQHandler+0x5c>)
 800135a:	691a      	ldr	r2, [r3, #16]
 800135c:	0791      	lsls	r1, r2, #30
 800135e:	b510      	push	{r4, lr}
 8001360:	d514      	bpl.n	800138c <TIM3_IRQHandler+0x34>
 8001362:	4915      	ldr	r1, [pc, #84]	; (80013b8 <TIM3_IRQHandler+0x60>)
 8001364:	f06f 0202 	mvn.w	r2, #2
 8001368:	611a      	str	r2, [r3, #16]
 800136a:	6b58      	ldr	r0, [r3, #52]	; 0x34
 800136c:	880a      	ldrh	r2, [r1, #0]
 800136e:	f3c2 024e 	ubfx	r2, r2, #1, #15
 8001372:	4402      	add	r2, r0
 8001374:	639a      	str	r2, [r3, #56]	; 0x38
 8001376:	6b5a      	ldr	r2, [r3, #52]	; 0x34
 8001378:	3264      	adds	r2, #100	; 0x64
 800137a:	63da      	str	r2, [r3, #60]	; 0x3c
 800137c:	6b58      	ldr	r0, [r3, #52]	; 0x34
 800137e:	880a      	ldrh	r2, [r1, #0]
 8001380:	fa10 f282 	uxtah	r2, r0, r2
 8001384:	635a      	str	r2, [r3, #52]	; 0x34
 8001386:	480d      	ldr	r0, [pc, #52]	; (80013bc <TIM3_IRQHandler+0x64>)
 8001388:	f000 fd21 	bl	8001dce <_ZN7PllBase4tickEv>
 800138c:	4c09      	ldr	r4, [pc, #36]	; (80013b4 <TIM3_IRQHandler+0x5c>)
 800138e:	6923      	ldr	r3, [r4, #16]
 8001390:	075a      	lsls	r2, r3, #29
 8001392:	d505      	bpl.n	80013a0 <TIM3_IRQHandler+0x48>
 8001394:	f06f 0304 	mvn.w	r3, #4
 8001398:	4808      	ldr	r0, [pc, #32]	; (80013bc <TIM3_IRQHandler+0x64>)
 800139a:	6123      	str	r3, [r4, #16]
 800139c:	f000 fd21 	bl	8001de2 <_ZN7PllBase6updateEv>
 80013a0:	6923      	ldr	r3, [r4, #16]
 80013a2:	071b      	lsls	r3, r3, #28
 80013a4:	d505      	bpl.n	80013b2 <TIM3_IRQHandler+0x5a>
 80013a6:	f06f 0308 	mvn.w	r3, #8
 80013aa:	6123      	str	r3, [r4, #16]
 80013ac:	4b04      	ldr	r3, [pc, #16]	; (80013c0 <TIM3_IRQHandler+0x68>)
 80013ae:	2201      	movs	r2, #1
 80013b0:	701a      	strb	r2, [r3, #0]
 80013b2:	bd10      	pop	{r4, pc}
 80013b4:	40000400 	.word	0x40000400
 80013b8:	20000096 	.word	0x20000096
 80013bc:	200000d0 	.word	0x200000d0
 80013c0:	2000009b 	.word	0x2000009b

080013c4 <_Z4initv>:
 80013c4:	b570      	push	{r4, r5, r6, lr}
 80013c6:	4c1d      	ldr	r4, [pc, #116]	; (800143c <_Z4initv+0x78>)
 80013c8:	4d1d      	ldr	r5, [pc, #116]	; (8001440 <_Z4initv+0x7c>)
 80013ca:	f7ff f9dd 	bl	8000788 <_Z9leds_initv>
 80013ce:	f7ff f9f1 	bl	80007b4 <delay_init>
 80013d2:	f7ff fb89 	bl	8000ae8 <uartb_init>
 80013d6:	481b      	ldr	r0, [pc, #108]	; (8001444 <_Z4initv+0x80>)
 80013d8:	f000 fbd4 	bl	8001b84 <_ZN7OutBase4InitEv>
 80013dc:	f7ff f9c6 	bl	800076c <_Z13out_init_gpiov>
 80013e0:	f7ff fcac 	bl	8000d3c <uart_init_isroff>
 80013e4:	f7ff fbd2 	bl	8000b8c <uartc_init_isroff>
 80013e8:	4620      	mov	r0, r4
 80013ea:	f644 6120 	movw	r1, #20000	; 0x4e20
 80013ee:	f7ff fed3 	bl	8001198 <_ZN9ClockBase10InitIsrOffEt>
 80013f2:	f644 6120 	movw	r1, #20000	; 0x4e20
 80013f6:	4814      	ldr	r0, [pc, #80]	; (8001448 <_Z4initv+0x84>)
 80013f8:	f000 fcdc 	bl	8001db4 <_ZN7PllBase4InitEt>
 80013fc:	4620      	mov	r0, r4
 80013fe:	f7ff ff03 	bl	8001208 <_ZN9ClockBase9EnableIsrEv>
 8001402:	4c12      	ldr	r4, [pc, #72]	; (800144c <_Z4initv+0x88>)
 8001404:	4a12      	ldr	r2, [pc, #72]	; (8001450 <_Z4initv+0x8c>)
 8001406:	2300      	movs	r3, #0
 8001408:	7013      	strb	r3, [r2, #0]
 800140a:	60a3      	str	r3, [r4, #8]
 800140c:	2604      	movs	r6, #4
 800140e:	f7ff fa21 	bl	8000854 <spi_init>
 8001412:	f7ff f931 	bl	8000678 <_Z12sx_init_gpiov>
 8001416:	f7ff f96b 	bl	80006f0 <_Z24sx_dio1_init_exti_isroffv>
 800141a:	480e      	ldr	r0, [pc, #56]	; (8001454 <_Z4initv+0x90>)
 800141c:	f7ff f9e4 	bl	80007e8 <delay_us>
 8001420:	62ae      	str	r6, [r5, #40]	; 0x28
 8001422:	f241 3088 	movw	r0, #5000	; 0x1388
 8001426:	f7ff f9df 	bl	80007e8 <delay_us>
 800142a:	61ae      	str	r6, [r5, #24]
 800142c:	f24c 3050 	movw	r0, #50000	; 0xc350
 8001430:	f7ff f9da 	bl	80007e8 <delay_us>
 8001434:	4620      	mov	r0, r4
 8001436:	f7ff f953 	bl	80006e0 <_ZN8SxDriver10WaitOnBusyEv>
 800143a:	bd70      	pop	{r4, r5, r6, pc}
 800143c:	20000094 	.word	0x20000094
 8001440:	48000400 	.word	0x48000400
 8001444:	200000c8 	.word	0x200000c8
 8001448:	200000d0 	.word	0x200000d0
 800144c:	20000224 	.word	0x20000224
 8001450:	2000009b 	.word	0x2000009b
 8001454:	000493e0 	.word	0x000493e0

08001458 <EXTI9_5_IRQHandler>:
 8001458:	4b10      	ldr	r3, [pc, #64]	; (800149c <EXTI9_5_IRQHandler+0x44>)
 800145a:	f44f 7280 	mov.w	r2, #256	; 0x100
 800145e:	b513      	push	{r0, r1, r4, lr}
 8001460:	615a      	str	r2, [r3, #20]
 8001462:	480f      	ldr	r0, [pc, #60]	; (80014a0 <EXTI9_5_IRQHandler+0x48>)
 8001464:	4c0f      	ldr	r4, [pc, #60]	; (80014a4 <EXTI9_5_IRQHandler+0x4c>)
 8001466:	f001 ff8c 	bl	8003382 <_ZN12SxDriverBase12GetIrqStatusEv>
 800146a:	f64f 71ff 	movw	r1, #65535	; 0xffff
 800146e:	8020      	strh	r0, [r4, #0]
 8001470:	480b      	ldr	r0, [pc, #44]	; (80014a0 <EXTI9_5_IRQHandler+0x48>)
 8001472:	f001 ff96 	bl	80033a2 <_ZN12SxDriverBase14ClearIrqStatusEt>
 8001476:	8823      	ldrh	r3, [r4, #0]
 8001478:	079b      	lsls	r3, r3, #30
 800147a:	d50d      	bpl.n	8001498 <EXTI9_5_IRQHandler+0x40>
 800147c:	4808      	ldr	r0, [pc, #32]	; (80014a0 <EXTI9_5_IRQHandler+0x48>)
 800147e:	f10d 0206 	add.w	r2, sp, #6
 8001482:	f10d 0107 	add.w	r1, sp, #7
 8001486:	f001 ffe5 	bl	8003454 <_ZN12SxDriverBase17GetRxBufferStatusEPhS0_>
 800148a:	4a07      	ldr	r2, [pc, #28]	; (80014a8 <EXTI9_5_IRQHandler+0x50>)
 800148c:	f89d 1006 	ldrb.w	r1, [sp, #6]
 8001490:	4803      	ldr	r0, [pc, #12]	; (80014a0 <EXTI9_5_IRQHandler+0x48>)
 8001492:	235a      	movs	r3, #90	; 0x5a
 8001494:	f001 fe96 	bl	80031c4 <_ZN12SxDriverBase10ReadBufferEhPhh>
 8001498:	b002      	add	sp, #8
 800149a:	bd10      	pop	{r4, pc}
 800149c:	40010400 	.word	0x40010400
 80014a0:	20000224 	.word	0x20000224
 80014a4:	200000bc 	.word	0x200000bc
 80014a8:	20000232 	.word	0x20000232

080014ac <_Z11do_transmitv>:
 80014ac:	e92d 43f0 	stmdb	sp!, {r4, r5, r6, r7, r8, r9, lr}
 80014b0:	2400      	movs	r4, #0
 80014b2:	b097      	sub	sp, #92	; 0x5c
 80014b4:	224e      	movs	r2, #78	; 0x4e
 80014b6:	4621      	mov	r1, r4
 80014b8:	a802      	add	r0, sp, #8
 80014ba:	9401      	str	r4, [sp, #4]
 80014bc:	f002 f870 	bl	80035a0 <memset>
 80014c0:	ad01      	add	r5, sp, #4
 80014c2:	f8df 80b0 	ldr.w	r8, [pc, #176]	; 8001574 <_Z11do_transmitv+0xc8>
 80014c6:	f8df 90b0 	ldr.w	r9, [pc, #176]	; 8001578 <_Z11do_transmitv+0xcc>
 80014ca:	462e      	mov	r6, r5
 80014cc:	f8b8 1000 	ldrh.w	r1, [r8]
 80014d0:	f8b9 2000 	ldrh.w	r2, [r9]
 80014d4:	b289      	uxth	r1, r1
 80014d6:	b292      	uxth	r2, r2
 80014d8:	4291      	cmp	r1, r2
 80014da:	b2e7      	uxtb	r7, r4
 80014dc:	d007      	beq.n	80014ee <_Z11do_transmitv+0x42>
 80014de:	f7ff fa81 	bl	80009e4 <uartb_getc>
 80014e2:	3401      	adds	r4, #1
 80014e4:	2c52      	cmp	r4, #82	; 0x52
 80014e6:	f805 0b01 	strb.w	r0, [r5], #1
 80014ea:	d1ef      	bne.n	80014cc <_Z11do_transmitv+0x20>
 80014ec:	4627      	mov	r7, r4
 80014ee:	4c1c      	ldr	r4, [pc, #112]	; (8001560 <_Z11do_transmitv+0xb4>)
 80014f0:	481c      	ldr	r0, [pc, #112]	; (8001564 <_Z11do_transmitv+0xb8>)
 80014f2:	f104 0210 	add.w	r2, r4, #16
 80014f6:	f104 010f 	add.w	r1, r4, #15
 80014fa:	f001 ff98 	bl	800342e <_ZN12SxDriverBase15GetPacketStatusEPaS0_>
 80014fe:	7e63      	ldrb	r3, [r4, #25]
 8001500:	f88d 3000 	strb.w	r3, [sp]
 8001504:	7be3      	ldrb	r3, [r4, #15]
 8001506:	f88d 3001 	strb.w	r3, [sp, #1]
 800150a:	7c23      	ldrb	r3, [r4, #16]
 800150c:	f88d 3002 	strb.w	r3, [sp, #2]
 8001510:	f7fe ff08 	bl	8000324 <_ZL9connectedv>
 8001514:	4601      	mov	r1, r0
 8001516:	4814      	ldr	r0, [pc, #80]	; (8001568 <_Z11do_transmitv+0xbc>)
 8001518:	f7ff fefe 	bl	8001318 <_ZN7RxStats5GetLQEb>
 800151c:	463b      	mov	r3, r7
 800151e:	f88d 0003 	strb.w	r0, [sp, #3]
 8001522:	4632      	mov	r2, r6
 8001524:	4669      	mov	r1, sp
 8001526:	4811      	ldr	r0, [pc, #68]	; (800156c <_Z11do_transmitv+0xc0>)
 8001528:	f7ff fdb4 	bl	8001094 <_Z13pack_rx_frameP8tRxFrameP11tFrameStatsPhh>
 800152c:	4b10      	ldr	r3, [pc, #64]	; (8001570 <_Z11do_transmitv+0xc4>)
 800152e:	480d      	ldr	r0, [pc, #52]	; (8001564 <_Z11do_transmitv+0xb8>)
 8001530:	f44f 7280 	mov.w	r2, #256	; 0x100
 8001534:	619a      	str	r2, [r3, #24]
 8001536:	2100      	movs	r1, #0
 8001538:	235a      	movs	r3, #90	; 0x5a
 800153a:	4a0c      	ldr	r2, [pc, #48]	; (800156c <_Z11do_transmitv+0xc0>)
 800153c:	f001 fe1a 	bl	8003174 <_ZN12SxDriverBase11WriteBufferEhPhh>
 8001540:	4808      	ldr	r0, [pc, #32]	; (8001564 <_Z11do_transmitv+0xb8>)
 8001542:	f64f 71ff 	movw	r1, #65535	; 0xffff
 8001546:	f001 ff2c 	bl	80033a2 <_ZN12SxDriverBase14ClearIrqStatusEt>
 800154a:	22a0      	movs	r2, #160	; 0xa0
 800154c:	2101      	movs	r1, #1
 800154e:	4805      	ldr	r0, [pc, #20]	; (8001564 <_Z11do_transmitv+0xb8>)
 8001550:	f001 ff43 	bl	80033da <_ZN12SxDriverBase5SetTxEht>
 8001554:	207d      	movs	r0, #125	; 0x7d
 8001556:	f7ff f947 	bl	80007e8 <delay_us>
 800155a:	b017      	add	sp, #92	; 0x5c
 800155c:	e8bd 83f0 	ldmia.w	sp!, {r4, r5, r6, r7, r8, r9, pc}
 8001560:	20000208 	.word	0x20000208
 8001564:	20000224 	.word	0x20000224
 8001568:	20000188 	.word	0x20000188
 800156c:	20000128 	.word	0x20000128
 8001570:	48000c00 	.word	0x48000c00
 8001574:	20000692 	.word	0x20000692
 8001578:	20000690 	.word	0x20000690

0800157c <_Z10do_receivev>:
 800157c:	b510      	push	{r4, lr}
 800157e:	480b      	ldr	r0, [pc, #44]	; (80015ac <_Z10do_receivev+0x30>)
 8001580:	f7ff fcd8 	bl	8000f34 <_Z14check_tx_frameP8tTxFrame>
 8001584:	4604      	mov	r4, r0
 8001586:	b178      	cbz	r0, 80015a8 <_Z10do_receivev+0x2c>
 8001588:	4809      	ldr	r0, [pc, #36]	; (80015b0 <_Z10do_receivev+0x34>)
 800158a:	f7ff faf5 	bl	8000b78 <uartc_puts>
 800158e:	4620      	mov	r0, r4
 8001590:	f001 fd10 	bl	8002fb4 <u16toHEX_s>
 8001594:	f7ff faf0 	bl	8000b78 <uartc_puts>
 8001598:	200a      	movs	r0, #10
 800159a:	f7ff facf 	bl	8000b3c <uartc_putc>
 800159e:	f1a4 0310 	sub.w	r3, r4, #16
 80015a2:	4258      	negs	r0, r3
 80015a4:	4158      	adcs	r0, r3
 80015a6:	bd10      	pop	{r4, pc}
 80015a8:	2002      	movs	r0, #2
 80015aa:	e7fc      	b.n	80015a6 <_Z10do_receivev+0x2a>
 80015ac:	20000232 	.word	0x20000232
 80015b0:	08003760 	.word	0x08003760

080015b4 <_Z22process_received_frameb>:
 80015b4:	b570      	push	{r4, r5, r6, lr}
 80015b6:	4918      	ldr	r1, [pc, #96]	; (8001618 <_Z22process_received_frameb+0x64>)
 80015b8:	4a18      	ldr	r2, [pc, #96]	; (800161c <_Z22process_received_frameb+0x68>)
 80015ba:	788b      	ldrb	r3, [r1, #2]
 80015bc:	78cd      	ldrb	r5, [r1, #3]
 80015be:	f3c3 0302 	ubfx	r3, r3, #0, #3
 80015c2:	7653      	strb	r3, [r2, #25]
 80015c4:	790b      	ldrb	r3, [r1, #4]
 80015c6:	f003 033f 	and.w	r3, r3, #63	; 0x3f
 80015ca:	f3c5 0406 	ubfx	r4, r5, #0, #7
 80015ce:	005b      	lsls	r3, r3, #1
 80015d0:	4264      	negs	r4, r4
 80015d2:	ea43 13d5 	orr.w	r3, r3, r5, lsr #7
 80015d6:	7694      	strb	r4, [r2, #26]
 80015d8:	76d3      	strb	r3, [r2, #27]
 80015da:	460c      	mov	r4, r1
 80015dc:	b920      	cbnz	r0, 80015e8 <_Z22process_received_frameb+0x34>
 80015de:	e8bd 4070 	ldmia.w	sp!, {r4, r5, r6, lr}
 80015e2:	480f      	ldr	r0, [pc, #60]	; (8001620 <_Z22process_received_frameb+0x6c>)
 80015e4:	f7ff bce8 	b.w	8000fb8 <_Z26rcdata_ch0to3_from_txframeP7tRcDataP8tTxFrame>
 80015e8:	480d      	ldr	r0, [pc, #52]	; (8001620 <_Z22process_received_frameb+0x6c>)
 80015ea:	f7ff fd08 	bl	8000ffe <_Z19rcdata_from_txframeP7tRcDataP8tTxFrame>
 80015ee:	f104 0618 	add.w	r6, r4, #24
 80015f2:	2500      	movs	r5, #0
 80015f4:	7963      	ldrb	r3, [r4, #5]
 80015f6:	7922      	ldrb	r2, [r4, #4]
 80015f8:	f003 031f 	and.w	r3, r3, #31
 80015fc:	009b      	lsls	r3, r3, #2
 80015fe:	ea43 1392 	orr.w	r3, r3, r2, lsr #6
 8001602:	b2ea      	uxtb	r2, r5
 8001604:	4293      	cmp	r3, r2
 8001606:	d905      	bls.n	8001614 <_Z22process_received_frameb+0x60>
 8001608:	f816 0b01 	ldrb.w	r0, [r6], #1
 800160c:	f7ff f9cc 	bl	80009a8 <uartb_putc>
 8001610:	3501      	adds	r5, #1
 8001612:	e7ef      	b.n	80015f4 <_Z22process_received_frameb+0x40>
 8001614:	bd70      	pop	{r4, r5, r6, pc}
 8001616:	bf00      	nop
 8001618:	20000232 	.word	0x20000232
 800161c:	20000208 	.word	0x20000208
 8001620:	20000104 	.word	0x20000104

08001624 <_Z6rescueh>:
 8001624:	b570      	push	{r4, r5, r6, lr}
 8001626:	4d07      	ldr	r5, [pc, #28]	; (8001644 <_Z6rescueh+0x20>)
 8001628:	2604      	movs	r6, #4
 800162a:	4604      	mov	r4, r0
 800162c:	62ae      	str	r6, [r5, #40]	; 0x28
 800162e:	2032      	movs	r0, #50	; 0x32
 8001630:	f7ff f8da 	bl	80007e8 <delay_us>
 8001634:	4620      	mov	r0, r4
 8001636:	61ae      	str	r6, [r5, #24]
 8001638:	f7ff f8ea 	bl	8000810 <delay_ms>
 800163c:	4802      	ldr	r0, [pc, #8]	; (8001648 <_Z6rescueh+0x24>)
 800163e:	f7ff fbd7 	bl	8000df0 <_ZN8SxDriver9ConfigureEv>
 8001642:	bd70      	pop	{r4, r5, r6, pc}
 8001644:	48000400 	.word	0x48000400
 8001648:	20000224 	.word	0x20000224

0800164c <_Z17link_delay_passedv>:
 800164c:	4b05      	ldr	r3, [pc, #20]	; (8001664 <_Z17link_delay_passedv+0x18>)
 800164e:	6a58      	ldr	r0, [r3, #36]	; 0x24
 8001650:	4b05      	ldr	r3, [pc, #20]	; (8001668 <_Z17link_delay_passedv+0x1c>)
 8001652:	881b      	ldrh	r3, [r3, #0]
 8001654:	b280      	uxth	r0, r0
 8001656:	1ac0      	subs	r0, r0, r3
 8001658:	2831      	cmp	r0, #49	; 0x31
 800165a:	bfd4      	ite	le
 800165c:	2000      	movle	r0, #0
 800165e:	2001      	movgt	r0, #1
 8001660:	4770      	bx	lr
 8001662:	bf00      	nop
 8001664:	40000400 	.word	0x40000400
 8001668:	200000c6 	.word	0x200000c6

0800166c <_Z9main_mainv>:
 800166c:	e92d 4ff0 	stmdb	sp!, {r4, r5, r6, r7, r8, r9, sl, fp, lr}
 8001670:	b085      	sub	sp, #20
 8001672:	f7ff fea7 	bl	80013c4 <_Z4initv>
 8001676:	4bbe      	ldr	r3, [pc, #760]	; (8001970 <_Z9main_mainv+0x304>)
 8001678:	2240      	movs	r2, #64	; 0x40
 800167a:	619a      	str	r2, [r3, #24]
 800167c:	2607      	movs	r6, #7
 800167e:	2040      	movs	r0, #64	; 0x40
 8001680:	f7fe fe94 	bl	80003ac <LL_GPIO_TogglePin.constprop.0>
 8001684:	3e01      	subs	r6, #1
 8001686:	f24c 3050 	movw	r0, #50000	; 0xc350
 800168a:	f7ff f8ad 	bl	80007e8 <delay_us>
 800168e:	f016 06ff 	ands.w	r6, r6, #255	; 0xff
 8001692:	d1f4      	bne.n	800167e <_Z9main_mainv+0x12>
 8001694:	48b7      	ldr	r0, [pc, #732]	; (8001974 <_Z9main_mainv+0x308>)
 8001696:	f001 ff2e 	bl	80034f6 <_ZN12SxDriverBase14GetFirmwareRevEv>
 800169a:	3801      	subs	r0, #1
 800169c:	b280      	uxth	r0, r0
 800169e:	f64f 73fd 	movw	r3, #65533	; 0xfffd
 80016a2:	4298      	cmp	r0, r3
 80016a4:	d907      	bls.n	80016b6 <_Z9main_mainv+0x4a>
 80016a6:	2040      	movs	r0, #64	; 0x40
 80016a8:	f7fe fe80 	bl	80003ac <LL_GPIO_TogglePin.constprop.0>
 80016ac:	f24c 3050 	movw	r0, #50000	; 0xc350
 80016b0:	f7ff f89a 	bl	80007e8 <delay_us>
 80016b4:	e7f7      	b.n	80016a6 <_Z9main_mainv+0x3a>
 80016b6:	4631      	mov	r1, r6
 80016b8:	48ae      	ldr	r0, [pc, #696]	; (8001974 <_Z9main_mainv+0x308>)
 80016ba:	4faf      	ldr	r7, [pc, #700]	; (8001978 <_Z9main_mainv+0x30c>)
 80016bc:	4caf      	ldr	r4, [pc, #700]	; (800197c <_Z9main_mainv+0x310>)
 80016be:	f8df 82f8 	ldr.w	r8, [pc, #760]	; 80019b8 <_Z9main_mainv+0x34c>
 80016c2:	f8df a2f8 	ldr.w	sl, [pc, #760]	; 80019bc <_Z9main_mainv+0x350>
 80016c6:	4dae      	ldr	r5, [pc, #696]	; (8001980 <_Z9main_mainv+0x314>)
 80016c8:	f001 fdb6 	bl	8003238 <_ZN12SxDriverBase10SetStandbyEh>
 80016cc:	f44f 707a 	mov.w	r0, #1000	; 0x3e8
 80016d0:	f7ff f88a 	bl	80007e8 <delay_us>
 80016d4:	2101      	movs	r1, #1
 80016d6:	48a7      	ldr	r0, [pc, #668]	; (8001974 <_Z9main_mainv+0x308>)
 80016d8:	f001 fecc 	bl	8003474 <_ZN12SxDriverBase16SetRegulatorModeEh>
 80016dc:	48a5      	ldr	r0, [pc, #660]	; (8001974 <_Z9main_mainv+0x308>)
 80016de:	f7ff fb87 	bl	8000df0 <_ZN8SxDriver9ConfigureEv>
 80016e2:	f7ff f837 	bl	8000754 <_Z18sx_dio1_enable_isrv>
 80016e6:	4638      	mov	r0, r7
 80016e8:	49a6      	ldr	r1, [pc, #664]	; (8001984 <_Z9main_mainv+0x318>)
 80016ea:	f7fe fd7b 	bl	80001e4 <_ZN8FhssBase8generateEm>
 80016ee:	68f9      	ldr	r1, [r7, #12]
 80016f0:	48a0      	ldr	r0, [pc, #640]	; (8001974 <_Z9main_mainv+0x308>)
 80016f2:	f001 fdc3 	bl	800327c <_ZN12SxDriverBase14SetRfFrequencyEm>
 80016f6:	48a4      	ldr	r0, [pc, #656]	; (8001988 <_Z9main_mainv+0x31c>)
 80016f8:	7026      	strb	r6, [r4, #0]
 80016fa:	2132      	movs	r1, #50	; 0x32
 80016fc:	f8a8 6000 	strh.w	r6, [r8]
 8001700:	f8ca 6000 	str.w	r6, [sl]
 8001704:	f7ff fd90 	bl	8001228 <_ZN7RxStats4InitEh>
 8001708:	48a0      	ldr	r0, [pc, #640]	; (800198c <_Z9main_mainv+0x320>)
 800170a:	4631      	mov	r1, r6
 800170c:	f000 fa3d 	bl	8001b8a <_ZN7OutBase9ConfigureEh>
 8001710:	4a9f      	ldr	r2, [pc, #636]	; (8001990 <_Z9main_mainv+0x324>)
 8001712:	4ba0      	ldr	r3, [pc, #640]	; (8001994 <_Z9main_mainv+0x328>)
 8001714:	9702      	str	r7, [sp, #8]
 8001716:	4fa0      	ldr	r7, [pc, #640]	; (8001998 <_Z9main_mainv+0x32c>)
 8001718:	802e      	strh	r6, [r5, #0]
 800171a:	8016      	strh	r6, [r2, #0]
 800171c:	701e      	strb	r6, [r3, #0]
 800171e:	4691      	mov	r9, r2
 8001720:	9301      	str	r3, [sp, #4]
 8001722:	46bb      	mov	fp, r7
 8001724:	9b01      	ldr	r3, [sp, #4]
 8001726:	781b      	ldrb	r3, [r3, #0]
 8001728:	2b00      	cmp	r3, #0
 800172a:	f000 8086 	beq.w	800183a <_Z9main_mainv+0x1ce>
 800172e:	9a01      	ldr	r2, [sp, #4]
 8001730:	2300      	movs	r3, #0
 8001732:	7013      	strb	r3, [r2, #0]
 8001734:	f8b8 3000 	ldrh.w	r3, [r8]
 8001738:	b113      	cbz	r3, 8001740 <_Z9main_mainv+0xd4>
 800173a:	3b01      	subs	r3, #1
 800173c:	f8a8 3000 	strh.w	r3, [r8]
 8001740:	f8b9 3000 	ldrh.w	r3, [r9]
 8001744:	2b00      	cmp	r3, #0
 8001746:	f000 80c4 	beq.w	80018d2 <_Z9main_mainv+0x266>
 800174a:	3b01      	subs	r3, #1
 800174c:	b29b      	uxth	r3, r3
 800174e:	f8a9 3000 	strh.w	r3, [r9]
 8001752:	f7fe fde7 	bl	8000324 <_ZL9connectedv>
 8001756:	882b      	ldrh	r3, [r5, #0]
 8001758:	2800      	cmp	r0, #0
 800175a:	f000 80bd 	beq.w	80018d8 <_Z9main_mainv+0x26c>
 800175e:	2b00      	cmp	r3, #0
 8001760:	f040 80c6 	bne.w	80018f0 <_Z9main_mainv+0x284>
 8001764:	f240 13f3 	movw	r3, #499	; 0x1f3
 8001768:	802b      	strh	r3, [r5, #0]
 800176a:	f7fe fddb 	bl	8000324 <_ZL9connectedv>
 800176e:	2800      	cmp	r0, #0
 8001770:	f000 80cf 	beq.w	8001912 <_Z9main_mainv+0x2a6>
 8001774:	4a7e      	ldr	r2, [pc, #504]	; (8001970 <_Z9main_mainv+0x304>)
 8001776:	2340      	movs	r3, #64	; 0x40
 8001778:	6193      	str	r3, [r2, #24]
 800177a:	f8b9 3000 	ldrh.w	r3, [r9]
 800177e:	2b00      	cmp	r3, #0
 8001780:	d15b      	bne.n	800183a <_Z9main_mainv+0x1ce>
 8001782:	4e86      	ldr	r6, [pc, #536]	; (800199c <_Z9main_mainv+0x330>)
 8001784:	4630      	mov	r0, r6
 8001786:	f7ff fcd4 	bl	8001132 <_ZN5Stats6UpdateEv>
 800178a:	4885      	ldr	r0, [pc, #532]	; (80019a0 <_Z9main_mainv+0x334>)
 800178c:	f7ff f9f4 	bl	8000b78 <uartc_puts>
 8001790:	4b7d      	ldr	r3, [pc, #500]	; (8001988 <_Z9main_mainv+0x31c>)
 8001792:	f893 0050 	ldrb.w	r0, [r3, #80]	; 0x50
 8001796:	f001 fbf1 	bl	8002f7c <u8toBCD_s>
 800179a:	f7ff f9ed 	bl	8000b78 <uartc_puts>
 800179e:	202c      	movs	r0, #44	; 0x2c
 80017a0:	f7ff f9cc 	bl	8000b3c <uartc_putc>
 80017a4:	7c70      	ldrb	r0, [r6, #17]
 80017a6:	f001 fbe9 	bl	8002f7c <u8toBCD_s>
 80017aa:	f7ff f9e5 	bl	8000b78 <uartc_puts>
 80017ae:	487d      	ldr	r0, [pc, #500]	; (80019a4 <_Z9main_mainv+0x338>)
 80017b0:	f7ff f9e2 	bl	8000b78 <uartc_puts>
 80017b4:	7b30      	ldrb	r0, [r6, #12]
 80017b6:	f001 fbe1 	bl	8002f7c <u8toBCD_s>
 80017ba:	f7ff f9dd 	bl	8000b78 <uartc_puts>
 80017be:	202c      	movs	r0, #44	; 0x2c
 80017c0:	f7ff f9bc 	bl	8000b3c <uartc_putc>
 80017c4:	7b70      	ldrb	r0, [r6, #13]
 80017c6:	f001 fbd9 	bl	8002f7c <u8toBCD_s>
 80017ca:	f7ff f9d5 	bl	8000b78 <uartc_puts>
 80017ce:	202c      	movs	r0, #44	; 0x2c
 80017d0:	f7ff f9b4 	bl	8000b3c <uartc_putc>
 80017d4:	7e30      	ldrb	r0, [r6, #24]
 80017d6:	f001 fbd1 	bl	8002f7c <u8toBCD_s>
 80017da:	f7ff f9cd 	bl	8000b78 <uartc_puts>
 80017de:	202c      	movs	r0, #44	; 0x2c
 80017e0:	f7ff f9ac 	bl	8000b3c <uartc_putc>
 80017e4:	7bb0      	ldrb	r0, [r6, #14]
 80017e6:	f001 fbc9 	bl	8002f7c <u8toBCD_s>
 80017ea:	f7ff f9c5 	bl	8000b78 <uartc_puts>
 80017ee:	486e      	ldr	r0, [pc, #440]	; (80019a8 <_Z9main_mainv+0x33c>)
 80017f0:	f7ff f9c2 	bl	8000b78 <uartc_puts>
 80017f4:	7ef0      	ldrb	r0, [r6, #27]
 80017f6:	f001 fbc1 	bl	8002f7c <u8toBCD_s>
 80017fa:	f7ff f9bd 	bl	8000b78 <uartc_puts>
 80017fe:	486b      	ldr	r0, [pc, #428]	; (80019ac <_Z9main_mainv+0x340>)
 8001800:	f7ff f9ba 	bl	8000b78 <uartc_puts>
 8001804:	f996 000f 	ldrsb.w	r0, [r6, #15]
 8001808:	f001 fbc2 	bl	8002f90 <s8toBCD_s>
 800180c:	f7ff f9b4 	bl	8000b78 <uartc_puts>
 8001810:	202c      	movs	r0, #44	; 0x2c
 8001812:	f7ff f993 	bl	8000b3c <uartc_putc>
 8001816:	f996 001a 	ldrsb.w	r0, [r6, #26]
 800181a:	f001 fbb9 	bl	8002f90 <s8toBCD_s>
 800181e:	f7ff f9ab 	bl	8000b78 <uartc_puts>
 8001822:	4862      	ldr	r0, [pc, #392]	; (80019ac <_Z9main_mainv+0x340>)
 8001824:	f7ff f9a8 	bl	8000b78 <uartc_puts>
 8001828:	f996 0010 	ldrsb.w	r0, [r6, #16]
 800182c:	f001 fbb0 	bl	8002f90 <s8toBCD_s>
 8001830:	f7ff f9a2 	bl	8000b78 <uartc_puts>
 8001834:	200a      	movs	r0, #10
 8001836:	f7ff f981 	bl	8000b3c <uartc_putc>
 800183a:	7826      	ldrb	r6, [r4, #0]
 800183c:	2e03      	cmp	r6, #3
 800183e:	f000 8100 	beq.w	8001a42 <_Z9main_mainv+0x3d6>
 8001842:	d86a      	bhi.n	800191a <_Z9main_mainv+0x2ae>
 8001844:	2e02      	cmp	r6, #2
 8001846:	f040 80bb 	bne.w	80019c0 <_Z9main_mainv+0x354>
 800184a:	883b      	ldrh	r3, [r7, #0]
 800184c:	b29b      	uxth	r3, r3
 800184e:	2b00      	cmp	r3, #0
 8001850:	f000 813a 	beq.w	8001ac8 <_Z9main_mainv+0x45c>
 8001854:	7823      	ldrb	r3, [r4, #0]
 8001856:	2b02      	cmp	r3, #2
 8001858:	f040 80fe 	bne.w	8001a58 <_Z9main_mainv+0x3ec>
 800185c:	883b      	ldrh	r3, [r7, #0]
 800185e:	079e      	lsls	r6, r3, #30
 8001860:	d522      	bpl.n	80018a8 <_Z9main_mainv+0x23c>
 8001862:	2300      	movs	r3, #0
 8001864:	803b      	strh	r3, [r7, #0]
 8001866:	f7ff fe89 	bl	800157c <_Z10do_receivev>
 800186a:	4606      	mov	r6, r0
 800186c:	b1c8      	cbz	r0, 80018a2 <_Z9main_mainv+0x236>
 800186e:	4850      	ldr	r0, [pc, #320]	; (80019b0 <_Z9main_mainv+0x344>)
 8001870:	f000 fb1d 	bl	8001eae <_ZN7PllBase8rx_done1Ev>
 8001874:	2e01      	cmp	r6, #1
 8001876:	bf94      	ite	ls
 8001878:	2000      	movls	r0, #0
 800187a:	2001      	movhi	r0, #1
 800187c:	f7ff fe9a 	bl	80015b4 <_Z22process_received_frameb>
 8001880:	4841      	ldr	r0, [pc, #260]	; (8001988 <_Z9main_mainv+0x31c>)
 8001882:	f7ff fd2d 	bl	80012e0 <_ZN7RxStats24doValidCrc1FrameReceivedEv>
 8001886:	2e01      	cmp	r6, #1
 8001888:	d902      	bls.n	8001890 <_Z9main_mainv+0x224>
 800188a:	483f      	ldr	r0, [pc, #252]	; (8001988 <_Z9main_mainv+0x31c>)
 800188c:	f7ff fd32 	bl	80012f4 <_ZN7RxStats20doValidFrameReceivedEv>
 8001890:	f240 2303 	movw	r3, #515	; 0x203
 8001894:	4846      	ldr	r0, [pc, #280]	; (80019b0 <_Z9main_mainv+0x344>)
 8001896:	f8a8 3000 	strh.w	r3, [r8]
 800189a:	f000 fb0f 	bl	8001ebc <_ZN7PllBase8rx_done2Ev>
 800189e:	2304      	movs	r3, #4
 80018a0:	7023      	strb	r3, [r4, #0]
 80018a2:	4839      	ldr	r0, [pc, #228]	; (8001988 <_Z9main_mainv+0x31c>)
 80018a4:	f7ff fd12 	bl	80012cc <_ZN7RxStats15doFrameReceivedEv>
 80018a8:	f8bb 3000 	ldrh.w	r3, [fp]
 80018ac:	0799      	lsls	r1, r3, #30
 80018ae:	f140 80e2 	bpl.w	8001a76 <_Z9main_mainv+0x40a>
 80018b2:	4c2f      	ldr	r4, [pc, #188]	; (8001970 <_Z9main_mainv+0x304>)
 80018b4:	2380      	movs	r3, #128	; 0x80
 80018b6:	2540      	movs	r5, #64	; 0x40
 80018b8:	61a3      	str	r3, [r4, #24]
 80018ba:	462e      	mov	r6, r5
 80018bc:	62a6      	str	r6, [r4, #40]	; 0x28
 80018be:	f241 3088 	movw	r0, #5000	; 0x1388
 80018c2:	f7fe ff91 	bl	80007e8 <delay_us>
 80018c6:	61a5      	str	r5, [r4, #24]
 80018c8:	f241 3088 	movw	r0, #5000	; 0x1388
 80018cc:	f7fe ff8c 	bl	80007e8 <delay_us>
 80018d0:	e7f4      	b.n	80018bc <_Z9main_mainv+0x250>
 80018d2:	f240 33e7 	movw	r3, #999	; 0x3e7
 80018d6:	e73a      	b.n	800174e <_Z9main_mainv+0xe2>
 80018d8:	7822      	ldrb	r2, [r4, #0]
 80018da:	3a01      	subs	r2, #1
 80018dc:	2a01      	cmp	r2, #1
 80018de:	d803      	bhi.n	80018e8 <_Z9main_mainv+0x27c>
 80018e0:	b933      	cbnz	r3, 80018f0 <_Z9main_mainv+0x284>
 80018e2:	23c7      	movs	r3, #199	; 0xc7
 80018e4:	802b      	strh	r3, [r5, #0]
 80018e6:	e740      	b.n	800176a <_Z9main_mainv+0xfe>
 80018e8:	b913      	cbnz	r3, 80018f0 <_Z9main_mainv+0x284>
 80018ea:	2331      	movs	r3, #49	; 0x31
 80018ec:	802b      	strh	r3, [r5, #0]
 80018ee:	e73c      	b.n	800176a <_Z9main_mainv+0xfe>
 80018f0:	3b01      	subs	r3, #1
 80018f2:	802b      	strh	r3, [r5, #0]
 80018f4:	882b      	ldrh	r3, [r5, #0]
 80018f6:	2b00      	cmp	r3, #0
 80018f8:	f47f af37 	bne.w	800176a <_Z9main_mainv+0xfe>
 80018fc:	f7fe fd12 	bl	8000324 <_ZL9connectedv>
 8001900:	b118      	cbz	r0, 800190a <_Z9main_mainv+0x29e>
 8001902:	2080      	movs	r0, #128	; 0x80
 8001904:	f7fe fd52 	bl	80003ac <LL_GPIO_TogglePin.constprop.0>
 8001908:	e72f      	b.n	800176a <_Z9main_mainv+0xfe>
 800190a:	2040      	movs	r0, #64	; 0x40
 800190c:	f7fe fd4e 	bl	80003ac <LL_GPIO_TogglePin.constprop.0>
 8001910:	e72b      	b.n	800176a <_Z9main_mainv+0xfe>
 8001912:	4a17      	ldr	r2, [pc, #92]	; (8001970 <_Z9main_mainv+0x304>)
 8001914:	2380      	movs	r3, #128	; 0x80
 8001916:	6193      	str	r3, [r2, #24]
 8001918:	e72f      	b.n	800177a <_Z9main_mainv+0x10e>
 800191a:	2e04      	cmp	r6, #4
 800191c:	d195      	bne.n	800184a <_Z9main_mainv+0x1de>
 800191e:	f7ff fdc5 	bl	80014ac <_Z11do_transmitv>
 8001922:	4814      	ldr	r0, [pc, #80]	; (8001974 <_Z9main_mainv+0x308>)
 8001924:	f001 fc7f 	bl	8003226 <_ZN12SxDriverBase9GetStatusEv>
 8001928:	f000 02e0 	and.w	r2, r0, #224	; 0xe0
 800192c:	2ac0      	cmp	r2, #192	; 0xc0
 800192e:	9003      	str	r0, [sp, #12]
 8001930:	f000 808f 	beq.w	8001a52 <_Z9main_mainv+0x3e6>
 8001934:	481f      	ldr	r0, [pc, #124]	; (80019b4 <_Z9main_mainv+0x348>)
 8001936:	f7ff f91f 	bl	8000b78 <uartc_puts>
 800193a:	9b03      	ldr	r3, [sp, #12]
 800193c:	f3c3 1047 	ubfx	r0, r3, #5, #8
 8001940:	f001 fb30 	bl	8002fa4 <u8toHEX_s>
 8001944:	f7ff f918 	bl	8000b78 <uartc_puts>
 8001948:	4630      	mov	r0, r6
 800194a:	f7ff fe6b 	bl	8001624 <_Z6rescueh>
 800194e:	4809      	ldr	r0, [pc, #36]	; (8001974 <_Z9main_mainv+0x308>)
 8001950:	f001 fc69 	bl	8003226 <_ZN12SxDriverBase9GetStatusEv>
 8001954:	f3c0 1047 	ubfx	r0, r0, #5, #8
 8001958:	f001 fb24 	bl	8002fa4 <u8toHEX_s>
 800195c:	f7ff f90c 	bl	8000b78 <uartc_puts>
 8001960:	2301      	movs	r3, #1
 8001962:	7023      	strb	r3, [r4, #0]
 8001964:	f8da 3000 	ldr.w	r3, [sl]
 8001968:	3301      	adds	r3, #1
 800196a:	f8ca 3000 	str.w	r3, [sl]
 800196e:	e76c      	b.n	800184a <_Z9main_mainv+0x1de>
 8001970:	48000400 	.word	0x48000400
 8001974:	20000224 	.word	0x20000224
 8001978:	2000009c 	.word	0x2000009c
 800197c:	200000c4 	.word	0x200000c4
 8001980:	200000be 	.word	0x200000be
 8001984:	12345678 	.word	0x12345678
 8001988:	20000188 	.word	0x20000188
 800198c:	200000c8 	.word	0x200000c8
 8001990:	20000230 	.word	0x20000230
 8001994:	2000009a 	.word	0x2000009a
 8001998:	200000bc 	.word	0x200000bc
 800199c:	20000208 	.word	0x20000208
 80019a0:	08003766 	.word	0x08003766
 80019a4:	0800376b 	.word	0x0800376b
 80019a8:	0800376e 	.word	0x0800376e
 80019ac:	08003771 	.word	0x08003771
 80019b0:	200000d0 	.word	0x200000d0
 80019b4:	08003777 	.word	0x08003777
 80019b8:	20000098 	.word	0x20000098
 80019bc:	200000c0 	.word	0x200000c0
 80019c0:	9b02      	ldr	r3, [sp, #8]
 80019c2:	4857      	ldr	r0, [pc, #348]	; (8001b20 <_Z9main_mainv+0x4b4>)
 80019c4:	68d9      	ldr	r1, [r3, #12]
 80019c6:	f001 fc59 	bl	800327c <_ZN12SxDriverBase14SetRfFrequencyEm>
 80019ca:	4855      	ldr	r0, [pc, #340]	; (8001b20 <_Z9main_mainv+0x4b4>)
 80019cc:	f001 fc2b 	bl	8003226 <_ZN12SxDriverBase9GetStatusEv>
 80019d0:	f000 03e0 	and.w	r3, r0, #224	; 0xe0
 80019d4:	2b80      	cmp	r3, #128	; 0x80
 80019d6:	4606      	mov	r6, r0
 80019d8:	d009      	beq.n	80019ee <_Z9main_mainv+0x382>
 80019da:	4852      	ldr	r0, [pc, #328]	; (8001b24 <_Z9main_mainv+0x4b8>)
 80019dc:	f7ff f8cc 	bl	8000b78 <uartc_puts>
 80019e0:	f3c6 1047 	ubfx	r0, r6, #5, #8
 80019e4:	f001 fade 	bl	8002fa4 <u8toHEX_s>
 80019e8:	f7ff f8c6 	bl	8000b78 <uartc_puts>
 80019ec:	e72d      	b.n	800184a <_Z9main_mainv+0x1de>
 80019ee:	4b4e      	ldr	r3, [pc, #312]	; (8001b28 <_Z9main_mainv+0x4bc>)
 80019f0:	484b      	ldr	r0, [pc, #300]	; (8001b20 <_Z9main_mainv+0x4b4>)
 80019f2:	2600      	movs	r6, #0
 80019f4:	801e      	strh	r6, [r3, #0]
 80019f6:	709e      	strb	r6, [r3, #2]
 80019f8:	4b4c      	ldr	r3, [pc, #304]	; (8001b2c <_Z9main_mainv+0x4c0>)
 80019fa:	f44f 7280 	mov.w	r2, #256	; 0x100
 80019fe:	629a      	str	r2, [r3, #40]	; 0x28
 8001a00:	f64f 71ff 	movw	r1, #65535	; 0xffff
 8001a04:	f001 fccd 	bl	80033a2 <_ZN12SxDriverBase14ClearIrqStatusEt>
 8001a08:	4632      	mov	r2, r6
 8001a0a:	2101      	movs	r1, #1
 8001a0c:	4844      	ldr	r0, [pc, #272]	; (8001b20 <_Z9main_mainv+0x4b4>)
 8001a0e:	f001 fcf9 	bl	8003404 <_ZN12SxDriverBase5SetRxEht>
 8001a12:	207d      	movs	r0, #125	; 0x7d
 8001a14:	f7fe fee8 	bl	80007e8 <delay_us>
 8001a18:	2302      	movs	r3, #2
 8001a1a:	4841      	ldr	r0, [pc, #260]	; (8001b20 <_Z9main_mainv+0x4b4>)
 8001a1c:	7023      	strb	r3, [r4, #0]
 8001a1e:	f001 fc02 	bl	8003226 <_ZN12SxDriverBase9GetStatusEv>
 8001a22:	f000 03e0 	and.w	r3, r0, #224	; 0xe0
 8001a26:	2ba0      	cmp	r3, #160	; 0xa0
 8001a28:	4606      	mov	r6, r0
 8001a2a:	f43f af0e 	beq.w	800184a <_Z9main_mainv+0x1de>
 8001a2e:	4840      	ldr	r0, [pc, #256]	; (8001b30 <_Z9main_mainv+0x4c4>)
 8001a30:	f7ff f8a2 	bl	8000b78 <uartc_puts>
 8001a34:	f3c6 1047 	ubfx	r0, r6, #5, #8
 8001a38:	f001 fab4 	bl	8002fa4 <u8toHEX_s>
 8001a3c:	f7ff f89c 	bl	8000b78 <uartc_puts>
 8001a40:	e703      	b.n	800184a <_Z9main_mainv+0x1de>
 8001a42:	f7ff fe03 	bl	800164c <_Z17link_delay_passedv>
 8001a46:	2800      	cmp	r0, #0
 8001a48:	f43f aeff 	beq.w	800184a <_Z9main_mainv+0x1de>
 8001a4c:	2304      	movs	r3, #4
 8001a4e:	7023      	strb	r3, [r4, #0]
 8001a50:	e6fb      	b.n	800184a <_Z9main_mainv+0x1de>
 8001a52:	2305      	movs	r3, #5
 8001a54:	7023      	strb	r3, [r4, #0]
 8001a56:	e6f8      	b.n	800184a <_Z9main_mainv+0x1de>
 8001a58:	2b05      	cmp	r3, #5
 8001a5a:	f47f af25 	bne.w	80018a8 <_Z9main_mainv+0x23c>
 8001a5e:	883b      	ldrh	r3, [r7, #0]
 8001a60:	07d8      	lsls	r0, r3, #31
 8001a62:	f57f af21 	bpl.w	80018a8 <_Z9main_mainv+0x23c>
 8001a66:	2300      	movs	r3, #0
 8001a68:	482f      	ldr	r0, [pc, #188]	; (8001b28 <_Z9main_mainv+0x4bc>)
 8001a6a:	803b      	strh	r3, [r7, #0]
 8001a6c:	f7ff fc4c 	bl	8001308 <_ZN7RxStats18doFrameTransmittedEv>
 8001a70:	2301      	movs	r3, #1
 8001a72:	7023      	strb	r3, [r4, #0]
 8001a74:	e718      	b.n	80018a8 <_Z9main_mainv+0x23c>
 8001a76:	f8bb 3000 	ldrh.w	r3, [fp]
 8001a7a:	07da      	lsls	r2, r3, #31
 8001a7c:	d50f      	bpl.n	8001a9e <_Z9main_mainv+0x432>
 8001a7e:	4c2d      	ldr	r4, [pc, #180]	; (8001b34 <_Z9main_mainv+0x4c8>)
 8001a80:	2340      	movs	r3, #64	; 0x40
 8001a82:	2580      	movs	r5, #128	; 0x80
 8001a84:	61a3      	str	r3, [r4, #24]
 8001a86:	462e      	mov	r6, r5
 8001a88:	62a6      	str	r6, [r4, #40]	; 0x28
 8001a8a:	f241 3088 	movw	r0, #5000	; 0x1388
 8001a8e:	f7fe feab 	bl	80007e8 <delay_us>
 8001a92:	61a5      	str	r5, [r4, #24]
 8001a94:	f241 3088 	movw	r0, #5000	; 0x1388
 8001a98:	f7fe fea6 	bl	80007e8 <delay_us>
 8001a9c:	e7f4      	b.n	8001a88 <_Z9main_mainv+0x41c>
 8001a9e:	f8bb 3000 	ldrh.w	r3, [fp]
 8001aa2:	045b      	lsls	r3, r3, #17
 8001aa4:	d510      	bpl.n	8001ac8 <_Z9main_mainv+0x45c>
 8001aa6:	2640      	movs	r6, #64	; 0x40
 8001aa8:	4c22      	ldr	r4, [pc, #136]	; (8001b34 <_Z9main_mainv+0x4c8>)
 8001aaa:	4637      	mov	r7, r6
 8001aac:	2580      	movs	r5, #128	; 0x80
 8001aae:	62a7      	str	r7, [r4, #40]	; 0x28
 8001ab0:	f24c 3050 	movw	r0, #50000	; 0xc350
 8001ab4:	62a5      	str	r5, [r4, #40]	; 0x28
 8001ab6:	f7fe fe97 	bl	80007e8 <delay_us>
 8001aba:	61a6      	str	r6, [r4, #24]
 8001abc:	f24c 3050 	movw	r0, #50000	; 0xc350
 8001ac0:	61a5      	str	r5, [r4, #24]
 8001ac2:	f7fe fe91 	bl	80007e8 <delay_us>
 8001ac6:	e7f1      	b.n	8001aac <_Z9main_mainv+0x440>
 8001ac8:	4b1b      	ldr	r3, [pc, #108]	; (8001b38 <_Z9main_mainv+0x4cc>)
 8001aca:	781a      	ldrb	r2, [r3, #0]
 8001acc:	2a00      	cmp	r2, #0
 8001ace:	f43f ae29 	beq.w	8001724 <_Z9main_mainv+0xb8>
 8001ad2:	2200      	movs	r2, #0
 8001ad4:	701a      	strb	r2, [r3, #0]
 8001ad6:	7823      	ldrb	r3, [r4, #0]
 8001ad8:	b12b      	cbz	r3, 8001ae6 <_Z9main_mainv+0x47a>
 8001ada:	4813      	ldr	r0, [pc, #76]	; (8001b28 <_Z9main_mainv+0x4bc>)
 8001adc:	f7ff fbc8 	bl	8001270 <_ZN7RxStats4NextEv>
 8001ae0:	4811      	ldr	r0, [pc, #68]	; (8001b28 <_Z9main_mainv+0x4bc>)
 8001ae2:	f7ff fbd3 	bl	800128c <_ZN7RxStats3SetEv>
 8001ae6:	4b10      	ldr	r3, [pc, #64]	; (8001b28 <_Z9main_mainv+0x4bc>)
 8001ae8:	2200      	movs	r2, #0
 8001aea:	801a      	strh	r2, [r3, #0]
 8001aec:	709a      	strb	r2, [r3, #2]
 8001aee:	f7fe fc19 	bl	8000324 <_ZL9connectedv>
 8001af2:	2800      	cmp	r0, #0
 8001af4:	f43f ae16 	beq.w	8001724 <_Z9main_mainv+0xb8>
 8001af8:	7823      	ldrb	r3, [r4, #0]
 8001afa:	3b04      	subs	r3, #4
 8001afc:	2b01      	cmp	r3, #1
 8001afe:	d909      	bls.n	8001b14 <_Z9main_mainv+0x4a8>
 8001b00:	4807      	ldr	r0, [pc, #28]	; (8001b20 <_Z9main_mainv+0x4b4>)
 8001b02:	f001 fccf 	bl	80034a4 <_ZN12SxDriverBase5SetFsEv>
 8001b06:	2304      	movs	r3, #4
 8001b08:	7023      	strb	r3, [r4, #0]
 8001b0a:	f7fe fc0b 	bl	8000324 <_ZL9connectedv>
 8001b0e:	2800      	cmp	r0, #0
 8001b10:	f43f ae08 	beq.w	8001724 <_Z9main_mainv+0xb8>
 8001b14:	4909      	ldr	r1, [pc, #36]	; (8001b3c <_Z9main_mainv+0x4d0>)
 8001b16:	480a      	ldr	r0, [pc, #40]	; (8001b40 <_Z9main_mainv+0x4d4>)
 8001b18:	f000 f92a 	bl	8001d70 <_ZN7OutBase11send_rcdataEP7tRcData>
 8001b1c:	e602      	b.n	8001724 <_Z9main_mainv+0xb8>
 8001b1e:	bf00      	nop
 8001b20:	20000224 	.word	0x20000224
 8001b24:	08003774 	.word	0x08003774
 8001b28:	20000188 	.word	0x20000188
 8001b2c:	48000c00 	.word	0x48000c00
 8001b30:	08003775 	.word	0x08003775
 8001b34:	48000400 	.word	0x48000400
 8001b38:	2000009b 	.word	0x2000009b
 8001b3c:	20000104 	.word	0x20000104
 8001b40:	200000c8 	.word	0x200000c8

08001b44 <_GLOBAL__sub_I_rcc_init_afio>:
 8001b44:	4b08      	ldr	r3, [pc, #32]	; (8001b68 <_GLOBAL__sub_I_rcc_init_afio+0x24>)
 8001b46:	4a09      	ldr	r2, [pc, #36]	; (8001b6c <_GLOBAL__sub_I_rcc_init_afio+0x28>)
 8001b48:	b510      	push	{r4, lr}
 8001b4a:	601a      	str	r2, [r3, #0]
 8001b4c:	4c08      	ldr	r4, [pc, #32]	; (8001b70 <_GLOBAL__sub_I_rcc_init_afio+0x2c>)
 8001b4e:	4b09      	ldr	r3, [pc, #36]	; (8001b74 <_GLOBAL__sub_I_rcc_init_afio+0x30>)
 8001b50:	2200      	movs	r2, #0
 8001b52:	701a      	strb	r2, [r3, #0]
 8001b54:	4620      	mov	r0, r4
 8001b56:	f000 f921 	bl	8001d9c <_ZN7PllBaseC1Ev>
 8001b5a:	4b07      	ldr	r3, [pc, #28]	; (8001b78 <_GLOBAL__sub_I_rcc_init_afio+0x34>)
 8001b5c:	6023      	str	r3, [r4, #0]
 8001b5e:	4b07      	ldr	r3, [pc, #28]	; (8001b7c <_GLOBAL__sub_I_rcc_init_afio+0x38>)
 8001b60:	4a07      	ldr	r2, [pc, #28]	; (8001b80 <_GLOBAL__sub_I_rcc_init_afio+0x3c>)
 8001b62:	601a      	str	r2, [r3, #0]
 8001b64:	bd10      	pop	{r4, pc}
 8001b66:	bf00      	nop
 8001b68:	20000224 	.word	0x20000224
 8001b6c:	08003784 	.word	0x08003784
 8001b70:	200000d0 	.word	0x200000d0
 8001b74:	2000009c 	.word	0x2000009c
 8001b78:	080037a0 	.word	0x080037a0
 8001b7c:	200000c8 	.word	0x200000c8
 8001b80:	080037b0 	.word	0x080037b0

08001b84 <_ZN7OutBase4InitEv>:
 8001b84:	23ff      	movs	r3, #255	; 0xff
 8001b86:	7103      	strb	r3, [r0, #4]
 8001b88:	4770      	bx	lr

08001b8a <_ZN7OutBase9ConfigureEh>:
 8001b8a:	7902      	ldrb	r2, [r0, #4]
 8001b8c:	428a      	cmp	r2, r1
 8001b8e:	d004      	beq.n	8001b9a <_ZN7OutBase9ConfigureEh+0x10>
 8001b90:	7101      	strb	r1, [r0, #4]
 8001b92:	b911      	cbnz	r1, 8001b9a <_ZN7OutBase9ConfigureEh+0x10>
 8001b94:	6803      	ldr	r3, [r0, #0]
 8001b96:	685b      	ldr	r3, [r3, #4]
 8001b98:	4718      	bx	r3
 8001b9a:	4770      	bx	lr

08001b9c <_ZN7OutBase6putbufEPht>:
 8001b9c:	b570      	push	{r4, r5, r6, lr}
 8001b9e:	4605      	mov	r5, r0
 8001ba0:	460c      	mov	r4, r1
 8001ba2:	188e      	adds	r6, r1, r2
 8001ba4:	42b4      	cmp	r4, r6
 8001ba6:	d006      	beq.n	8001bb6 <_ZN7OutBase6putbufEPht+0x1a>
 8001ba8:	682b      	ldr	r3, [r5, #0]
 8001baa:	f814 1b01 	ldrb.w	r1, [r4], #1
 8001bae:	681b      	ldr	r3, [r3, #0]
 8001bb0:	4628      	mov	r0, r5
 8001bb2:	4798      	blx	r3
 8001bb4:	e7f6      	b.n	8001ba4 <_ZN7OutBase6putbufEPht+0x8>
 8001bb6:	bd70      	pop	{r4, r5, r6, pc}

08001bb8 <_ZN7OutBase16send_sbus_rcdataEP7tRcData>:
 8001bb8:	e92d 4ff0 	stmdb	sp!, {r4, r5, r6, r7, r8, r9, sl, fp, lr}
 8001bbc:	88ca      	ldrh	r2, [r1, #6]
 8001bbe:	f8b1 c018 	ldrh.w	ip, [r1, #24]
 8001bc2:	f8b1 b000 	ldrh.w	fp, [r1]
 8001bc6:	888e      	ldrh	r6, [r1, #4]
 8001bc8:	894d      	ldrh	r5, [r1, #10]
 8001bca:	8a0c      	ldrh	r4, [r1, #16]
 8001bcc:	f8b1 901a 	ldrh.w	r9, [r1, #26]
 8001bd0:	f8b1 e01e 	ldrh.w	lr, [r1, #30]
 8001bd4:	f8b1 a002 	ldrh.w	sl, [r1, #2]
 8001bd8:	b08f      	sub	sp, #60	; 0x3c
 8001bda:	f44f 63c8 	mov.w	r3, #1600	; 0x640
 8001bde:	f240 77ff 	movw	r7, #2047	; 0x7ff
 8001be2:	435a      	muls	r2, r3
 8001be4:	fbb2 f2f7 	udiv	r2, r2, r7
 8001be8:	32c8      	adds	r2, #200	; 0xc8
 8001bea:	9202      	str	r2, [sp, #8]
 8001bec:	890a      	ldrh	r2, [r1, #8]
 8001bee:	435a      	muls	r2, r3
 8001bf0:	fbb2 f2f7 	udiv	r2, r2, r7
 8001bf4:	32c8      	adds	r2, #200	; 0xc8
 8001bf6:	9203      	str	r2, [sp, #12]
 8001bf8:	898a      	ldrh	r2, [r1, #12]
 8001bfa:	435a      	muls	r2, r3
 8001bfc:	fbb2 f2f7 	udiv	r2, r2, r7
 8001c00:	32c8      	adds	r2, #200	; 0xc8
 8001c02:	9204      	str	r2, [sp, #16]
 8001c04:	89ca      	ldrh	r2, [r1, #14]
 8001c06:	435a      	muls	r2, r3
 8001c08:	fbb2 f2f7 	udiv	r2, r2, r7
 8001c0c:	32c8      	adds	r2, #200	; 0xc8
 8001c0e:	9205      	str	r2, [sp, #20]
 8001c10:	8a4a      	ldrh	r2, [r1, #18]
 8001c12:	435a      	muls	r2, r3
 8001c14:	fbb2 f2f7 	udiv	r2, r2, r7
 8001c18:	32c8      	adds	r2, #200	; 0xc8
 8001c1a:	9206      	str	r2, [sp, #24]
 8001c1c:	8a8a      	ldrh	r2, [r1, #20]
 8001c1e:	435a      	muls	r2, r3
 8001c20:	fbb2 f2f7 	udiv	r2, r2, r7
 8001c24:	32c8      	adds	r2, #200	; 0xc8
 8001c26:	9207      	str	r2, [sp, #28]
 8001c28:	8aca      	ldrh	r2, [r1, #22]
 8001c2a:	435a      	muls	r2, r3
 8001c2c:	fbb2 f2f7 	udiv	r2, r2, r7
 8001c30:	32c8      	adds	r2, #200	; 0xc8
 8001c32:	9201      	str	r2, [sp, #4]
 8001c34:	fb03 fc0c 	mul.w	ip, r3, ip
 8001c38:	fbbc fcf7 	udiv	ip, ip, r7
 8001c3c:	f10c 02c8 	add.w	r2, ip, #200	; 0xc8
 8001c40:	f8b1 c01c 	ldrh.w	ip, [r1, #28]
 8001c44:	435e      	muls	r6, r3
 8001c46:	435d      	muls	r5, r3
 8001c48:	435c      	muls	r4, r3
 8001c4a:	fb03 f909 	mul.w	r9, r3, r9
 8001c4e:	fb03 fc0c 	mul.w	ip, r3, ip
 8001c52:	fb03 fe0e 	mul.w	lr, r3, lr
 8001c56:	fb03 fa0a 	mul.w	sl, r3, sl
 8001c5a:	fb03 f30b 	mul.w	r3, r3, fp
 8001c5e:	fbba faf7 	udiv	sl, sl, r7
 8001c62:	fbb3 f3f7 	udiv	r3, r3, r7
 8001c66:	f10a 0ac8 	add.w	sl, sl, #200	; 0xc8
 8001c6a:	33c8      	adds	r3, #200	; 0xc8
 8001c6c:	f3ca 0a0a 	ubfx	sl, sl, #0, #11
 8001c70:	f3c3 030a 	ubfx	r3, r3, #0, #11
 8001c74:	ea43 23ca 	orr.w	r3, r3, sl, lsl #11
 8001c78:	fbb6 f6f7 	udiv	r6, r6, r7
 8001c7c:	36c8      	adds	r6, #200	; 0xc8
 8001c7e:	ea43 5386 	orr.w	r3, r3, r6, lsl #22
 8001c82:	9308      	str	r3, [sp, #32]
 8001c84:	9b02      	ldr	r3, [sp, #8]
 8001c86:	fbb5 f5f7 	udiv	r5, r5, r7
 8001c8a:	f3c3 030a 	ubfx	r3, r3, #0, #11
 8001c8e:	f3c6 2680 	ubfx	r6, r6, #10, #1
 8001c92:	ea46 0643 	orr.w	r6, r6, r3, lsl #1
 8001c96:	9b03      	ldr	r3, [sp, #12]
 8001c98:	fbb4 f4f7 	udiv	r4, r4, r7
 8001c9c:	f3c3 030a 	ubfx	r3, r3, #0, #11
 8001ca0:	ea46 3603 	orr.w	r6, r6, r3, lsl #12
 8001ca4:	9b04      	ldr	r3, [sp, #16]
 8001ca6:	fbb9 f9f7 	udiv	r9, r9, r7
 8001caa:	35c8      	adds	r5, #200	; 0xc8
 8001cac:	ea46 56c5 	orr.w	r6, r6, r5, lsl #23
 8001cb0:	f3c3 030a 	ubfx	r3, r3, #0, #11
 8001cb4:	f3c5 2541 	ubfx	r5, r5, #9, #2
 8001cb8:	ea45 0583 	orr.w	r5, r5, r3, lsl #2
 8001cbc:	9b05      	ldr	r3, [sp, #20]
 8001cbe:	9609      	str	r6, [sp, #36]	; 0x24
 8001cc0:	f3c3 030a 	ubfx	r3, r3, #0, #11
 8001cc4:	ea45 3543 	orr.w	r5, r5, r3, lsl #13
 8001cc8:	9b06      	ldr	r3, [sp, #24]
 8001cca:	fbbc fcf7 	udiv	ip, ip, r7
 8001cce:	34c8      	adds	r4, #200	; 0xc8
 8001cd0:	ea45 6504 	orr.w	r5, r5, r4, lsl #24
 8001cd4:	f3c3 030a 	ubfx	r3, r3, #0, #11
 8001cd8:	f3c4 2402 	ubfx	r4, r4, #8, #3
 8001cdc:	950a      	str	r5, [sp, #40]	; 0x28
 8001cde:	ea44 04c3 	orr.w	r4, r4, r3, lsl #3
 8001ce2:	9b07      	ldr	r3, [sp, #28]
 8001ce4:	fbbe fef7 	udiv	lr, lr, r7
 8001ce8:	f3c3 030a 	ubfx	r3, r3, #0, #11
 8001cec:	ea44 3483 	orr.w	r4, r4, r3, lsl #14
 8001cf0:	9b01      	ldr	r3, [sp, #4]
 8001cf2:	ea44 6443 	orr.w	r4, r4, r3, lsl #25
 8001cf6:	f3c2 030a 	ubfx	r3, r2, #0, #11
 8001cfa:	9a01      	ldr	r2, [sp, #4]
 8001cfc:	940b      	str	r4, [sp, #44]	; 0x2c
 8001cfe:	f109 09c8 	add.w	r9, r9, #200	; 0xc8
 8001d02:	f3c2 12c3 	ubfx	r2, r2, #7, #4
 8001d06:	ea42 1203 	orr.w	r2, r2, r3, lsl #4
 8001d0a:	f3c9 090a 	ubfx	r9, r9, #0, #11
 8001d0e:	8c0b      	ldrh	r3, [r1, #32]
 8001d10:	f10c 0cc8 	add.w	ip, ip, #200	; 0xc8
 8001d14:	ea42 32c9 	orr.w	r2, r2, r9, lsl #15
 8001d18:	f10e 0ec8 	add.w	lr, lr, #200	; 0xc8
 8001d1c:	ea42 628c 	orr.w	r2, r2, ip, lsl #26
 8001d20:	fa1f fe8e 	uxth.w	lr, lr
 8001d24:	f3cc 1c84 	ubfx	ip, ip, #6, #5
 8001d28:	f5b3 6fc0 	cmp.w	r3, #1536	; 0x600
 8001d2c:	ea4c 1e4e 	orr.w	lr, ip, lr, lsl #5
 8001d30:	6803      	ldr	r3, [r0, #0]
 8001d32:	f8ad e034 	strh.w	lr, [sp, #52]	; 0x34
 8001d36:	920c      	str	r2, [sp, #48]	; 0x30
 8001d38:	4680      	mov	r8, r0
 8001d3a:	681b      	ldr	r3, [r3, #0]
 8001d3c:	f04f 010f 	mov.w	r1, #15
 8001d40:	bf34      	ite	cc
 8001d42:	2400      	movcc	r4, #0
 8001d44:	2403      	movcs	r4, #3
 8001d46:	4798      	blx	r3
 8001d48:	2216      	movs	r2, #22
 8001d4a:	a908      	add	r1, sp, #32
 8001d4c:	4640      	mov	r0, r8
 8001d4e:	f7ff ff25 	bl	8001b9c <_ZN7OutBase6putbufEPht>
 8001d52:	f8d8 3000 	ldr.w	r3, [r8]
 8001d56:	4621      	mov	r1, r4
 8001d58:	4640      	mov	r0, r8
 8001d5a:	681b      	ldr	r3, [r3, #0]
 8001d5c:	4798      	blx	r3
 8001d5e:	f8d8 3000 	ldr.w	r3, [r8]
 8001d62:	2100      	movs	r1, #0
 8001d64:	681b      	ldr	r3, [r3, #0]
 8001d66:	4640      	mov	r0, r8
 8001d68:	4798      	blx	r3
 8001d6a:	b00f      	add	sp, #60	; 0x3c
 8001d6c:	e8bd 8ff0 	ldmia.w	sp!, {r4, r5, r6, r7, r8, r9, sl, fp, pc}

08001d70 <_ZN7OutBase11send_rcdataEP7tRcData>:
 8001d70:	7903      	ldrb	r3, [r0, #4]
 8001d72:	b90b      	cbnz	r3, 8001d78 <_ZN7OutBase11send_rcdataEP7tRcData+0x8>
 8001d74:	f7ff bf20 	b.w	8001bb8 <_ZN7OutBase16send_sbus_rcdataEP7tRcData>
 8001d78:	4770      	bx	lr

08001d7a <_ZN7PllBase8ResetAllEv>:
 8001d7a:	f04f 32ff 	mov.w	r2, #4294967295
 8001d7e:	2300      	movs	r3, #0
 8001d80:	6102      	str	r2, [r0, #16]
 8001d82:	f44f 027f 	mov.w	r2, #16711680	; 0xff0000
 8001d86:	7183      	strb	r3, [r0, #6]
 8001d88:	8103      	strh	r3, [r0, #8]
 8001d8a:	7283      	strb	r3, [r0, #10]
 8001d8c:	8183      	strh	r3, [r0, #12]
 8001d8e:	7583      	strb	r3, [r0, #22]
 8001d90:	6182      	str	r2, [r0, #24]
 8001d92:	7703      	strb	r3, [r0, #28]
 8001d94:	f880 302a 	strb.w	r3, [r0, #42]	; 0x2a
 8001d98:	8583      	strh	r3, [r0, #44]	; 0x2c
 8001d9a:	4770      	bx	lr

08001d9c <_ZN7PllBaseC1Ev>:
 8001d9c:	b508      	push	{r3, lr}
 8001d9e:	4b04      	ldr	r3, [pc, #16]	; (8001db0 <_ZN7PllBaseC1Ev+0x14>)
 8001da0:	6003      	str	r3, [r0, #0]
 8001da2:	2304      	movs	r3, #4
 8001da4:	8283      	strh	r3, [r0, #20]
 8001da6:	2300      	movs	r3, #0
 8001da8:	7743      	strb	r3, [r0, #29]
 8001daa:	f7ff ffe6 	bl	8001d7a <_ZN7PllBase8ResetAllEv>
 8001dae:	bd08      	pop	{r3, pc}
 8001db0:	080037cc 	.word	0x080037cc

08001db4 <_ZN7PllBase4InitEt>:
 8001db4:	230a      	movs	r3, #10
 8001db6:	b510      	push	{r4, lr}
 8001db8:	fbb1 f1f3 	udiv	r1, r1, r3
 8001dbc:	8081      	strh	r1, [r0, #4]
 8001dbe:	f7ff ffdc 	bl	8001d7a <_ZN7PllBase8ResetAllEv>
 8001dc2:	6803      	ldr	r3, [r0, #0]
 8001dc4:	8881      	ldrh	r1, [r0, #4]
 8001dc6:	685b      	ldr	r3, [r3, #4]
 8001dc8:	e8bd 4010 	ldmia.w	sp!, {r4, lr}
 8001dcc:	4718      	bx	r3

08001dce <_ZN7PllBase4tickEv>:
 8001dce:	b538      	push	{r3, r4, r5, lr}
 8001dd0:	6803      	ldr	r3, [r0, #0]
 8001dd2:	2501      	movs	r5, #1
 8001dd4:	681b      	ldr	r3, [r3, #0]
 8001dd6:	7185      	strb	r5, [r0, #6]
 8001dd8:	4604      	mov	r4, r0
 8001dda:	4798      	blx	r3
 8001ddc:	7765      	strb	r5, [r4, #29]
 8001dde:	8120      	strh	r0, [r4, #8]
 8001de0:	bd38      	pop	{r3, r4, r5, pc}

08001de2 <_ZN7PllBase6updateEv>:
 8001de2:	7983      	ldrb	r3, [r0, #6]
 8001de4:	b570      	push	{r4, r5, r6, lr}
 8001de6:	4604      	mov	r4, r0
 8001de8:	b923      	cbnz	r3, 8001df4 <_ZN7PllBase6updateEv+0x12>
 8001dea:	f64f 75ff 	movw	r5, #65535	; 0xffff
 8001dee:	f647 76ff 	movw	r6, #32767	; 0x7fff
 8001df2:	e040      	b.n	8001e76 <_ZN7PllBase6updateEv+0x94>
 8001df4:	7a83      	ldrb	r3, [r0, #10]
 8001df6:	7d82      	ldrb	r2, [r0, #22]
 8001df8:	2b00      	cmp	r3, #0
 8001dfa:	d04f      	beq.n	8001e9c <_ZN7PllBase6updateEv+0xba>
 8001dfc:	2a01      	cmp	r2, #1
 8001dfe:	d9f4      	bls.n	8001dea <_ZN7PllBase6updateEv+0x8>
 8001e00:	8b03      	ldrh	r3, [r0, #24]
 8001e02:	8901      	ldrh	r1, [r0, #8]
 8001e04:	2bfe      	cmp	r3, #254	; 0xfe
 8001e06:	bf9c      	itt	ls
 8001e08:	3301      	addls	r3, #1
 8001e0a:	8303      	strhls	r3, [r0, #24]
 8001e0c:	2300      	movs	r3, #0
 8001e0e:	8343      	strh	r3, [r0, #26]
 8001e10:	8983      	ldrh	r3, [r0, #12]
 8001e12:	1ac9      	subs	r1, r1, r3
 8001e14:	f3c1 33c0 	ubfx	r3, r1, #15, #1
 8001e18:	b20e      	sxth	r6, r1
 8001e1a:	fa03 f181 	sxtah	r1, r3, r1
 8001e1e:	7f03      	ldrb	r3, [r0, #28]
 8001e20:	1049      	asrs	r1, r1, #1
 8001e22:	b133      	cbz	r3, 8001e32 <_ZN7PllBase6updateEv+0x50>
 8001e24:	2ec9      	cmp	r6, #201	; 0xc9
 8001e26:	dc37      	bgt.n	8001e98 <_ZN7PllBase6updateEv+0xb6>
 8001e28:	f06f 0363 	mvn.w	r3, #99	; 0x63
 8001e2c:	4299      	cmp	r1, r3
 8001e2e:	bfb8      	it	lt
 8001e30:	4619      	movlt	r1, r3
 8001e32:	88a5      	ldrh	r5, [r4, #4]
 8001e34:	6823      	ldr	r3, [r4, #0]
 8001e36:	1a69      	subs	r1, r5, r1
 8001e38:	b28d      	uxth	r5, r1
 8001e3a:	685b      	ldr	r3, [r3, #4]
 8001e3c:	4629      	mov	r1, r5
 8001e3e:	4620      	mov	r0, r4
 8001e40:	4798      	blx	r3
 8001e42:	6922      	ldr	r2, [r4, #16]
 8001e44:	8aa1      	ldrh	r1, [r4, #20]
 8001e46:	ea86 73e6 	eor.w	r3, r6, r6, asr #31
 8001e4a:	eba3 73e6 	sub.w	r3, r3, r6, asr #31
 8001e4e:	3201      	adds	r2, #1
 8001e50:	b29b      	uxth	r3, r3
 8001e52:	bf04      	itt	eq
 8001e54:	fb03 f201 	muleq.w	r2, r3, r1
 8001e58:	6122      	streq	r2, [r4, #16]
 8001e5a:	6922      	ldr	r2, [r4, #16]
 8001e5c:	fbb2 f0f1 	udiv	r0, r2, r1
 8001e60:	1a12      	subs	r2, r2, r0
 8001e62:	4413      	add	r3, r2
 8001e64:	7f22      	ldrb	r2, [r4, #28]
 8001e66:	6123      	str	r3, [r4, #16]
 8001e68:	b92a      	cbnz	r2, 8001e76 <_ZN7PllBase6updateEv+0x94>
 8001e6a:	fbb3 f3f1 	udiv	r3, r3, r1
 8001e6e:	2b04      	cmp	r3, #4
 8001e70:	d801      	bhi.n	8001e76 <_ZN7PllBase6updateEv+0x94>
 8001e72:	2301      	movs	r3, #1
 8001e74:	7723      	strb	r3, [r4, #28]
 8001e76:	2300      	movs	r3, #0
 8001e78:	89a2      	ldrh	r2, [r4, #12]
 8001e7a:	71a3      	strb	r3, [r4, #6]
 8001e7c:	72a3      	strb	r3, [r4, #10]
 8001e7e:	8522      	strh	r2, [r4, #40]	; 0x28
 8001e80:	8da3      	ldrh	r3, [r4, #44]	; 0x2c
 8001e82:	8922      	ldrh	r2, [r4, #8]
 8001e84:	83e2      	strh	r2, [r4, #30]
 8001e86:	2201      	movs	r2, #1
 8001e88:	8463      	strh	r3, [r4, #34]	; 0x22
 8001e8a:	4413      	add	r3, r2
 8001e8c:	84a5      	strh	r5, [r4, #36]	; 0x24
 8001e8e:	84e6      	strh	r6, [r4, #38]	; 0x26
 8001e90:	f884 202a 	strb.w	r2, [r4, #42]	; 0x2a
 8001e94:	85a3      	strh	r3, [r4, #44]	; 0x2c
 8001e96:	bd70      	pop	{r4, r5, r6, pc}
 8001e98:	2164      	movs	r1, #100	; 0x64
 8001e9a:	e7ca      	b.n	8001e32 <_ZN7PllBase6updateEv+0x50>
 8001e9c:	2a01      	cmp	r2, #1
 8001e9e:	d9a4      	bls.n	8001dea <_ZN7PllBase6updateEv+0x8>
 8001ea0:	8303      	strh	r3, [r0, #24]
 8001ea2:	8b43      	ldrh	r3, [r0, #26]
 8001ea4:	2bfe      	cmp	r3, #254	; 0xfe
 8001ea6:	bf9c      	itt	ls
 8001ea8:	3301      	addls	r3, #1
 8001eaa:	8343      	strhls	r3, [r0, #26]
 8001eac:	e79d      	b.n	8001dea <_ZN7PllBase6updateEv+0x8>

08001eae <_ZN7PllBase8rx_done1Ev>:
 8001eae:	6803      	ldr	r3, [r0, #0]
 8001eb0:	b510      	push	{r4, lr}
 8001eb2:	681b      	ldr	r3, [r3, #0]
 8001eb4:	4604      	mov	r4, r0
 8001eb6:	4798      	blx	r3
 8001eb8:	81e0      	strh	r0, [r4, #14]
 8001eba:	bd10      	pop	{r4, pc}

08001ebc <_ZN7PllBase8rx_done2Ev>:
 8001ebc:	7d83      	ldrb	r3, [r0, #22]
 8001ebe:	89c1      	ldrh	r1, [r0, #14]
 8001ec0:	b510      	push	{r4, lr}
 8001ec2:	b12b      	cbz	r3, 8001ed0 <_ZN7PllBase8rx_done2Ev+0x14>
 8001ec4:	2b01      	cmp	r3, #1
 8001ec6:	d006      	beq.n	8001ed6 <_ZN7PllBase8rx_done2Ev+0x1a>
 8001ec8:	2301      	movs	r3, #1
 8001eca:	7283      	strb	r3, [r0, #10]
 8001ecc:	8181      	strh	r1, [r0, #12]
 8001ece:	bd10      	pop	{r4, pc}
 8001ed0:	2301      	movs	r3, #1
 8001ed2:	7583      	strb	r3, [r0, #22]
 8001ed4:	e7f8      	b.n	8001ec8 <_ZN7PllBase8rx_done2Ev+0xc>
 8001ed6:	8983      	ldrh	r3, [r0, #12]
 8001ed8:	8882      	ldrh	r2, [r0, #4]
 8001eda:	1acb      	subs	r3, r1, r3
 8001edc:	b29b      	uxth	r3, r3
 8001ede:	f1a2 0409 	sub.w	r4, r2, #9
 8001ee2:	429c      	cmp	r4, r3
 8001ee4:	dcf0      	bgt.n	8001ec8 <_ZN7PllBase8rx_done2Ev+0xc>
 8001ee6:	3209      	adds	r2, #9
 8001ee8:	4293      	cmp	r3, r2
 8001eea:	dced      	bgt.n	8001ec8 <_ZN7PllBase8rx_done2Ev+0xc>
 8001eec:	2302      	movs	r3, #2
 8001eee:	e7f0      	b.n	8001ed2 <_ZN7PllBase8rx_done2Ev+0x16>

08001ef0 <_Z18SystemClock_Configv>:
 8001ef0:	b510      	push	{r4, lr}
 8001ef2:	b090      	sub	sp, #64	; 0x40
 8001ef4:	2210      	movs	r2, #16
 8001ef6:	2100      	movs	r1, #0
 8001ef8:	a809      	add	r0, sp, #36	; 0x24
 8001efa:	f001 fb51 	bl	80035a0 <memset>
 8001efe:	2214      	movs	r2, #20
 8001f00:	2100      	movs	r1, #0
 8001f02:	a801      	add	r0, sp, #4
 8001f04:	f001 fb4c 	bl	80035a0 <memset>
 8001f08:	2301      	movs	r3, #1
 8001f0a:	f44f 3280 	mov.w	r2, #65536	; 0x10000
 8001f0e:	e9cd 3206 	strd	r3, r2, [sp, #24]
 8001f12:	9308      	str	r3, [sp, #32]
 8001f14:	930a      	str	r3, [sp, #40]	; 0x28
 8001f16:	2402      	movs	r4, #2
 8001f18:	f44f 13e0 	mov.w	r3, #1835008	; 0x1c0000
 8001f1c:	a806      	add	r0, sp, #24
 8001f1e:	e9cd 420d 	strd	r4, r2, [sp, #52]	; 0x34
 8001f22:	930f      	str	r3, [sp, #60]	; 0x3c
 8001f24:	f000 f930 	bl	8002188 <HAL_RCC_OscConfig>
 8001f28:	b108      	cbz	r0, 8001f2e <_Z18SystemClock_Configv+0x3e>
 8001f2a:	b672      	cpsid	i
 8001f2c:	e7fe      	b.n	8001f2c <_Z18SystemClock_Configv+0x3c>
 8001f2e:	230f      	movs	r3, #15
 8001f30:	e9cd 3401 	strd	r3, r4, [sp, #4]
 8001f34:	f44f 6380 	mov.w	r3, #1024	; 0x400
 8001f38:	e9cd 3004 	strd	r3, r0, [sp, #16]
 8001f3c:	9003      	str	r0, [sp, #12]
 8001f3e:	4621      	mov	r1, r4
 8001f40:	a801      	add	r0, sp, #4
 8001f42:	f000 fbdd 	bl	8002700 <HAL_RCC_ClockConfig>
 8001f46:	b108      	cbz	r0, 8001f4c <_Z18SystemClock_Configv+0x5c>
 8001f48:	b672      	cpsid	i
 8001f4a:	e7fe      	b.n	8001f4a <_Z18SystemClock_Configv+0x5a>
 8001f4c:	b010      	add	sp, #64	; 0x40
 8001f4e:	bd10      	pop	{r4, pc}

08001f50 <main>:
 8001f50:	b507      	push	{r0, r1, r2, lr}
 8001f52:	f000 f8a7 	bl	80020a4 <HAL_Init>
 8001f56:	f7ff ffcb 	bl	8001ef0 <_Z18SystemClock_Configv>
 8001f5a:	4b0c      	ldr	r3, [pc, #48]	; (8001f8c <main+0x3c>)
 8001f5c:	695a      	ldr	r2, [r3, #20]
 8001f5e:	f442 0280 	orr.w	r2, r2, #4194304	; 0x400000
 8001f62:	615a      	str	r2, [r3, #20]
 8001f64:	695a      	ldr	r2, [r3, #20]
 8001f66:	f402 0280 	and.w	r2, r2, #4194304	; 0x400000
 8001f6a:	9201      	str	r2, [sp, #4]
 8001f6c:	9a01      	ldr	r2, [sp, #4]
 8001f6e:	695a      	ldr	r2, [r3, #20]
 8001f70:	f442 3200 	orr.w	r2, r2, #131072	; 0x20000
 8001f74:	615a      	str	r2, [r3, #20]
 8001f76:	695b      	ldr	r3, [r3, #20]
 8001f78:	f403 3300 	and.w	r3, r3, #131072	; 0x20000
 8001f7c:	9300      	str	r3, [sp, #0]
 8001f7e:	9b00      	ldr	r3, [sp, #0]
 8001f80:	b003      	add	sp, #12
 8001f82:	f85d eb04 	ldr.w	lr, [sp], #4
 8001f86:	f7ff bb71 	b.w	800166c <_Z9main_mainv>
 8001f8a:	bf00      	nop
 8001f8c:	40021000 	.word	0x40021000

08001f90 <HAL_MspInit>:
 8001f90:	4b0a      	ldr	r3, [pc, #40]	; (8001fbc <HAL_MspInit+0x2c>)
 8001f92:	699a      	ldr	r2, [r3, #24]
 8001f94:	f042 0201 	orr.w	r2, r2, #1
 8001f98:	619a      	str	r2, [r3, #24]
 8001f9a:	699a      	ldr	r2, [r3, #24]
 8001f9c:	b082      	sub	sp, #8
 8001f9e:	f002 0201 	and.w	r2, r2, #1
 8001fa2:	9200      	str	r2, [sp, #0]
 8001fa4:	9a00      	ldr	r2, [sp, #0]
 8001fa6:	69da      	ldr	r2, [r3, #28]
 8001fa8:	f042 5280 	orr.w	r2, r2, #268435456	; 0x10000000
 8001fac:	61da      	str	r2, [r3, #28]
 8001fae:	69db      	ldr	r3, [r3, #28]
 8001fb0:	f003 5380 	and.w	r3, r3, #268435456	; 0x10000000
 8001fb4:	9301      	str	r3, [sp, #4]
 8001fb6:	9b01      	ldr	r3, [sp, #4]
 8001fb8:	b002      	add	sp, #8
 8001fba:	4770      	bx	lr
 8001fbc:	40021000 	.word	0x40021000

08001fc0 <NMI_Handler>:
 8001fc0:	e7fe      	b.n	8001fc0 <NMI_Handler>

08001fc2 <HardFault_Handler>:
 8001fc2:	e7fe      	b.n	8001fc2 <HardFault_Handler>

08001fc4 <MemManage_Handler>:
 8001fc4:	e7fe      	b.n	8001fc4 <MemManage_Handler>

08001fc6 <BusFault_Handler>:
 8001fc6:	e7fe      	b.n	8001fc6 <BusFault_Handler>

08001fc8 <UsageFault_Handler>:
 8001fc8:	e7fe      	b.n	8001fc8 <UsageFault_Handler>

08001fca <SVC_Handler>:
 8001fca:	4770      	bx	lr

08001fcc <DebugMon_Handler>:
 8001fcc:	4770      	bx	lr

08001fce <PendSV_Handler>:
 8001fce:	4770      	bx	lr

08001fd0 <SysTick_Handler>:
 8001fd0:	f7fe bfa0 	b.w	8000f14 <HAL_IncTick>

08001fd4 <_getpid>:
 8001fd4:	2001      	movs	r0, #1
 8001fd6:	4770      	bx	lr

08001fd8 <_kill>:
 8001fd8:	b508      	push	{r3, lr}
 8001fda:	f001 fab7 	bl	800354c <__errno>
 8001fde:	2316      	movs	r3, #22
 8001fe0:	6003      	str	r3, [r0, #0]
 8001fe2:	f04f 30ff 	mov.w	r0, #4294967295
 8001fe6:	bd08      	pop	{r3, pc}

08001fe8 <_exit>:
 8001fe8:	b508      	push	{r3, lr}
 8001fea:	f001 faaf 	bl	800354c <__errno>
 8001fee:	2316      	movs	r3, #22
 8001ff0:	6003      	str	r3, [r0, #0]
 8001ff2:	e7fe      	b.n	8001ff2 <_exit+0xa>

08001ff4 <SystemInit>:
 8001ff4:	4a03      	ldr	r2, [pc, #12]	; (8002004 <SystemInit+0x10>)
 8001ff6:	f8d2 3088 	ldr.w	r3, [r2, #136]	; 0x88
 8001ffa:	f443 0370 	orr.w	r3, r3, #15728640	; 0xf00000
 8001ffe:	f8c2 3088 	str.w	r3, [r2, #136]	; 0x88
 8002002:	4770      	bx	lr
 8002004:	e000ed00 	.word	0xe000ed00

08002008 <Reset_Handler>:
 8002008:	f8df d034 	ldr.w	sp, [pc, #52]	; 8002040 <LoopForever+0x2>
 800200c:	480d      	ldr	r0, [pc, #52]	; (8002044 <LoopForever+0x6>)
 800200e:	490e      	ldr	r1, [pc, #56]	; (8002048 <LoopForever+0xa>)
 8002010:	4a0e      	ldr	r2, [pc, #56]	; (800204c <LoopForever+0xe>)
 8002012:	2300      	movs	r3, #0
 8002014:	e002      	b.n	800201c <LoopCopyDataInit>

08002016 <CopyDataInit>:
 8002016:	58d4      	ldr	r4, [r2, r3]
 8002018:	50c4      	str	r4, [r0, r3]
 800201a:	3304      	adds	r3, #4

0800201c <LoopCopyDataInit>:
 800201c:	18c4      	adds	r4, r0, r3
 800201e:	428c      	cmp	r4, r1
 8002020:	d3f9      	bcc.n	8002016 <CopyDataInit>
 8002022:	4a0b      	ldr	r2, [pc, #44]	; (8002050 <LoopForever+0x12>)
 8002024:	4c0b      	ldr	r4, [pc, #44]	; (8002054 <LoopForever+0x16>)
 8002026:	2300      	movs	r3, #0
 8002028:	e001      	b.n	800202e <LoopFillZerobss>

0800202a <FillZerobss>:
 800202a:	6013      	str	r3, [r2, #0]
 800202c:	3204      	adds	r2, #4

0800202e <LoopFillZerobss>:
 800202e:	42a2      	cmp	r2, r4
 8002030:	d3fb      	bcc.n	800202a <FillZerobss>
 8002032:	f7ff ffdf 	bl	8001ff4 <SystemInit>
 8002036:	f001 fa8f 	bl	8003558 <__libc_init_array>
 800203a:	f7ff ff89 	bl	8001f50 <main>

0800203e <LoopForever>:
 800203e:	e7fe      	b.n	800203e <LoopForever>
 8002040:	20008000 	.word	0x20008000
 8002044:	20000000 	.word	0x20000000
 8002048:	20000074 	.word	0x20000074
 800204c:	08003818 	.word	0x08003818
 8002050:	20000078 	.word	0x20000078
 8002054:	200018c4 	.word	0x200018c4

08002058 <ADC1_IRQHandler>:
 8002058:	e7fe      	b.n	8002058 <ADC1_IRQHandler>
	...

0800205c <HAL_InitTick>:
 800205c:	b538      	push	{r3, r4, r5, lr}
 800205e:	4a0e      	ldr	r2, [pc, #56]	; (8002098 <HAL_InitTick+0x3c>)
 8002060:	4b0e      	ldr	r3, [pc, #56]	; (800209c <HAL_InitTick+0x40>)
 8002062:	4605      	mov	r5, r0
 8002064:	7818      	ldrb	r0, [r3, #0]
 8002066:	f44f 737a 	mov.w	r3, #1000	; 0x3e8
 800206a:	fbb3 f3f0 	udiv	r3, r3, r0
 800206e:	6810      	ldr	r0, [r2, #0]
 8002070:	fbb0 f0f3 	udiv	r0, r0, r3
 8002074:	f000 f872 	bl	800215c <HAL_SYSTICK_Config>
 8002078:	4604      	mov	r4, r0
 800207a:	b958      	cbnz	r0, 8002094 <HAL_InitTick+0x38>
 800207c:	2d0f      	cmp	r5, #15
 800207e:	d809      	bhi.n	8002094 <HAL_InitTick+0x38>
 8002080:	4602      	mov	r2, r0
 8002082:	4629      	mov	r1, r5
 8002084:	f04f 30ff 	mov.w	r0, #4294967295
 8002088:	f000 f836 	bl	80020f8 <HAL_NVIC_SetPriority>
 800208c:	4b04      	ldr	r3, [pc, #16]	; (80020a0 <HAL_InitTick+0x44>)
 800208e:	4620      	mov	r0, r4
 8002090:	601d      	str	r5, [r3, #0]
 8002092:	bd38      	pop	{r3, r4, r5, pc}
 8002094:	2001      	movs	r0, #1
 8002096:	e7fc      	b.n	8002092 <HAL_InitTick+0x36>
 8002098:	20000000 	.word	0x20000000
 800209c:	20000004 	.word	0x20000004
 80020a0:	20000008 	.word	0x20000008

080020a4 <HAL_Init>:
 80020a4:	4a07      	ldr	r2, [pc, #28]	; (80020c4 <HAL_Init+0x20>)
 80020a6:	b508      	push	{r3, lr}
 80020a8:	6813      	ldr	r3, [r2, #0]
 80020aa:	f043 0310 	orr.w	r3, r3, #16
 80020ae:	6013      	str	r3, [r2, #0]
 80020b0:	2003      	movs	r0, #3
 80020b2:	f000 f80f 	bl	80020d4 <HAL_NVIC_SetPriorityGrouping>
 80020b6:	200f      	movs	r0, #15
 80020b8:	f7ff ffd0 	bl	800205c <HAL_InitTick>
 80020bc:	f7ff ff68 	bl	8001f90 <HAL_MspInit>
 80020c0:	2000      	movs	r0, #0
 80020c2:	bd08      	pop	{r3, pc}
 80020c4:	40022000 	.word	0x40022000

080020c8 <HAL_GetTick>:
 80020c8:	4b01      	ldr	r3, [pc, #4]	; (80020d0 <HAL_GetTick+0x8>)
 80020ca:	6818      	ldr	r0, [r3, #0]
 80020cc:	4770      	bx	lr
 80020ce:	bf00      	nop
 80020d0:	2000189c 	.word	0x2000189c

080020d4 <HAL_NVIC_SetPriorityGrouping>:
 80020d4:	4907      	ldr	r1, [pc, #28]	; (80020f4 <HAL_NVIC_SetPriorityGrouping+0x20>)
 80020d6:	68ca      	ldr	r2, [r1, #12]
 80020d8:	f422 62e0 	bic.w	r2, r2, #1792	; 0x700
 80020dc:	0203      	lsls	r3, r0, #8
 80020de:	0412      	lsls	r2, r2, #16
 80020e0:	f403 63e0 	and.w	r3, r3, #1792	; 0x700
 80020e4:	0c12      	lsrs	r2, r2, #16
 80020e6:	4313      	orrs	r3, r2
 80020e8:	f043 63bf 	orr.w	r3, r3, #100139008	; 0x5f80000
 80020ec:	f443 3300 	orr.w	r3, r3, #131072	; 0x20000
 80020f0:	60cb      	str	r3, [r1, #12]
 80020f2:	4770      	bx	lr
 80020f4:	e000ed00 	.word	0xe000ed00

080020f8 <HAL_NVIC_SetPriority>:
 80020f8:	4b16      	ldr	r3, [pc, #88]	; (8002154 <HAL_NVIC_SetPriority+0x5c>)
 80020fa:	b530      	push	{r4, r5, lr}
 80020fc:	68dc      	ldr	r4, [r3, #12]
 80020fe:	f3c4 2402 	ubfx	r4, r4, #8, #3
 8002102:	f1c4 0507 	rsb	r5, r4, #7
 8002106:	1d23      	adds	r3, r4, #4
 8002108:	2d04      	cmp	r5, #4
 800210a:	bf28      	it	cs
 800210c:	2504      	movcs	r5, #4
 800210e:	2b06      	cmp	r3, #6
 8002110:	f04f 33ff 	mov.w	r3, #4294967295
 8002114:	bf8c      	ite	hi
 8002116:	3c03      	subhi	r4, #3
 8002118:	2400      	movls	r4, #0
 800211a:	fa03 f505 	lsl.w	r5, r3, r5
 800211e:	ea21 0105 	bic.w	r1, r1, r5
 8002122:	40a3      	lsls	r3, r4
 8002124:	ea22 0203 	bic.w	r2, r2, r3
 8002128:	40a1      	lsls	r1, r4
 800212a:	2800      	cmp	r0, #0
 800212c:	ea41 0302 	orr.w	r3, r1, r2
 8002130:	bfac      	ite	ge
 8002132:	f100 4060 	addge.w	r0, r0, #3758096384	; 0xe0000000
 8002136:	4a08      	ldrlt	r2, [pc, #32]	; (8002158 <HAL_NVIC_SetPriority+0x60>)
 8002138:	ea4f 1303 	mov.w	r3, r3, lsl #4
 800213c:	bfb8      	it	lt
 800213e:	f000 000f 	andlt.w	r0, r0, #15
 8002142:	b2db      	uxtb	r3, r3
 8002144:	bfaa      	itet	ge
 8002146:	f500 4061 	addge.w	r0, r0, #57600	; 0xe100
 800214a:	5413      	strblt	r3, [r2, r0]
 800214c:	f880 3300 	strbge.w	r3, [r0, #768]	; 0x300
 8002150:	bd30      	pop	{r4, r5, pc}
 8002152:	bf00      	nop
 8002154:	e000ed00 	.word	0xe000ed00
 8002158:	e000ed14 	.word	0xe000ed14

0800215c <HAL_SYSTICK_Config>:
 800215c:	3801      	subs	r0, #1
 800215e:	f1b0 7f80 	cmp.w	r0, #16777216	; 0x1000000
 8002162:	d20a      	bcs.n	800217a <HAL_SYSTICK_Config+0x1e>
 8002164:	4b06      	ldr	r3, [pc, #24]	; (8002180 <HAL_SYSTICK_Config+0x24>)
 8002166:	4a07      	ldr	r2, [pc, #28]	; (8002184 <HAL_SYSTICK_Config+0x28>)
 8002168:	6058      	str	r0, [r3, #4]
 800216a:	21f0      	movs	r1, #240	; 0xf0
 800216c:	f882 1023 	strb.w	r1, [r2, #35]	; 0x23
 8002170:	2000      	movs	r0, #0
 8002172:	2207      	movs	r2, #7
 8002174:	6098      	str	r0, [r3, #8]
 8002176:	601a      	str	r2, [r3, #0]
 8002178:	4770      	bx	lr
 800217a:	2001      	movs	r0, #1
 800217c:	4770      	bx	lr
 800217e:	bf00      	nop
 8002180:	e000e010 	.word	0xe000e010
 8002184:	e000ed00 	.word	0xe000ed00

08002188 <HAL_RCC_OscConfig>:
 8002188:	e92d 47f3 	stmdb	sp!, {r0, r1, r4, r5, r6, r7, r8, r9, sl, lr}
 800218c:	4605      	mov	r5, r0
 800218e:	2800      	cmp	r0, #0
 8002190:	d035      	beq.n	80021fe <HAL_RCC_OscConfig+0x76>
 8002192:	6803      	ldr	r3, [r0, #0]
 8002194:	07da      	lsls	r2, r3, #31
 8002196:	d411      	bmi.n	80021bc <HAL_RCC_OscConfig+0x34>
 8002198:	682b      	ldr	r3, [r5, #0]
 800219a:	079b      	lsls	r3, r3, #30
 800219c:	f100 8088 	bmi.w	80022b0 <HAL_RCC_OscConfig+0x128>
 80021a0:	682b      	ldr	r3, [r5, #0]
 80021a2:	071c      	lsls	r4, r3, #28
 80021a4:	f100 80f8 	bmi.w	8002398 <HAL_RCC_OscConfig+0x210>
 80021a8:	682b      	ldr	r3, [r5, #0]
 80021aa:	0758      	lsls	r0, r3, #29
 80021ac:	f100 8141 	bmi.w	8002432 <HAL_RCC_OscConfig+0x2aa>
 80021b0:	69e8      	ldr	r0, [r5, #28]
 80021b2:	2800      	cmp	r0, #0
 80021b4:	f040 81d7 	bne.w	8002566 <HAL_RCC_OscConfig+0x3de>
 80021b8:	2000      	movs	r0, #0
 80021ba:	e04b      	b.n	8002254 <HAL_RCC_OscConfig+0xcc>
 80021bc:	4cba      	ldr	r4, [pc, #744]	; (80024a8 <HAL_RCC_OscConfig+0x320>)
 80021be:	6863      	ldr	r3, [r4, #4]
 80021c0:	f003 030c 	and.w	r3, r3, #12
 80021c4:	2b04      	cmp	r3, #4
 80021c6:	d007      	beq.n	80021d8 <HAL_RCC_OscConfig+0x50>
 80021c8:	6863      	ldr	r3, [r4, #4]
 80021ca:	f003 030c 	and.w	r3, r3, #12
 80021ce:	2b08      	cmp	r3, #8
 80021d0:	d117      	bne.n	8002202 <HAL_RCC_OscConfig+0x7a>
 80021d2:	6863      	ldr	r3, [r4, #4]
 80021d4:	03df      	lsls	r7, r3, #15
 80021d6:	d514      	bpl.n	8002202 <HAL_RCC_OscConfig+0x7a>
 80021d8:	f44f 3300 	mov.w	r3, #131072	; 0x20000
 80021dc:	fa93 f2a3 	rbit	r2, r3
 80021e0:	6821      	ldr	r1, [r4, #0]
 80021e2:	fa93 f3a3 	rbit	r3, r3
 80021e6:	fab3 f383 	clz	r3, r3
 80021ea:	f003 031f 	and.w	r3, r3, #31
 80021ee:	2201      	movs	r2, #1
 80021f0:	fa02 f303 	lsl.w	r3, r2, r3
 80021f4:	420b      	tst	r3, r1
 80021f6:	d0cf      	beq.n	8002198 <HAL_RCC_OscConfig+0x10>
 80021f8:	686b      	ldr	r3, [r5, #4]
 80021fa:	2b00      	cmp	r3, #0
 80021fc:	d1cc      	bne.n	8002198 <HAL_RCC_OscConfig+0x10>
 80021fe:	2001      	movs	r0, #1
 8002200:	e028      	b.n	8002254 <HAL_RCC_OscConfig+0xcc>
 8002202:	686a      	ldr	r2, [r5, #4]
 8002204:	f5b2 3f80 	cmp.w	r2, #65536	; 0x10000
 8002208:	d127      	bne.n	800225a <HAL_RCC_OscConfig+0xd2>
 800220a:	6823      	ldr	r3, [r4, #0]
 800220c:	f443 3380 	orr.w	r3, r3, #65536	; 0x10000
 8002210:	6023      	str	r3, [r4, #0]
 8002212:	6ae3      	ldr	r3, [r4, #44]	; 0x2c
 8002214:	68a9      	ldr	r1, [r5, #8]
 8002216:	f023 030f 	bic.w	r3, r3, #15
 800221a:	430b      	orrs	r3, r1
 800221c:	62e3      	str	r3, [r4, #44]	; 0x2c
 800221e:	b362      	cbz	r2, 800227a <HAL_RCC_OscConfig+0xf2>
 8002220:	f7ff ff52 	bl	80020c8 <HAL_GetTick>
 8002224:	f44f 3700 	mov.w	r7, #131072	; 0x20000
 8002228:	4606      	mov	r6, r0
 800222a:	f04f 0801 	mov.w	r8, #1
 800222e:	fa97 f3a7 	rbit	r3, r7
 8002232:	6822      	ldr	r2, [r4, #0]
 8002234:	fa97 f3a7 	rbit	r3, r7
 8002238:	fab3 f383 	clz	r3, r3
 800223c:	f003 031f 	and.w	r3, r3, #31
 8002240:	fa08 f303 	lsl.w	r3, r8, r3
 8002244:	4213      	tst	r3, r2
 8002246:	d1a7      	bne.n	8002198 <HAL_RCC_OscConfig+0x10>
 8002248:	f7ff ff3e 	bl	80020c8 <HAL_GetTick>
 800224c:	1b83      	subs	r3, r0, r6
 800224e:	2b64      	cmp	r3, #100	; 0x64
 8002250:	d9ed      	bls.n	800222e <HAL_RCC_OscConfig+0xa6>
 8002252:	2003      	movs	r0, #3
 8002254:	b002      	add	sp, #8
 8002256:	e8bd 87f0 	ldmia.w	sp!, {r4, r5, r6, r7, r8, r9, sl, pc}
 800225a:	6823      	ldr	r3, [r4, #0]
 800225c:	b932      	cbnz	r2, 800226c <HAL_RCC_OscConfig+0xe4>
 800225e:	f423 3380 	bic.w	r3, r3, #65536	; 0x10000
 8002262:	6023      	str	r3, [r4, #0]
 8002264:	6823      	ldr	r3, [r4, #0]
 8002266:	f423 2380 	bic.w	r3, r3, #262144	; 0x40000
 800226a:	e7d1      	b.n	8002210 <HAL_RCC_OscConfig+0x88>
 800226c:	f5b2 2fa0 	cmp.w	r2, #327680	; 0x50000
 8002270:	d1f5      	bne.n	800225e <HAL_RCC_OscConfig+0xd6>
 8002272:	f443 2380 	orr.w	r3, r3, #262144	; 0x40000
 8002276:	6023      	str	r3, [r4, #0]
 8002278:	e7c7      	b.n	800220a <HAL_RCC_OscConfig+0x82>
 800227a:	f7ff ff25 	bl	80020c8 <HAL_GetTick>
 800227e:	f44f 3700 	mov.w	r7, #131072	; 0x20000
 8002282:	4606      	mov	r6, r0
 8002284:	f04f 0801 	mov.w	r8, #1
 8002288:	fa97 f3a7 	rbit	r3, r7
 800228c:	6822      	ldr	r2, [r4, #0]
 800228e:	fa97 f3a7 	rbit	r3, r7
 8002292:	fab3 f383 	clz	r3, r3
 8002296:	f003 031f 	and.w	r3, r3, #31
 800229a:	fa08 f303 	lsl.w	r3, r8, r3
 800229e:	4213      	tst	r3, r2
 80022a0:	f43f af7a 	beq.w	8002198 <HAL_RCC_OscConfig+0x10>
 80022a4:	f7ff ff10 	bl	80020c8 <HAL_GetTick>
 80022a8:	1b83      	subs	r3, r0, r6
 80022aa:	2b64      	cmp	r3, #100	; 0x64
 80022ac:	d9ec      	bls.n	8002288 <HAL_RCC_OscConfig+0x100>
 80022ae:	e7d0      	b.n	8002252 <HAL_RCC_OscConfig+0xca>
 80022b0:	4c7d      	ldr	r4, [pc, #500]	; (80024a8 <HAL_RCC_OscConfig+0x320>)
 80022b2:	6863      	ldr	r3, [r4, #4]
 80022b4:	f013 0f0c 	tst.w	r3, #12
 80022b8:	d007      	beq.n	80022ca <HAL_RCC_OscConfig+0x142>
 80022ba:	6863      	ldr	r3, [r4, #4]
 80022bc:	f003 030c 	and.w	r3, r3, #12
 80022c0:	2b08      	cmp	r3, #8
 80022c2:	d121      	bne.n	8002308 <HAL_RCC_OscConfig+0x180>
 80022c4:	6863      	ldr	r3, [r4, #4]
 80022c6:	03de      	lsls	r6, r3, #15
 80022c8:	d41e      	bmi.n	8002308 <HAL_RCC_OscConfig+0x180>
 80022ca:	2302      	movs	r3, #2
 80022cc:	fa93 f2a3 	rbit	r2, r3
 80022d0:	6821      	ldr	r1, [r4, #0]
 80022d2:	fa93 f3a3 	rbit	r3, r3
 80022d6:	fab3 f383 	clz	r3, r3
 80022da:	f003 031f 	and.w	r3, r3, #31
 80022de:	2201      	movs	r2, #1
 80022e0:	fa02 f303 	lsl.w	r3, r2, r3
 80022e4:	420b      	tst	r3, r1
 80022e6:	d002      	beq.n	80022ee <HAL_RCC_OscConfig+0x166>
 80022e8:	692b      	ldr	r3, [r5, #16]
 80022ea:	4293      	cmp	r3, r2
 80022ec:	d187      	bne.n	80021fe <HAL_RCC_OscConfig+0x76>
 80022ee:	6821      	ldr	r1, [r4, #0]
 80022f0:	23f8      	movs	r3, #248	; 0xf8
 80022f2:	fa93 f3a3 	rbit	r3, r3
 80022f6:	fab3 f283 	clz	r2, r3
 80022fa:	696b      	ldr	r3, [r5, #20]
 80022fc:	4093      	lsls	r3, r2
 80022fe:	f021 02f8 	bic.w	r2, r1, #248	; 0xf8
 8002302:	4313      	orrs	r3, r2
 8002304:	6023      	str	r3, [r4, #0]
 8002306:	e74b      	b.n	80021a0 <HAL_RCC_OscConfig+0x18>
 8002308:	692a      	ldr	r2, [r5, #16]
 800230a:	2601      	movs	r6, #1
 800230c:	b30a      	cbz	r2, 8002352 <HAL_RCC_OscConfig+0x1ca>
 800230e:	fa96 f3a6 	rbit	r3, r6
 8002312:	fab3 f383 	clz	r3, r3
 8002316:	f103 5384 	add.w	r3, r3, #276824064	; 0x10800000
 800231a:	f503 1384 	add.w	r3, r3, #1081344	; 0x108000
 800231e:	009b      	lsls	r3, r3, #2
 8002320:	f04f 0802 	mov.w	r8, #2
 8002324:	601e      	str	r6, [r3, #0]
 8002326:	f7ff fecf 	bl	80020c8 <HAL_GetTick>
 800232a:	4607      	mov	r7, r0
 800232c:	fa98 f3a8 	rbit	r3, r8
 8002330:	6822      	ldr	r2, [r4, #0]
 8002332:	fa98 f3a8 	rbit	r3, r8
 8002336:	fab3 f383 	clz	r3, r3
 800233a:	f003 031f 	and.w	r3, r3, #31
 800233e:	fa06 f303 	lsl.w	r3, r6, r3
 8002342:	4213      	tst	r3, r2
 8002344:	d1d3      	bne.n	80022ee <HAL_RCC_OscConfig+0x166>
 8002346:	f7ff febf 	bl	80020c8 <HAL_GetTick>
 800234a:	1bc3      	subs	r3, r0, r7
 800234c:	2b02      	cmp	r3, #2
 800234e:	d9ed      	bls.n	800232c <HAL_RCC_OscConfig+0x1a4>
 8002350:	e77f      	b.n	8002252 <HAL_RCC_OscConfig+0xca>
 8002352:	fa96 f3a6 	rbit	r3, r6
 8002356:	fab3 f383 	clz	r3, r3
 800235a:	f103 5384 	add.w	r3, r3, #276824064	; 0x10800000
 800235e:	f503 1384 	add.w	r3, r3, #1081344	; 0x108000
 8002362:	009b      	lsls	r3, r3, #2
 8002364:	f04f 0802 	mov.w	r8, #2
 8002368:	601a      	str	r2, [r3, #0]
 800236a:	f7ff fead 	bl	80020c8 <HAL_GetTick>
 800236e:	4607      	mov	r7, r0
 8002370:	fa98 f3a8 	rbit	r3, r8
 8002374:	6822      	ldr	r2, [r4, #0]
 8002376:	fa98 f3a8 	rbit	r3, r8
 800237a:	fab3 f383 	clz	r3, r3
 800237e:	f003 031f 	and.w	r3, r3, #31
 8002382:	fa06 f303 	lsl.w	r3, r6, r3
 8002386:	4213      	tst	r3, r2
 8002388:	f43f af0a 	beq.w	80021a0 <HAL_RCC_OscConfig+0x18>
 800238c:	f7ff fe9c 	bl	80020c8 <HAL_GetTick>
 8002390:	1bc3      	subs	r3, r0, r7
 8002392:	2b02      	cmp	r3, #2
 8002394:	d9ec      	bls.n	8002370 <HAL_RCC_OscConfig+0x1e8>
 8002396:	e75c      	b.n	8002252 <HAL_RCC_OscConfig+0xca>
 8002398:	69aa      	ldr	r2, [r5, #24]
 800239a:	4e43      	ldr	r6, [pc, #268]	; (80024a8 <HAL_RCC_OscConfig+0x320>)
 800239c:	4943      	ldr	r1, [pc, #268]	; (80024ac <HAL_RCC_OscConfig+0x324>)
 800239e:	2401      	movs	r4, #1
 80023a0:	b31a      	cbz	r2, 80023ea <HAL_RCC_OscConfig+0x262>
 80023a2:	fa94 f3a4 	rbit	r3, r4
 80023a6:	fab3 f383 	clz	r3, r3
 80023aa:	440b      	add	r3, r1
 80023ac:	009b      	lsls	r3, r3, #2
 80023ae:	2702      	movs	r7, #2
 80023b0:	601c      	str	r4, [r3, #0]
 80023b2:	f7ff fe89 	bl	80020c8 <HAL_GetTick>
 80023b6:	4680      	mov	r8, r0
 80023b8:	fa97 f3a7 	rbit	r3, r7
 80023bc:	fa97 f3a7 	rbit	r3, r7
 80023c0:	fa97 f3a7 	rbit	r3, r7
 80023c4:	6a72      	ldr	r2, [r6, #36]	; 0x24
 80023c6:	fa97 f3a7 	rbit	r3, r7
 80023ca:	fab3 f383 	clz	r3, r3
 80023ce:	f003 031f 	and.w	r3, r3, #31
 80023d2:	fa04 f303 	lsl.w	r3, r4, r3
 80023d6:	4213      	tst	r3, r2
 80023d8:	f47f aee6 	bne.w	80021a8 <HAL_RCC_OscConfig+0x20>
 80023dc:	f7ff fe74 	bl	80020c8 <HAL_GetTick>
 80023e0:	eba0 0308 	sub.w	r3, r0, r8
 80023e4:	2b02      	cmp	r3, #2
 80023e6:	d9e7      	bls.n	80023b8 <HAL_RCC_OscConfig+0x230>
 80023e8:	e733      	b.n	8002252 <HAL_RCC_OscConfig+0xca>
 80023ea:	fa94 f3a4 	rbit	r3, r4
 80023ee:	fab3 f383 	clz	r3, r3
 80023f2:	440b      	add	r3, r1
 80023f4:	009b      	lsls	r3, r3, #2
 80023f6:	2702      	movs	r7, #2
 80023f8:	601a      	str	r2, [r3, #0]
 80023fa:	f7ff fe65 	bl	80020c8 <HAL_GetTick>
 80023fe:	4680      	mov	r8, r0
 8002400:	fa97 f3a7 	rbit	r3, r7
 8002404:	fa97 f3a7 	rbit	r3, r7
 8002408:	fa97 f3a7 	rbit	r3, r7
 800240c:	6a72      	ldr	r2, [r6, #36]	; 0x24
 800240e:	fa97 f3a7 	rbit	r3, r7
 8002412:	fab3 f383 	clz	r3, r3
 8002416:	f003 031f 	and.w	r3, r3, #31
 800241a:	fa04 f303 	lsl.w	r3, r4, r3
 800241e:	4213      	tst	r3, r2
 8002420:	f43f aec2 	beq.w	80021a8 <HAL_RCC_OscConfig+0x20>
 8002424:	f7ff fe50 	bl	80020c8 <HAL_GetTick>
 8002428:	eba0 0308 	sub.w	r3, r0, r8
 800242c:	2b02      	cmp	r3, #2
 800242e:	d9e7      	bls.n	8002400 <HAL_RCC_OscConfig+0x278>
 8002430:	e70f      	b.n	8002252 <HAL_RCC_OscConfig+0xca>
 8002432:	4c1d      	ldr	r4, [pc, #116]	; (80024a8 <HAL_RCC_OscConfig+0x320>)
 8002434:	69e3      	ldr	r3, [r4, #28]
 8002436:	00d9      	lsls	r1, r3, #3
 8002438:	d434      	bmi.n	80024a4 <HAL_RCC_OscConfig+0x31c>
 800243a:	69e3      	ldr	r3, [r4, #28]
 800243c:	f043 5380 	orr.w	r3, r3, #268435456	; 0x10000000
 8002440:	61e3      	str	r3, [r4, #28]
 8002442:	69e3      	ldr	r3, [r4, #28]
 8002444:	f003 5380 	and.w	r3, r3, #268435456	; 0x10000000
 8002448:	9301      	str	r3, [sp, #4]
 800244a:	9b01      	ldr	r3, [sp, #4]
 800244c:	2601      	movs	r6, #1
 800244e:	4f18      	ldr	r7, [pc, #96]	; (80024b0 <HAL_RCC_OscConfig+0x328>)
 8002450:	683b      	ldr	r3, [r7, #0]
 8002452:	05da      	lsls	r2, r3, #23
 8002454:	d52e      	bpl.n	80024b4 <HAL_RCC_OscConfig+0x32c>
 8002456:	68eb      	ldr	r3, [r5, #12]
 8002458:	2b01      	cmp	r3, #1
 800245a:	d13c      	bne.n	80024d6 <HAL_RCC_OscConfig+0x34e>
 800245c:	6a23      	ldr	r3, [r4, #32]
 800245e:	f043 0301 	orr.w	r3, r3, #1
 8002462:	6223      	str	r3, [r4, #32]
 8002464:	f7ff fe30 	bl	80020c8 <HAL_GetTick>
 8002468:	2702      	movs	r7, #2
 800246a:	4680      	mov	r8, r0
 800246c:	46ba      	mov	sl, r7
 800246e:	f04f 0901 	mov.w	r9, #1
 8002472:	fa97 f3a7 	rbit	r3, r7
 8002476:	fa97 f3a7 	rbit	r3, r7
 800247a:	2b00      	cmp	r3, #0
 800247c:	d06b      	beq.n	8002556 <HAL_RCC_OscConfig+0x3ce>
 800247e:	6a22      	ldr	r2, [r4, #32]
 8002480:	fa9a f3aa 	rbit	r3, sl
 8002484:	fab3 f383 	clz	r3, r3
 8002488:	f003 031f 	and.w	r3, r3, #31
 800248c:	fa09 f303 	lsl.w	r3, r9, r3
 8002490:	4213      	tst	r3, r2
 8002492:	d057      	beq.n	8002544 <HAL_RCC_OscConfig+0x3bc>
 8002494:	2e00      	cmp	r6, #0
 8002496:	f43f ae8b 	beq.w	80021b0 <HAL_RCC_OscConfig+0x28>
 800249a:	69e3      	ldr	r3, [r4, #28]
 800249c:	f023 5380 	bic.w	r3, r3, #268435456	; 0x10000000
 80024a0:	61e3      	str	r3, [r4, #28]
 80024a2:	e685      	b.n	80021b0 <HAL_RCC_OscConfig+0x28>
 80024a4:	2600      	movs	r6, #0
 80024a6:	e7d2      	b.n	800244e <HAL_RCC_OscConfig+0x2c6>
 80024a8:	40021000 	.word	0x40021000
 80024ac:	10908120 	.word	0x10908120
 80024b0:	40007000 	.word	0x40007000
 80024b4:	683b      	ldr	r3, [r7, #0]
 80024b6:	f443 7380 	orr.w	r3, r3, #256	; 0x100
 80024ba:	603b      	str	r3, [r7, #0]
 80024bc:	f7ff fe04 	bl	80020c8 <HAL_GetTick>
 80024c0:	4680      	mov	r8, r0
 80024c2:	683b      	ldr	r3, [r7, #0]
 80024c4:	05db      	lsls	r3, r3, #23
 80024c6:	d4c6      	bmi.n	8002456 <HAL_RCC_OscConfig+0x2ce>
 80024c8:	f7ff fdfe 	bl	80020c8 <HAL_GetTick>
 80024cc:	eba0 0008 	sub.w	r0, r0, r8
 80024d0:	2864      	cmp	r0, #100	; 0x64
 80024d2:	d9f6      	bls.n	80024c2 <HAL_RCC_OscConfig+0x33a>
 80024d4:	e6bd      	b.n	8002252 <HAL_RCC_OscConfig+0xca>
 80024d6:	bb3b      	cbnz	r3, 8002528 <HAL_RCC_OscConfig+0x3a0>
 80024d8:	6a23      	ldr	r3, [r4, #32]
 80024da:	f023 0301 	bic.w	r3, r3, #1
 80024de:	6223      	str	r3, [r4, #32]
 80024e0:	6a23      	ldr	r3, [r4, #32]
 80024e2:	f023 0304 	bic.w	r3, r3, #4
 80024e6:	6223      	str	r3, [r4, #32]
 80024e8:	f7ff fdee 	bl	80020c8 <HAL_GetTick>
 80024ec:	2702      	movs	r7, #2
 80024ee:	4680      	mov	r8, r0
 80024f0:	46ba      	mov	sl, r7
 80024f2:	f04f 0901 	mov.w	r9, #1
 80024f6:	fa97 f3a7 	rbit	r3, r7
 80024fa:	fa97 f3a7 	rbit	r3, r7
 80024fe:	b373      	cbz	r3, 800255e <HAL_RCC_OscConfig+0x3d6>
 8002500:	6a22      	ldr	r2, [r4, #32]
 8002502:	fa9a f3aa 	rbit	r3, sl
 8002506:	fab3 f383 	clz	r3, r3
 800250a:	f003 031f 	and.w	r3, r3, #31
 800250e:	fa09 f303 	lsl.w	r3, r9, r3
 8002512:	4213      	tst	r3, r2
 8002514:	d0be      	beq.n	8002494 <HAL_RCC_OscConfig+0x30c>
 8002516:	f7ff fdd7 	bl	80020c8 <HAL_GetTick>
 800251a:	f241 3388 	movw	r3, #5000	; 0x1388
 800251e:	eba0 0008 	sub.w	r0, r0, r8
 8002522:	4298      	cmp	r0, r3
 8002524:	d9e7      	bls.n	80024f6 <HAL_RCC_OscConfig+0x36e>
 8002526:	e694      	b.n	8002252 <HAL_RCC_OscConfig+0xca>
 8002528:	2b05      	cmp	r3, #5
 800252a:	6a23      	ldr	r3, [r4, #32]
 800252c:	d103      	bne.n	8002536 <HAL_RCC_OscConfig+0x3ae>
 800252e:	f043 0304 	orr.w	r3, r3, #4
 8002532:	6223      	str	r3, [r4, #32]
 8002534:	e792      	b.n	800245c <HAL_RCC_OscConfig+0x2d4>
 8002536:	f023 0301 	bic.w	r3, r3, #1
 800253a:	6223      	str	r3, [r4, #32]
 800253c:	6a23      	ldr	r3, [r4, #32]
 800253e:	f023 0304 	bic.w	r3, r3, #4
 8002542:	e78e      	b.n	8002462 <HAL_RCC_OscConfig+0x2da>
 8002544:	f7ff fdc0 	bl	80020c8 <HAL_GetTick>
 8002548:	f241 3388 	movw	r3, #5000	; 0x1388
 800254c:	eba0 0008 	sub.w	r0, r0, r8
 8002550:	4298      	cmp	r0, r3
 8002552:	d98e      	bls.n	8002472 <HAL_RCC_OscConfig+0x2ea>
 8002554:	e67d      	b.n	8002252 <HAL_RCC_OscConfig+0xca>
 8002556:	fa97 f3a7 	rbit	r3, r7
 800255a:	6a62      	ldr	r2, [r4, #36]	; 0x24
 800255c:	e790      	b.n	8002480 <HAL_RCC_OscConfig+0x2f8>
 800255e:	fa97 f3a7 	rbit	r3, r7
 8002562:	6a62      	ldr	r2, [r4, #36]	; 0x24
 8002564:	e7cd      	b.n	8002502 <HAL_RCC_OscConfig+0x37a>
 8002566:	4b49      	ldr	r3, [pc, #292]	; (800268c <HAL_RCC_OscConfig+0x504>)
 8002568:	685a      	ldr	r2, [r3, #4]
 800256a:	f002 020c 	and.w	r2, r2, #12
 800256e:	2a08      	cmp	r2, #8
 8002570:	461c      	mov	r4, r3
 8002572:	d07a      	beq.n	800266a <HAL_RCC_OscConfig+0x4e2>
 8002574:	2802      	cmp	r0, #2
 8002576:	f04f 7380 	mov.w	r3, #16777216	; 0x1000000
 800257a:	d151      	bne.n	8002620 <HAL_RCC_OscConfig+0x498>
 800257c:	fa93 f3a3 	rbit	r3, r3
 8002580:	fab3 f383 	clz	r3, r3
 8002584:	f103 5384 	add.w	r3, r3, #276824064	; 0x10800000
 8002588:	f503 1384 	add.w	r3, r3, #1081344	; 0x108000
 800258c:	009b      	lsls	r3, r3, #2
 800258e:	2200      	movs	r2, #0
 8002590:	601a      	str	r2, [r3, #0]
 8002592:	f7ff fd99 	bl	80020c8 <HAL_GetTick>
 8002596:	f04f 7800 	mov.w	r8, #33554432	; 0x2000000
 800259a:	4607      	mov	r7, r0
 800259c:	2601      	movs	r6, #1
 800259e:	fa98 f3a8 	rbit	r3, r8
 80025a2:	6822      	ldr	r2, [r4, #0]
 80025a4:	fa98 f3a8 	rbit	r3, r8
 80025a8:	fab3 f383 	clz	r3, r3
 80025ac:	f003 031f 	and.w	r3, r3, #31
 80025b0:	fa06 f303 	lsl.w	r3, r6, r3
 80025b4:	4213      	tst	r3, r2
 80025b6:	d12d      	bne.n	8002614 <HAL_RCC_OscConfig+0x48c>
 80025b8:	e9d5 1308 	ldrd	r1, r3, [r5, #32]
 80025bc:	6862      	ldr	r2, [r4, #4]
 80025be:	430b      	orrs	r3, r1
 80025c0:	f422 1274 	bic.w	r2, r2, #3997696	; 0x3d0000
 80025c4:	4313      	orrs	r3, r2
 80025c6:	6063      	str	r3, [r4, #4]
 80025c8:	f04f 7380 	mov.w	r3, #16777216	; 0x1000000
 80025cc:	fa93 f3a3 	rbit	r3, r3
 80025d0:	fab3 f383 	clz	r3, r3
 80025d4:	f103 5384 	add.w	r3, r3, #276824064	; 0x10800000
 80025d8:	f503 1384 	add.w	r3, r3, #1081344	; 0x108000
 80025dc:	009b      	lsls	r3, r3, #2
 80025de:	2701      	movs	r7, #1
 80025e0:	601e      	str	r6, [r3, #0]
 80025e2:	f7ff fd71 	bl	80020c8 <HAL_GetTick>
 80025e6:	f04f 7600 	mov.w	r6, #33554432	; 0x2000000
 80025ea:	4605      	mov	r5, r0
 80025ec:	fa96 f3a6 	rbit	r3, r6
 80025f0:	6822      	ldr	r2, [r4, #0]
 80025f2:	fa96 f3a6 	rbit	r3, r6
 80025f6:	fab3 f383 	clz	r3, r3
 80025fa:	f003 031f 	and.w	r3, r3, #31
 80025fe:	fa07 f303 	lsl.w	r3, r7, r3
 8002602:	4213      	tst	r3, r2
 8002604:	f47f add8 	bne.w	80021b8 <HAL_RCC_OscConfig+0x30>
 8002608:	f7ff fd5e 	bl	80020c8 <HAL_GetTick>
 800260c:	1b40      	subs	r0, r0, r5
 800260e:	2802      	cmp	r0, #2
 8002610:	d9ec      	bls.n	80025ec <HAL_RCC_OscConfig+0x464>
 8002612:	e61e      	b.n	8002252 <HAL_RCC_OscConfig+0xca>
 8002614:	f7ff fd58 	bl	80020c8 <HAL_GetTick>
 8002618:	1bc3      	subs	r3, r0, r7
 800261a:	2b02      	cmp	r3, #2
 800261c:	d9bf      	bls.n	800259e <HAL_RCC_OscConfig+0x416>
 800261e:	e618      	b.n	8002252 <HAL_RCC_OscConfig+0xca>
 8002620:	fa93 f3a3 	rbit	r3, r3
 8002624:	fab3 f383 	clz	r3, r3
 8002628:	f103 5384 	add.w	r3, r3, #276824064	; 0x10800000
 800262c:	f503 1384 	add.w	r3, r3, #1081344	; 0x108000
 8002630:	009b      	lsls	r3, r3, #2
 8002632:	2200      	movs	r2, #0
 8002634:	601a      	str	r2, [r3, #0]
 8002636:	f7ff fd47 	bl	80020c8 <HAL_GetTick>
 800263a:	f04f 7600 	mov.w	r6, #33554432	; 0x2000000
 800263e:	4605      	mov	r5, r0
 8002640:	2701      	movs	r7, #1
 8002642:	fa96 f3a6 	rbit	r3, r6
 8002646:	6822      	ldr	r2, [r4, #0]
 8002648:	fa96 f3a6 	rbit	r3, r6
 800264c:	fab3 f383 	clz	r3, r3
 8002650:	f003 031f 	and.w	r3, r3, #31
 8002654:	fa07 f303 	lsl.w	r3, r7, r3
 8002658:	4213      	tst	r3, r2
 800265a:	f43f adad 	beq.w	80021b8 <HAL_RCC_OscConfig+0x30>
 800265e:	f7ff fd33 	bl	80020c8 <HAL_GetTick>
 8002662:	1b40      	subs	r0, r0, r5
 8002664:	2802      	cmp	r0, #2
 8002666:	d9ec      	bls.n	8002642 <HAL_RCC_OscConfig+0x4ba>
 8002668:	e5f3      	b.n	8002252 <HAL_RCC_OscConfig+0xca>
 800266a:	2801      	cmp	r0, #1
 800266c:	f43f adf2 	beq.w	8002254 <HAL_RCC_OscConfig+0xcc>
 8002670:	685b      	ldr	r3, [r3, #4]
 8002672:	6a2a      	ldr	r2, [r5, #32]
 8002674:	f403 3180 	and.w	r1, r3, #65536	; 0x10000
 8002678:	4291      	cmp	r1, r2
 800267a:	f47f adc0 	bne.w	80021fe <HAL_RCC_OscConfig+0x76>
 800267e:	6a6a      	ldr	r2, [r5, #36]	; 0x24
 8002680:	f403 1370 	and.w	r3, r3, #3932160	; 0x3c0000
 8002684:	4293      	cmp	r3, r2
 8002686:	f43f ad97 	beq.w	80021b8 <HAL_RCC_OscConfig+0x30>
 800268a:	e5b8      	b.n	80021fe <HAL_RCC_OscConfig+0x76>
 800268c:	40021000 	.word	0x40021000

08002690 <HAL_RCC_GetSysClockFreq>:
 8002690:	b510      	push	{r4, lr}
 8002692:	4c15      	ldr	r4, [pc, #84]	; (80026e8 <HAL_RCC_GetSysClockFreq+0x58>)
 8002694:	6861      	ldr	r1, [r4, #4]
 8002696:	f001 030c 	and.w	r3, r1, #12
 800269a:	2b04      	cmp	r3, #4
 800269c:	d020      	beq.n	80026e0 <HAL_RCC_GetSysClockFreq+0x50>
 800269e:	2b08      	cmp	r3, #8
 80026a0:	d120      	bne.n	80026e4 <HAL_RCC_GetSysClockFreq+0x54>
 80026a2:	f44f 1370 	mov.w	r3, #3932160	; 0x3c0000
 80026a6:	fa93 f3a3 	rbit	r3, r3
 80026aa:	f401 1270 	and.w	r2, r1, #3932160	; 0x3c0000
 80026ae:	fab3 f383 	clz	r3, r3
 80026b2:	fa22 f303 	lsr.w	r3, r2, r3
 80026b6:	4a0d      	ldr	r2, [pc, #52]	; (80026ec <HAL_RCC_GetSysClockFreq+0x5c>)
 80026b8:	5cd0      	ldrb	r0, [r2, r3]
 80026ba:	6ae3      	ldr	r3, [r4, #44]	; 0x2c
 80026bc:	220f      	movs	r2, #15
 80026be:	fa92 f2a2 	rbit	r2, r2
 80026c2:	fab2 f282 	clz	r2, r2
 80026c6:	f003 030f 	and.w	r3, r3, #15
 80026ca:	40d3      	lsrs	r3, r2
 80026cc:	4a08      	ldr	r2, [pc, #32]	; (80026f0 <HAL_RCC_GetSysClockFreq+0x60>)
 80026ce:	5cd2      	ldrb	r2, [r2, r3]
 80026d0:	03cb      	lsls	r3, r1, #15
 80026d2:	bf4a      	itet	mi
 80026d4:	4b07      	ldrmi	r3, [pc, #28]	; (80026f4 <HAL_RCC_GetSysClockFreq+0x64>)
 80026d6:	4b08      	ldrpl	r3, [pc, #32]	; (80026f8 <HAL_RCC_GetSysClockFreq+0x68>)
 80026d8:	fbb3 f3f2 	udivmi	r3, r3, r2
 80026dc:	4358      	muls	r0, r3
 80026de:	bd10      	pop	{r4, pc}
 80026e0:	4804      	ldr	r0, [pc, #16]	; (80026f4 <HAL_RCC_GetSysClockFreq+0x64>)
 80026e2:	e7fc      	b.n	80026de <HAL_RCC_GetSysClockFreq+0x4e>
 80026e4:	4805      	ldr	r0, [pc, #20]	; (80026fc <HAL_RCC_GetSysClockFreq+0x6c>)
 80026e6:	e7fa      	b.n	80026de <HAL_RCC_GetSysClockFreq+0x4e>
 80026e8:	40021000 	.word	0x40021000
 80026ec:	080037ec 	.word	0x080037ec
 80026f0:	080037fc 	.word	0x080037fc
 80026f4:	00f42400 	.word	0x00f42400
 80026f8:	003d0900 	.word	0x003d0900
 80026fc:	007a1200 	.word	0x007a1200

08002700 <HAL_RCC_ClockConfig>:
 8002700:	e92d 41f0 	stmdb	sp!, {r4, r5, r6, r7, r8, lr}
 8002704:	460d      	mov	r5, r1
 8002706:	4604      	mov	r4, r0
 8002708:	b910      	cbnz	r0, 8002710 <HAL_RCC_ClockConfig+0x10>
 800270a:	2001      	movs	r0, #1
 800270c:	e8bd 81f0 	ldmia.w	sp!, {r4, r5, r6, r7, r8, pc}
 8002710:	4a4c      	ldr	r2, [pc, #304]	; (8002844 <HAL_RCC_ClockConfig+0x144>)
 8002712:	6813      	ldr	r3, [r2, #0]
 8002714:	f003 0307 	and.w	r3, r3, #7
 8002718:	428b      	cmp	r3, r1
 800271a:	d32e      	bcc.n	800277a <HAL_RCC_ClockConfig+0x7a>
 800271c:	6822      	ldr	r2, [r4, #0]
 800271e:	0791      	lsls	r1, r2, #30
 8002720:	d436      	bmi.n	8002790 <HAL_RCC_ClockConfig+0x90>
 8002722:	07d2      	lsls	r2, r2, #31
 8002724:	d43c      	bmi.n	80027a0 <HAL_RCC_ClockConfig+0xa0>
 8002726:	4a47      	ldr	r2, [pc, #284]	; (8002844 <HAL_RCC_ClockConfig+0x144>)
 8002728:	6813      	ldr	r3, [r2, #0]
 800272a:	f003 0307 	and.w	r3, r3, #7
 800272e:	42ab      	cmp	r3, r5
 8002730:	d874      	bhi.n	800281c <HAL_RCC_ClockConfig+0x11c>
 8002732:	6822      	ldr	r2, [r4, #0]
 8002734:	4d44      	ldr	r5, [pc, #272]	; (8002848 <HAL_RCC_ClockConfig+0x148>)
 8002736:	f012 0f04 	tst.w	r2, #4
 800273a:	d17b      	bne.n	8002834 <HAL_RCC_ClockConfig+0x134>
 800273c:	0713      	lsls	r3, r2, #28
 800273e:	d506      	bpl.n	800274e <HAL_RCC_ClockConfig+0x4e>
 8002740:	686b      	ldr	r3, [r5, #4]
 8002742:	6922      	ldr	r2, [r4, #16]
 8002744:	f423 5360 	bic.w	r3, r3, #14336	; 0x3800
 8002748:	ea43 03c2 	orr.w	r3, r3, r2, lsl #3
 800274c:	606b      	str	r3, [r5, #4]
 800274e:	f7ff ff9f 	bl	8002690 <HAL_RCC_GetSysClockFreq>
 8002752:	686b      	ldr	r3, [r5, #4]
 8002754:	22f0      	movs	r2, #240	; 0xf0
 8002756:	fa92 f2a2 	rbit	r2, r2
 800275a:	fab2 f282 	clz	r2, r2
 800275e:	f003 03f0 	and.w	r3, r3, #240	; 0xf0
 8002762:	40d3      	lsrs	r3, r2
 8002764:	4a39      	ldr	r2, [pc, #228]	; (800284c <HAL_RCC_ClockConfig+0x14c>)
 8002766:	5cd3      	ldrb	r3, [r2, r3]
 8002768:	40d8      	lsrs	r0, r3
 800276a:	4b39      	ldr	r3, [pc, #228]	; (8002850 <HAL_RCC_ClockConfig+0x150>)
 800276c:	6018      	str	r0, [r3, #0]
 800276e:	4b39      	ldr	r3, [pc, #228]	; (8002854 <HAL_RCC_ClockConfig+0x154>)
 8002770:	6818      	ldr	r0, [r3, #0]
 8002772:	f7ff fc73 	bl	800205c <HAL_InitTick>
 8002776:	2000      	movs	r0, #0
 8002778:	e7c8      	b.n	800270c <HAL_RCC_ClockConfig+0xc>
 800277a:	6813      	ldr	r3, [r2, #0]
 800277c:	f023 0307 	bic.w	r3, r3, #7
 8002780:	430b      	orrs	r3, r1
 8002782:	6013      	str	r3, [r2, #0]
 8002784:	6813      	ldr	r3, [r2, #0]
 8002786:	f003 0307 	and.w	r3, r3, #7
 800278a:	428b      	cmp	r3, r1
 800278c:	d1bd      	bne.n	800270a <HAL_RCC_ClockConfig+0xa>
 800278e:	e7c5      	b.n	800271c <HAL_RCC_ClockConfig+0x1c>
 8002790:	492d      	ldr	r1, [pc, #180]	; (8002848 <HAL_RCC_ClockConfig+0x148>)
 8002792:	68a0      	ldr	r0, [r4, #8]
 8002794:	684b      	ldr	r3, [r1, #4]
 8002796:	f023 03f0 	bic.w	r3, r3, #240	; 0xf0
 800279a:	4303      	orrs	r3, r0
 800279c:	604b      	str	r3, [r1, #4]
 800279e:	e7c0      	b.n	8002722 <HAL_RCC_ClockConfig+0x22>
 80027a0:	6862      	ldr	r2, [r4, #4]
 80027a2:	4e29      	ldr	r6, [pc, #164]	; (8002848 <HAL_RCC_ClockConfig+0x148>)
 80027a4:	2a01      	cmp	r2, #1
 80027a6:	d126      	bne.n	80027f6 <HAL_RCC_ClockConfig+0xf6>
 80027a8:	f44f 3300 	mov.w	r3, #131072	; 0x20000
 80027ac:	fa93 f1a3 	rbit	r1, r3
 80027b0:	6831      	ldr	r1, [r6, #0]
 80027b2:	fa93 f3a3 	rbit	r3, r3
 80027b6:	fab3 f383 	clz	r3, r3
 80027ba:	f003 031f 	and.w	r3, r3, #31
 80027be:	fa02 f303 	lsl.w	r3, r2, r3
 80027c2:	420b      	tst	r3, r1
 80027c4:	d0a1      	beq.n	800270a <HAL_RCC_ClockConfig+0xa>
 80027c6:	6873      	ldr	r3, [r6, #4]
 80027c8:	f023 0303 	bic.w	r3, r3, #3
 80027cc:	431a      	orrs	r2, r3
 80027ce:	6072      	str	r2, [r6, #4]
 80027d0:	f7ff fc7a 	bl	80020c8 <HAL_GetTick>
 80027d4:	f241 3888 	movw	r8, #5000	; 0x1388
 80027d8:	4607      	mov	r7, r0
 80027da:	6873      	ldr	r3, [r6, #4]
 80027dc:	6862      	ldr	r2, [r4, #4]
 80027de:	f003 030c 	and.w	r3, r3, #12
 80027e2:	ebb3 0f82 	cmp.w	r3, r2, lsl #2
 80027e6:	d09e      	beq.n	8002726 <HAL_RCC_ClockConfig+0x26>
 80027e8:	f7ff fc6e 	bl	80020c8 <HAL_GetTick>
 80027ec:	1bc0      	subs	r0, r0, r7
 80027ee:	4540      	cmp	r0, r8
 80027f0:	d9f3      	bls.n	80027da <HAL_RCC_ClockConfig+0xda>
 80027f2:	2003      	movs	r0, #3
 80027f4:	e78a      	b.n	800270c <HAL_RCC_ClockConfig+0xc>
 80027f6:	2a02      	cmp	r2, #2
 80027f8:	bf0c      	ite	eq
 80027fa:	f04f 7300 	moveq.w	r3, #33554432	; 0x2000000
 80027fe:	2302      	movne	r3, #2
 8002800:	fa93 f1a3 	rbit	r1, r3
 8002804:	6830      	ldr	r0, [r6, #0]
 8002806:	fa93 f3a3 	rbit	r3, r3
 800280a:	fab3 f383 	clz	r3, r3
 800280e:	f003 031f 	and.w	r3, r3, #31
 8002812:	2101      	movs	r1, #1
 8002814:	fa01 f303 	lsl.w	r3, r1, r3
 8002818:	4203      	tst	r3, r0
 800281a:	e7d3      	b.n	80027c4 <HAL_RCC_ClockConfig+0xc4>
 800281c:	6813      	ldr	r3, [r2, #0]
 800281e:	f023 0307 	bic.w	r3, r3, #7
 8002822:	432b      	orrs	r3, r5
 8002824:	6013      	str	r3, [r2, #0]
 8002826:	6813      	ldr	r3, [r2, #0]
 8002828:	f003 0307 	and.w	r3, r3, #7
 800282c:	42ab      	cmp	r3, r5
 800282e:	f47f af6c 	bne.w	800270a <HAL_RCC_ClockConfig+0xa>
 8002832:	e77e      	b.n	8002732 <HAL_RCC_ClockConfig+0x32>
 8002834:	686b      	ldr	r3, [r5, #4]
 8002836:	68e1      	ldr	r1, [r4, #12]
 8002838:	f423 63e0 	bic.w	r3, r3, #1792	; 0x700
 800283c:	430b      	orrs	r3, r1
 800283e:	606b      	str	r3, [r5, #4]
 8002840:	e77c      	b.n	800273c <HAL_RCC_ClockConfig+0x3c>
 8002842:	bf00      	nop
 8002844:	40022000 	.word	0x40022000
 8002848:	40021000 	.word	0x40021000
 800284c:	080037d4 	.word	0x080037d4
 8002850:	20000000 	.word	0x20000000
 8002854:	20000008 	.word	0x20000008

08002858 <LL_GPIO_Init>:
 8002858:	e92d 4ff0 	stmdb	sp!, {r4, r5, r6, r7, r8, r9, sl, fp, lr}
 800285c:	4602      	mov	r2, r0
 800285e:	680d      	ldr	r5, [r1, #0]
 8002860:	fa95 f4a5 	rbit	r4, r5
 8002864:	f04f 0e01 	mov.w	lr, #1
 8002868:	fab4 f484 	clz	r4, r4
 800286c:	2603      	movs	r6, #3
 800286e:	f04f 0c0f 	mov.w	ip, #15
 8002872:	ea6f 0805 	mvn.w	r8, r5
 8002876:	fa35 f004 	lsrs.w	r0, r5, r4
 800287a:	d101      	bne.n	8002880 <LL_GPIO_Init+0x28>
 800287c:	e8bd 8ff0 	ldmia.w	sp!, {r4, r5, r6, r7, r8, r9, sl, fp, pc}
 8002880:	fa0e f304 	lsl.w	r3, lr, r4
 8002884:	402b      	ands	r3, r5
 8002886:	d06c      	beq.n	8002962 <LL_GPIO_Init+0x10a>
 8002888:	6848      	ldr	r0, [r1, #4]
 800288a:	1e47      	subs	r7, r0, #1
 800288c:	2f01      	cmp	r7, #1
 800288e:	d81e      	bhi.n	80028ce <LL_GPIO_Init+0x76>
 8002890:	6897      	ldr	r7, [r2, #8]
 8002892:	fa93 f9a3 	rbit	r9, r3
 8002896:	fab9 f989 	clz	r9, r9
 800289a:	fa93 faa3 	rbit	sl, r3
 800289e:	ea4f 0949 	mov.w	r9, r9, lsl #1
 80028a2:	fa06 f909 	lsl.w	r9, r6, r9
 80028a6:	ea27 0909 	bic.w	r9, r7, r9
 80028aa:	faba fa8a 	clz	sl, sl
 80028ae:	688f      	ldr	r7, [r1, #8]
 80028b0:	ea4f 0a4a 	mov.w	sl, sl, lsl #1
 80028b4:	fa07 f70a 	lsl.w	r7, r7, sl
 80028b8:	ea49 0707 	orr.w	r7, r9, r7
 80028bc:	6097      	str	r7, [r2, #8]
 80028be:	6857      	ldr	r7, [r2, #4]
 80028c0:	ea08 0907 	and.w	r9, r8, r7
 80028c4:	68cf      	ldr	r7, [r1, #12]
 80028c6:	436f      	muls	r7, r5
 80028c8:	ea49 0707 	orr.w	r7, r9, r7
 80028cc:	6057      	str	r7, [r2, #4]
 80028ce:	68d7      	ldr	r7, [r2, #12]
 80028d0:	fa93 f9a3 	rbit	r9, r3
 80028d4:	fab9 f989 	clz	r9, r9
 80028d8:	fa93 faa3 	rbit	sl, r3
 80028dc:	ea4f 0949 	mov.w	r9, r9, lsl #1
 80028e0:	fa06 f909 	lsl.w	r9, r6, r9
 80028e4:	ea27 0909 	bic.w	r9, r7, r9
 80028e8:	faba fa8a 	clz	sl, sl
 80028ec:	690f      	ldr	r7, [r1, #16]
 80028ee:	ea4f 0a4a 	mov.w	sl, sl, lsl #1
 80028f2:	fa07 f70a 	lsl.w	r7, r7, sl
 80028f6:	ea49 0707 	orr.w	r7, r9, r7
 80028fa:	2802      	cmp	r0, #2
 80028fc:	60d7      	str	r7, [r2, #12]
 80028fe:	d11d      	bne.n	800293c <LL_GPIO_Init+0xe4>
 8002900:	fa93 f7a3 	rbit	r7, r3
 8002904:	fab7 f787 	clz	r7, r7
 8002908:	2f07      	cmp	r7, #7
 800290a:	f8d1 a014 	ldr.w	sl, [r1, #20]
 800290e:	dc2a      	bgt.n	8002966 <LL_GPIO_Init+0x10e>
 8002910:	f8d2 b020 	ldr.w	fp, [r2, #32]
 8002914:	fa93 f7a3 	rbit	r7, r3
 8002918:	fab7 f787 	clz	r7, r7
 800291c:	fa93 f9a3 	rbit	r9, r3
 8002920:	fab9 f989 	clz	r9, r9
 8002924:	00bf      	lsls	r7, r7, #2
 8002926:	fa0c f707 	lsl.w	r7, ip, r7
 800292a:	ea4f 0989 	mov.w	r9, r9, lsl #2
 800292e:	ea2b 0707 	bic.w	r7, fp, r7
 8002932:	fa0a fa09 	lsl.w	sl, sl, r9
 8002936:	ea47 070a 	orr.w	r7, r7, sl
 800293a:	6217      	str	r7, [r2, #32]
 800293c:	f8d2 9000 	ldr.w	r9, [r2]
 8002940:	fa93 f7a3 	rbit	r7, r3
 8002944:	fab7 f787 	clz	r7, r7
 8002948:	fa93 f3a3 	rbit	r3, r3
 800294c:	fab3 f383 	clz	r3, r3
 8002950:	007f      	lsls	r7, r7, #1
 8002952:	fa06 f707 	lsl.w	r7, r6, r7
 8002956:	005b      	lsls	r3, r3, #1
 8002958:	ea29 0707 	bic.w	r7, r9, r7
 800295c:	4098      	lsls	r0, r3
 800295e:	4307      	orrs	r7, r0
 8002960:	6017      	str	r7, [r2, #0]
 8002962:	3401      	adds	r4, #1
 8002964:	e787      	b.n	8002876 <LL_GPIO_Init+0x1e>
 8002966:	f8d2 b024 	ldr.w	fp, [r2, #36]	; 0x24
 800296a:	ea4f 2913 	mov.w	r9, r3, lsr #8
 800296e:	fa99 f7a9 	rbit	r7, r9
 8002972:	fab7 f787 	clz	r7, r7
 8002976:	fa99 f9a9 	rbit	r9, r9
 800297a:	fab9 f989 	clz	r9, r9
 800297e:	00bf      	lsls	r7, r7, #2
 8002980:	fa0c f707 	lsl.w	r7, ip, r7
 8002984:	ea4f 0989 	mov.w	r9, r9, lsl #2
 8002988:	ea2b 0707 	bic.w	r7, fp, r7
 800298c:	fa0a fa09 	lsl.w	sl, sl, r9
 8002990:	ea47 070a 	orr.w	r7, r7, sl
 8002994:	6257      	str	r7, [r2, #36]	; 0x24
 8002996:	e7d1      	b.n	800293c <LL_GPIO_Init+0xe4>

08002998 <LL_RCC_HSI_IsReady>:
 8002998:	4b02      	ldr	r3, [pc, #8]	; (80029a4 <LL_RCC_HSI_IsReady+0xc>)
 800299a:	6818      	ldr	r0, [r3, #0]
 800299c:	f3c0 0040 	ubfx	r0, r0, #1, #1
 80029a0:	4770      	bx	lr
 80029a2:	bf00      	nop
 80029a4:	40021000 	.word	0x40021000

080029a8 <RCC_GetHCLKClockFreq>:
 80029a8:	4b03      	ldr	r3, [pc, #12]	; (80029b8 <RCC_GetHCLKClockFreq+0x10>)
 80029aa:	4a04      	ldr	r2, [pc, #16]	; (80029bc <RCC_GetHCLKClockFreq+0x14>)
 80029ac:	685b      	ldr	r3, [r3, #4]
 80029ae:	f3c3 1303 	ubfx	r3, r3, #4, #4
 80029b2:	5cd3      	ldrb	r3, [r2, r3]
 80029b4:	40d8      	lsrs	r0, r3
 80029b6:	4770      	bx	lr
 80029b8:	40021000 	.word	0x40021000
 80029bc:	080037d4 	.word	0x080037d4

080029c0 <RCC_GetPCLK1ClockFreq>:
 80029c0:	4b03      	ldr	r3, [pc, #12]	; (80029d0 <RCC_GetPCLK1ClockFreq+0x10>)
 80029c2:	4a04      	ldr	r2, [pc, #16]	; (80029d4 <RCC_GetPCLK1ClockFreq+0x14>)
 80029c4:	685b      	ldr	r3, [r3, #4]
 80029c6:	f3c3 2302 	ubfx	r3, r3, #8, #3
 80029ca:	5cd3      	ldrb	r3, [r2, r3]
 80029cc:	40d8      	lsrs	r0, r3
 80029ce:	4770      	bx	lr
 80029d0:	40021000 	.word	0x40021000
 80029d4:	080037e4 	.word	0x080037e4

080029d8 <RCC_GetPCLK2ClockFreq>:
 80029d8:	4b03      	ldr	r3, [pc, #12]	; (80029e8 <RCC_GetPCLK2ClockFreq+0x10>)
 80029da:	4a04      	ldr	r2, [pc, #16]	; (80029ec <RCC_GetPCLK2ClockFreq+0x14>)
 80029dc:	685b      	ldr	r3, [r3, #4]
 80029de:	f3c3 23c2 	ubfx	r3, r3, #11, #3
 80029e2:	5cd3      	ldrb	r3, [r2, r3]
 80029e4:	40d8      	lsrs	r0, r3
 80029e6:	4770      	bx	lr
 80029e8:	40021000 	.word	0x40021000
 80029ec:	080037e4 	.word	0x080037e4

080029f0 <RCC_PLL_GetFreqDomain_SYS>:
 80029f0:	4b0d      	ldr	r3, [pc, #52]	; (8002a28 <RCC_PLL_GetFreqDomain_SYS+0x38>)
 80029f2:	480e      	ldr	r0, [pc, #56]	; (8002a2c <RCC_PLL_GetFreqDomain_SYS+0x3c>)
 80029f4:	685a      	ldr	r2, [r3, #4]
 80029f6:	6ad9      	ldr	r1, [r3, #44]	; 0x2c
 80029f8:	685b      	ldr	r3, [r3, #4]
 80029fa:	f412 3f80 	tst.w	r2, #65536	; 0x10000
 80029fe:	4a0c      	ldr	r2, [pc, #48]	; (8002a30 <RCC_PLL_GetFreqDomain_SYS+0x40>)
 8002a00:	bf18      	it	ne
 8002a02:	4610      	movne	r0, r2
 8002a04:	f44f 1270 	mov.w	r2, #3932160	; 0x3c0000
 8002a08:	fa92 f2a2 	rbit	r2, r2
 8002a0c:	fab2 f282 	clz	r2, r2
 8002a10:	f403 1370 	and.w	r3, r3, #3932160	; 0x3c0000
 8002a14:	40d3      	lsrs	r3, r2
 8002a16:	3302      	adds	r3, #2
 8002a18:	f001 010f 	and.w	r1, r1, #15
 8002a1c:	3101      	adds	r1, #1
 8002a1e:	fbb0 f0f1 	udiv	r0, r0, r1
 8002a22:	4358      	muls	r0, r3
 8002a24:	4770      	bx	lr
 8002a26:	bf00      	nop
 8002a28:	40021000 	.word	0x40021000
 8002a2c:	003d0900 	.word	0x003d0900
 8002a30:	00f42400 	.word	0x00f42400

08002a34 <RCC_GetSystemClockFreq>:
 8002a34:	4b06      	ldr	r3, [pc, #24]	; (8002a50 <RCC_GetSystemClockFreq+0x1c>)
 8002a36:	685b      	ldr	r3, [r3, #4]
 8002a38:	f003 030c 	and.w	r3, r3, #12
 8002a3c:	2b04      	cmp	r3, #4
 8002a3e:	d003      	beq.n	8002a48 <RCC_GetSystemClockFreq+0x14>
 8002a40:	2b08      	cmp	r3, #8
 8002a42:	d103      	bne.n	8002a4c <RCC_GetSystemClockFreq+0x18>
 8002a44:	f7ff bfd4 	b.w	80029f0 <RCC_PLL_GetFreqDomain_SYS>
 8002a48:	4802      	ldr	r0, [pc, #8]	; (8002a54 <RCC_GetSystemClockFreq+0x20>)
 8002a4a:	4770      	bx	lr
 8002a4c:	4802      	ldr	r0, [pc, #8]	; (8002a58 <RCC_GetSystemClockFreq+0x24>)
 8002a4e:	4770      	bx	lr
 8002a50:	40021000 	.word	0x40021000
 8002a54:	00f42400 	.word	0x00f42400
 8002a58:	007a1200 	.word	0x007a1200

08002a5c <LL_RCC_GetUSARTClockFreq>:
 8002a5c:	b508      	push	{r3, lr}
 8002a5e:	4602      	mov	r2, r0
 8002a60:	bb20      	cbnz	r0, 8002aac <LL_RCC_GetUSARTClockFreq+0x50>
 8002a62:	492f      	ldr	r1, [pc, #188]	; (8002b20 <LL_RCC_GetUSARTClockFreq+0xc4>)
 8002a64:	6b0b      	ldr	r3, [r1, #48]	; 0x30
 8002a66:	f003 0303 	and.w	r3, r3, #3
 8002a6a:	2b02      	cmp	r3, #2
 8002a6c:	d00f      	beq.n	8002a8e <LL_RCC_GetUSARTClockFreq+0x32>
 8002a6e:	2b03      	cmp	r3, #3
 8002a70:	d005      	beq.n	8002a7e <LL_RCC_GetUSARTClockFreq+0x22>
 8002a72:	2b01      	cmp	r3, #1
 8002a74:	d112      	bne.n	8002a9c <LL_RCC_GetUSARTClockFreq+0x40>
 8002a76:	e8bd 4008 	ldmia.w	sp!, {r3, lr}
 8002a7a:	f7ff bfdb 	b.w	8002a34 <RCC_GetSystemClockFreq>
 8002a7e:	f7ff ff8b 	bl	8002998 <LL_RCC_HSI_IsReady>
 8002a82:	4b28      	ldr	r3, [pc, #160]	; (8002b24 <LL_RCC_GetUSARTClockFreq+0xc8>)
 8002a84:	2800      	cmp	r0, #0
 8002a86:	bf18      	it	ne
 8002a88:	461a      	movne	r2, r3
 8002a8a:	4610      	mov	r0, r2
 8002a8c:	e013      	b.n	8002ab6 <LL_RCC_GetUSARTClockFreq+0x5a>
 8002a8e:	6a0b      	ldr	r3, [r1, #32]
 8002a90:	f013 0f02 	tst.w	r3, #2
 8002a94:	bf18      	it	ne
 8002a96:	f44f 4200 	movne.w	r2, #32768	; 0x8000
 8002a9a:	e7f6      	b.n	8002a8a <LL_RCC_GetUSARTClockFreq+0x2e>
 8002a9c:	f7ff ffca 	bl	8002a34 <RCC_GetSystemClockFreq>
 8002aa0:	f7ff ff82 	bl	80029a8 <RCC_GetHCLKClockFreq>
 8002aa4:	e8bd 4008 	ldmia.w	sp!, {r3, lr}
 8002aa8:	f7ff bf96 	b.w	80029d8 <RCC_GetPCLK2ClockFreq>
 8002aac:	2810      	cmp	r0, #16
 8002aae:	d003      	beq.n	8002ab8 <LL_RCC_GetUSARTClockFreq+0x5c>
 8002ab0:	2812      	cmp	r0, #18
 8002ab2:	d01f      	beq.n	8002af4 <LL_RCC_GetUSARTClockFreq+0x98>
 8002ab4:	2000      	movs	r0, #0
 8002ab6:	bd08      	pop	{r3, pc}
 8002ab8:	4a19      	ldr	r2, [pc, #100]	; (8002b20 <LL_RCC_GetUSARTClockFreq+0xc4>)
 8002aba:	491b      	ldr	r1, [pc, #108]	; (8002b28 <LL_RCC_GetUSARTClockFreq+0xcc>)
 8002abc:	6b13      	ldr	r3, [r2, #48]	; 0x30
 8002abe:	f403 3340 	and.w	r3, r3, #196608	; 0x30000
 8002ac2:	f043 5380 	orr.w	r3, r3, #268435456	; 0x10000000
 8002ac6:	428b      	cmp	r3, r1
 8002ac8:	d023      	beq.n	8002b12 <LL_RCC_GetUSARTClockFreq+0xb6>
 8002aca:	4a18      	ldr	r2, [pc, #96]	; (8002b2c <LL_RCC_GetUSARTClockFreq+0xd0>)
 8002acc:	4293      	cmp	r3, r2
 8002ace:	d00b      	beq.n	8002ae8 <LL_RCC_GetUSARTClockFreq+0x8c>
 8002ad0:	f5a2 3200 	sub.w	r2, r2, #131072	; 0x20000
 8002ad4:	4293      	cmp	r3, r2
 8002ad6:	d0ce      	beq.n	8002a76 <LL_RCC_GetUSARTClockFreq+0x1a>
 8002ad8:	f7ff ffac 	bl	8002a34 <RCC_GetSystemClockFreq>
 8002adc:	f7ff ff64 	bl	80029a8 <RCC_GetHCLKClockFreq>
 8002ae0:	e8bd 4008 	ldmia.w	sp!, {r3, lr}
 8002ae4:	f7ff bf6c 	b.w	80029c0 <RCC_GetPCLK1ClockFreq>
 8002ae8:	f7ff ff56 	bl	8002998 <LL_RCC_HSI_IsReady>
 8002aec:	2800      	cmp	r0, #0
 8002aee:	d0e1      	beq.n	8002ab4 <LL_RCC_GetUSARTClockFreq+0x58>
 8002af0:	480c      	ldr	r0, [pc, #48]	; (8002b24 <LL_RCC_GetUSARTClockFreq+0xc8>)
 8002af2:	e7e0      	b.n	8002ab6 <LL_RCC_GetUSARTClockFreq+0x5a>
 8002af4:	4a0a      	ldr	r2, [pc, #40]	; (8002b20 <LL_RCC_GetUSARTClockFreq+0xc4>)
 8002af6:	490e      	ldr	r1, [pc, #56]	; (8002b30 <LL_RCC_GetUSARTClockFreq+0xd4>)
 8002af8:	6b13      	ldr	r3, [r2, #48]	; 0x30
 8002afa:	f403 2340 	and.w	r3, r3, #786432	; 0xc0000
 8002afe:	f043 5390 	orr.w	r3, r3, #301989888	; 0x12000000
 8002b02:	428b      	cmp	r3, r1
 8002b04:	d005      	beq.n	8002b12 <LL_RCC_GetUSARTClockFreq+0xb6>
 8002b06:	4a0b      	ldr	r2, [pc, #44]	; (8002b34 <LL_RCC_GetUSARTClockFreq+0xd8>)
 8002b08:	4293      	cmp	r3, r2
 8002b0a:	d0ed      	beq.n	8002ae8 <LL_RCC_GetUSARTClockFreq+0x8c>
 8002b0c:	f5a2 2200 	sub.w	r2, r2, #524288	; 0x80000
 8002b10:	e7e0      	b.n	8002ad4 <LL_RCC_GetUSARTClockFreq+0x78>
 8002b12:	6a13      	ldr	r3, [r2, #32]
 8002b14:	079b      	lsls	r3, r3, #30
 8002b16:	d5cd      	bpl.n	8002ab4 <LL_RCC_GetUSARTClockFreq+0x58>
 8002b18:	f44f 4000 	mov.w	r0, #32768	; 0x8000
 8002b1c:	e7cb      	b.n	8002ab6 <LL_RCC_GetUSARTClockFreq+0x5a>
 8002b1e:	bf00      	nop
 8002b20:	40021000 	.word	0x40021000
 8002b24:	007a1200 	.word	0x007a1200
 8002b28:	10020000 	.word	0x10020000
 8002b2c:	10030000 	.word	0x10030000
 8002b30:	12080000 	.word	0x12080000
 8002b34:	120c0000 	.word	0x120c0000

08002b38 <LL_SPI_Init>:
 8002b38:	6803      	ldr	r3, [r0, #0]
 8002b3a:	065b      	lsls	r3, r3, #25
 8002b3c:	b570      	push	{r4, r5, r6, lr}
 8002b3e:	d42d      	bmi.n	8002b9c <LL_SPI_Init+0x64>
 8002b40:	e9d1 3600 	ldrd	r3, r6, [r1]
 8002b44:	4333      	orrs	r3, r6
 8002b46:	68ce      	ldr	r6, [r1, #12]
 8002b48:	694a      	ldr	r2, [r1, #20]
 8002b4a:	6805      	ldr	r5, [r0, #0]
 8002b4c:	6a0c      	ldr	r4, [r1, #32]
 8002b4e:	4333      	orrs	r3, r6
 8002b50:	690e      	ldr	r6, [r1, #16]
 8002b52:	4333      	orrs	r3, r6
 8002b54:	698e      	ldr	r6, [r1, #24]
 8002b56:	4313      	orrs	r3, r2
 8002b58:	4333      	orrs	r3, r6
 8002b5a:	69ce      	ldr	r6, [r1, #28]
 8002b5c:	f425 457f 	bic.w	r5, r5, #65280	; 0xff00
 8002b60:	4333      	orrs	r3, r6
 8002b62:	f025 05bf 	bic.w	r5, r5, #191	; 0xbf
 8002b66:	4323      	orrs	r3, r4
 8002b68:	432b      	orrs	r3, r5
 8002b6a:	6003      	str	r3, [r0, #0]
 8002b6c:	6843      	ldr	r3, [r0, #4]
 8002b6e:	688d      	ldr	r5, [r1, #8]
 8002b70:	f423 6370 	bic.w	r3, r3, #3840	; 0xf00
 8002b74:	f023 0304 	bic.w	r3, r3, #4
 8002b78:	ea45 4212 	orr.w	r2, r5, r2, lsr #16
 8002b7c:	431a      	orrs	r2, r3
 8002b7e:	f5b5 6f00 	cmp.w	r5, #2048	; 0x800
 8002b82:	6042      	str	r2, [r0, #4]
 8002b84:	bf3e      	ittt	cc
 8002b86:	6843      	ldrcc	r3, [r0, #4]
 8002b88:	f443 5380 	orrcc.w	r3, r3, #4096	; 0x1000
 8002b8c:	6043      	strcc	r3, [r0, #4]
 8002b8e:	f5b4 5f00 	cmp.w	r4, #8192	; 0x2000
 8002b92:	d101      	bne.n	8002b98 <LL_SPI_Init+0x60>
 8002b94:	8c8b      	ldrh	r3, [r1, #36]	; 0x24
 8002b96:	6103      	str	r3, [r0, #16]
 8002b98:	2300      	movs	r3, #0
 8002b9a:	e000      	b.n	8002b9e <LL_SPI_Init+0x66>
 8002b9c:	2301      	movs	r3, #1
 8002b9e:	69c2      	ldr	r2, [r0, #28]
 8002ba0:	f422 6200 	bic.w	r2, r2, #2048	; 0x800
 8002ba4:	61c2      	str	r2, [r0, #28]
 8002ba6:	4618      	mov	r0, r3
 8002ba8:	bd70      	pop	{r4, r5, r6, pc}
	...

08002bac <LL_TIM_Init>:
 8002bac:	f1b0 4f80 	cmp.w	r0, #1073741824	; 0x40000000
 8002bb0:	6803      	ldr	r3, [r0, #0]
 8002bb2:	d00e      	beq.n	8002bd2 <LL_TIM_Init+0x26>
 8002bb4:	4a2c      	ldr	r2, [pc, #176]	; (8002c68 <LL_TIM_Init+0xbc>)
 8002bb6:	4290      	cmp	r0, r2
 8002bb8:	d00b      	beq.n	8002bd2 <LL_TIM_Init+0x26>
 8002bba:	f502 6280 	add.w	r2, r2, #1024	; 0x400
 8002bbe:	4290      	cmp	r0, r2
 8002bc0:	d007      	beq.n	8002bd2 <LL_TIM_Init+0x26>
 8002bc2:	f502 6280 	add.w	r2, r2, #1024	; 0x400
 8002bc6:	4290      	cmp	r0, r2
 8002bc8:	d003      	beq.n	8002bd2 <LL_TIM_Init+0x26>
 8002bca:	f502 32a8 	add.w	r2, r2, #86016	; 0x15000
 8002bce:	4290      	cmp	r0, r2
 8002bd0:	d112      	bne.n	8002bf8 <LL_TIM_Init+0x4c>
 8002bd2:	684a      	ldr	r2, [r1, #4]
 8002bd4:	f023 0370 	bic.w	r3, r3, #112	; 0x70
 8002bd8:	f1b0 4f80 	cmp.w	r0, #1073741824	; 0x40000000
 8002bdc:	ea43 0302 	orr.w	r3, r3, r2
 8002be0:	d025      	beq.n	8002c2e <LL_TIM_Init+0x82>
 8002be2:	4a21      	ldr	r2, [pc, #132]	; (8002c68 <LL_TIM_Init+0xbc>)
 8002be4:	4290      	cmp	r0, r2
 8002be6:	d022      	beq.n	8002c2e <LL_TIM_Init+0x82>
 8002be8:	f502 6280 	add.w	r2, r2, #1024	; 0x400
 8002bec:	4290      	cmp	r0, r2
 8002bee:	d01e      	beq.n	8002c2e <LL_TIM_Init+0x82>
 8002bf0:	f502 6280 	add.w	r2, r2, #1024	; 0x400
 8002bf4:	4290      	cmp	r0, r2
 8002bf6:	d01a      	beq.n	8002c2e <LL_TIM_Init+0x82>
 8002bf8:	4a1c      	ldr	r2, [pc, #112]	; (8002c6c <LL_TIM_Init+0xc0>)
 8002bfa:	4290      	cmp	r0, r2
 8002bfc:	d017      	beq.n	8002c2e <LL_TIM_Init+0x82>
 8002bfe:	f502 6280 	add.w	r2, r2, #1024	; 0x400
 8002c02:	4290      	cmp	r0, r2
 8002c04:	d013      	beq.n	8002c2e <LL_TIM_Init+0x82>
 8002c06:	f502 6280 	add.w	r2, r2, #1024	; 0x400
 8002c0a:	4290      	cmp	r0, r2
 8002c0c:	d00f      	beq.n	8002c2e <LL_TIM_Init+0x82>
 8002c0e:	f502 3290 	add.w	r2, r2, #73728	; 0x12000
 8002c12:	4290      	cmp	r0, r2
 8002c14:	d00b      	beq.n	8002c2e <LL_TIM_Init+0x82>
 8002c16:	f502 6280 	add.w	r2, r2, #1024	; 0x400
 8002c1a:	4290      	cmp	r0, r2
 8002c1c:	d007      	beq.n	8002c2e <LL_TIM_Init+0x82>
 8002c1e:	f502 6280 	add.w	r2, r2, #1024	; 0x400
 8002c22:	4290      	cmp	r0, r2
 8002c24:	d003      	beq.n	8002c2e <LL_TIM_Init+0x82>
 8002c26:	f502 52a0 	add.w	r2, r2, #5120	; 0x1400
 8002c2a:	4290      	cmp	r0, r2
 8002c2c:	d103      	bne.n	8002c36 <LL_TIM_Init+0x8a>
 8002c2e:	68ca      	ldr	r2, [r1, #12]
 8002c30:	f423 7340 	bic.w	r3, r3, #768	; 0x300
 8002c34:	4313      	orrs	r3, r2
 8002c36:	6003      	str	r3, [r0, #0]
 8002c38:	688b      	ldr	r3, [r1, #8]
 8002c3a:	62c3      	str	r3, [r0, #44]	; 0x2c
 8002c3c:	880b      	ldrh	r3, [r1, #0]
 8002c3e:	6283      	str	r3, [r0, #40]	; 0x28
 8002c40:	4b0b      	ldr	r3, [pc, #44]	; (8002c70 <LL_TIM_Init+0xc4>)
 8002c42:	4298      	cmp	r0, r3
 8002c44:	d007      	beq.n	8002c56 <LL_TIM_Init+0xaa>
 8002c46:	f503 6380 	add.w	r3, r3, #1024	; 0x400
 8002c4a:	4298      	cmp	r0, r3
 8002c4c:	d003      	beq.n	8002c56 <LL_TIM_Init+0xaa>
 8002c4e:	f503 6380 	add.w	r3, r3, #1024	; 0x400
 8002c52:	4298      	cmp	r0, r3
 8002c54:	d101      	bne.n	8002c5a <LL_TIM_Init+0xae>
 8002c56:	690b      	ldr	r3, [r1, #16]
 8002c58:	6303      	str	r3, [r0, #48]	; 0x30
 8002c5a:	6943      	ldr	r3, [r0, #20]
 8002c5c:	f043 0301 	orr.w	r3, r3, #1
 8002c60:	6143      	str	r3, [r0, #20]
 8002c62:	2000      	movs	r0, #0
 8002c64:	4770      	bx	lr
 8002c66:	bf00      	nop
 8002c68:	40000400 	.word	0x40000400
 8002c6c:	40001800 	.word	0x40001800
 8002c70:	40014000 	.word	0x40014000

08002c74 <LL_TIM_OC_Init>:
 8002c74:	f5b1 7f80 	cmp.w	r1, #256	; 0x100
 8002c78:	b530      	push	{r4, r5, lr}
 8002c7a:	f000 8092 	beq.w	8002da2 <LL_TIM_OC_Init+0x12e>
 8002c7e:	d805      	bhi.n	8002c8c <LL_TIM_OC_Init+0x18>
 8002c80:	2901      	cmp	r1, #1
 8002c82:	d021      	beq.n	8002cc8 <LL_TIM_OC_Init+0x54>
 8002c84:	2910      	cmp	r1, #16
 8002c86:	d057      	beq.n	8002d38 <LL_TIM_OC_Init+0xc4>
 8002c88:	2001      	movs	r0, #1
 8002c8a:	bd30      	pop	{r4, r5, pc}
 8002c8c:	f5b1 5f80 	cmp.w	r1, #4096	; 0x1000
 8002c90:	d1fa      	bne.n	8002c88 <LL_TIM_OC_Init+0x14>
 8002c92:	6a03      	ldr	r3, [r0, #32]
 8002c94:	6815      	ldr	r5, [r2, #0]
 8002c96:	f423 5380 	bic.w	r3, r3, #4096	; 0x1000
 8002c9a:	6203      	str	r3, [r0, #32]
 8002c9c:	6a03      	ldr	r3, [r0, #32]
 8002c9e:	6844      	ldr	r4, [r0, #4]
 8002ca0:	69c1      	ldr	r1, [r0, #28]
 8002ca2:	f421 41e6 	bic.w	r1, r1, #29440	; 0x7300
 8002ca6:	ea41 2105 	orr.w	r1, r1, r5, lsl #8
 8002caa:	6915      	ldr	r5, [r2, #16]
 8002cac:	f423 5300 	bic.w	r3, r3, #8192	; 0x2000
 8002cb0:	ea43 3305 	orr.w	r3, r3, r5, lsl #12
 8002cb4:	6855      	ldr	r5, [r2, #4]
 8002cb6:	68d2      	ldr	r2, [r2, #12]
 8002cb8:	6044      	str	r4, [r0, #4]
 8002cba:	f423 5380 	bic.w	r3, r3, #4096	; 0x1000
 8002cbe:	61c1      	str	r1, [r0, #28]
 8002cc0:	ea43 3305 	orr.w	r3, r3, r5, lsl #12
 8002cc4:	6402      	str	r2, [r0, #64]	; 0x40
 8002cc6:	e034      	b.n	8002d32 <LL_TIM_OC_Init+0xbe>
 8002cc8:	6a03      	ldr	r3, [r0, #32]
 8002cca:	6815      	ldr	r5, [r2, #0]
 8002ccc:	f023 0301 	bic.w	r3, r3, #1
 8002cd0:	6203      	str	r3, [r0, #32]
 8002cd2:	6a03      	ldr	r3, [r0, #32]
 8002cd4:	6841      	ldr	r1, [r0, #4]
 8002cd6:	6984      	ldr	r4, [r0, #24]
 8002cd8:	f024 0473 	bic.w	r4, r4, #115	; 0x73
 8002cdc:	432c      	orrs	r4, r5
 8002cde:	6915      	ldr	r5, [r2, #16]
 8002ce0:	f023 0302 	bic.w	r3, r3, #2
 8002ce4:	432b      	orrs	r3, r5
 8002ce6:	6855      	ldr	r5, [r2, #4]
 8002ce8:	f023 0301 	bic.w	r3, r3, #1
 8002cec:	432b      	orrs	r3, r5
 8002cee:	4d44      	ldr	r5, [pc, #272]	; (8002e00 <LL_TIM_OC_Init+0x18c>)
 8002cf0:	42a8      	cmp	r0, r5
 8002cf2:	d007      	beq.n	8002d04 <LL_TIM_OC_Init+0x90>
 8002cf4:	f505 6580 	add.w	r5, r5, #1024	; 0x400
 8002cf8:	42a8      	cmp	r0, r5
 8002cfa:	d003      	beq.n	8002d04 <LL_TIM_OC_Init+0x90>
 8002cfc:	f505 6580 	add.w	r5, r5, #1024	; 0x400
 8002d00:	42a8      	cmp	r0, r5
 8002d02:	d112      	bne.n	8002d2a <LL_TIM_OC_Init+0xb6>
 8002d04:	6955      	ldr	r5, [r2, #20]
 8002d06:	f023 0308 	bic.w	r3, r3, #8
 8002d0a:	ea43 0385 	orr.w	r3, r3, r5, lsl #2
 8002d0e:	6895      	ldr	r5, [r2, #8]
 8002d10:	f023 0304 	bic.w	r3, r3, #4
 8002d14:	ea43 0385 	orr.w	r3, r3, r5, lsl #2
 8002d18:	6995      	ldr	r5, [r2, #24]
 8002d1a:	f421 7180 	bic.w	r1, r1, #256	; 0x100
 8002d1e:	4329      	orrs	r1, r5
 8002d20:	69d5      	ldr	r5, [r2, #28]
 8002d22:	f421 7100 	bic.w	r1, r1, #512	; 0x200
 8002d26:	ea41 0145 	orr.w	r1, r1, r5, lsl #1
 8002d2a:	68d2      	ldr	r2, [r2, #12]
 8002d2c:	6041      	str	r1, [r0, #4]
 8002d2e:	6184      	str	r4, [r0, #24]
 8002d30:	6342      	str	r2, [r0, #52]	; 0x34
 8002d32:	6203      	str	r3, [r0, #32]
 8002d34:	2000      	movs	r0, #0
 8002d36:	e7a8      	b.n	8002c8a <LL_TIM_OC_Init+0x16>
 8002d38:	6a03      	ldr	r3, [r0, #32]
 8002d3a:	6815      	ldr	r5, [r2, #0]
 8002d3c:	f023 0310 	bic.w	r3, r3, #16
 8002d40:	6203      	str	r3, [r0, #32]
 8002d42:	6a03      	ldr	r3, [r0, #32]
 8002d44:	6844      	ldr	r4, [r0, #4]
 8002d46:	6981      	ldr	r1, [r0, #24]
 8002d48:	f421 41e6 	bic.w	r1, r1, #29440	; 0x7300
 8002d4c:	ea41 2105 	orr.w	r1, r1, r5, lsl #8
 8002d50:	6915      	ldr	r5, [r2, #16]
 8002d52:	f023 0320 	bic.w	r3, r3, #32
 8002d56:	ea43 1305 	orr.w	r3, r3, r5, lsl #4
 8002d5a:	6855      	ldr	r5, [r2, #4]
 8002d5c:	f023 0310 	bic.w	r3, r3, #16
 8002d60:	ea43 1305 	orr.w	r3, r3, r5, lsl #4
 8002d64:	4d26      	ldr	r5, [pc, #152]	; (8002e00 <LL_TIM_OC_Init+0x18c>)
 8002d66:	42a8      	cmp	r0, r5
 8002d68:	d007      	beq.n	8002d7a <LL_TIM_OC_Init+0x106>
 8002d6a:	f505 6580 	add.w	r5, r5, #1024	; 0x400
 8002d6e:	42a8      	cmp	r0, r5
 8002d70:	d003      	beq.n	8002d7a <LL_TIM_OC_Init+0x106>
 8002d72:	f505 6580 	add.w	r5, r5, #1024	; 0x400
 8002d76:	42a8      	cmp	r0, r5
 8002d78:	d10e      	bne.n	8002d98 <LL_TIM_OC_Init+0x124>
 8002d7a:	6955      	ldr	r5, [r2, #20]
 8002d7c:	f023 0380 	bic.w	r3, r3, #128	; 0x80
 8002d80:	ea43 1385 	orr.w	r3, r3, r5, lsl #6
 8002d84:	6895      	ldr	r5, [r2, #8]
 8002d86:	f023 0340 	bic.w	r3, r3, #64	; 0x40
 8002d8a:	ea43 1385 	orr.w	r3, r3, r5, lsl #6
 8002d8e:	6995      	ldr	r5, [r2, #24]
 8002d90:	f424 6480 	bic.w	r4, r4, #1024	; 0x400
 8002d94:	ea44 0485 	orr.w	r4, r4, r5, lsl #2
 8002d98:	68d2      	ldr	r2, [r2, #12]
 8002d9a:	6044      	str	r4, [r0, #4]
 8002d9c:	6181      	str	r1, [r0, #24]
 8002d9e:	6382      	str	r2, [r0, #56]	; 0x38
 8002da0:	e7c7      	b.n	8002d32 <LL_TIM_OC_Init+0xbe>
 8002da2:	6a03      	ldr	r3, [r0, #32]
 8002da4:	6815      	ldr	r5, [r2, #0]
 8002da6:	f423 7380 	bic.w	r3, r3, #256	; 0x100
 8002daa:	6203      	str	r3, [r0, #32]
 8002dac:	6a03      	ldr	r3, [r0, #32]
 8002dae:	6844      	ldr	r4, [r0, #4]
 8002db0:	69c1      	ldr	r1, [r0, #28]
 8002db2:	f021 0173 	bic.w	r1, r1, #115	; 0x73
 8002db6:	4329      	orrs	r1, r5
 8002db8:	6915      	ldr	r5, [r2, #16]
 8002dba:	f423 7300 	bic.w	r3, r3, #512	; 0x200
 8002dbe:	ea43 2305 	orr.w	r3, r3, r5, lsl #8
 8002dc2:	6855      	ldr	r5, [r2, #4]
 8002dc4:	f423 7380 	bic.w	r3, r3, #256	; 0x100
 8002dc8:	ea43 2305 	orr.w	r3, r3, r5, lsl #8
 8002dcc:	4d0c      	ldr	r5, [pc, #48]	; (8002e00 <LL_TIM_OC_Init+0x18c>)
 8002dce:	42a8      	cmp	r0, r5
 8002dd0:	d007      	beq.n	8002de2 <LL_TIM_OC_Init+0x16e>
 8002dd2:	f505 6580 	add.w	r5, r5, #1024	; 0x400
 8002dd6:	42a8      	cmp	r0, r5
 8002dd8:	d003      	beq.n	8002de2 <LL_TIM_OC_Init+0x16e>
 8002dda:	f505 6580 	add.w	r5, r5, #1024	; 0x400
 8002dde:	42a8      	cmp	r0, r5
 8002de0:	d109      	bne.n	8002df6 <LL_TIM_OC_Init+0x182>
 8002de2:	6955      	ldr	r5, [r2, #20]
 8002de4:	f423 6300 	bic.w	r3, r3, #2048	; 0x800
 8002de8:	ea43 2385 	orr.w	r3, r3, r5, lsl #10
 8002dec:	6895      	ldr	r5, [r2, #8]
 8002dee:	f423 6380 	bic.w	r3, r3, #1024	; 0x400
 8002df2:	ea43 2385 	orr.w	r3, r3, r5, lsl #10
 8002df6:	68d2      	ldr	r2, [r2, #12]
 8002df8:	6044      	str	r4, [r0, #4]
 8002dfa:	61c1      	str	r1, [r0, #28]
 8002dfc:	63c2      	str	r2, [r0, #60]	; 0x3c
 8002dfe:	e798      	b.n	8002d32 <LL_TIM_OC_Init+0xbe>
 8002e00:	40014000 	.word	0x40014000

08002e04 <LL_USART_Init>:
 8002e04:	b538      	push	{r3, r4, r5, lr}
 8002e06:	4604      	mov	r4, r0
 8002e08:	6800      	ldr	r0, [r0, #0]
 8002e0a:	f010 0001 	ands.w	r0, r0, #1
 8002e0e:	460d      	mov	r5, r1
 8002e10:	d001      	beq.n	8002e16 <LL_USART_Init+0x12>
 8002e12:	2001      	movs	r0, #1
 8002e14:	bd38      	pop	{r3, r4, r5, pc}
 8002e16:	684b      	ldr	r3, [r1, #4]
 8002e18:	68c9      	ldr	r1, [r1, #12]
 8002e1a:	6822      	ldr	r2, [r4, #0]
 8002e1c:	430b      	orrs	r3, r1
 8002e1e:	6929      	ldr	r1, [r5, #16]
 8002e20:	430b      	orrs	r3, r1
 8002e22:	69a9      	ldr	r1, [r5, #24]
 8002e24:	f422 4216 	bic.w	r2, r2, #38400	; 0x9600
 8002e28:	f022 020c 	bic.w	r2, r2, #12
 8002e2c:	430b      	orrs	r3, r1
 8002e2e:	4313      	orrs	r3, r2
 8002e30:	6023      	str	r3, [r4, #0]
 8002e32:	6863      	ldr	r3, [r4, #4]
 8002e34:	68aa      	ldr	r2, [r5, #8]
 8002e36:	f423 5340 	bic.w	r3, r3, #12288	; 0x3000
 8002e3a:	4313      	orrs	r3, r2
 8002e3c:	6063      	str	r3, [r4, #4]
 8002e3e:	68a3      	ldr	r3, [r4, #8]
 8002e40:	696a      	ldr	r2, [r5, #20]
 8002e42:	f423 7340 	bic.w	r3, r3, #768	; 0x300
 8002e46:	4313      	orrs	r3, r2
 8002e48:	60a3      	str	r3, [r4, #8]
 8002e4a:	4b16      	ldr	r3, [pc, #88]	; (8002ea4 <LL_USART_Init+0xa0>)
 8002e4c:	429c      	cmp	r4, r3
 8002e4e:	d119      	bne.n	8002e84 <LL_USART_Init+0x80>
 8002e50:	f7ff fe04 	bl	8002a5c <LL_RCC_GetUSARTClockFreq>
 8002e54:	2800      	cmp	r0, #0
 8002e56:	d0dc      	beq.n	8002e12 <LL_USART_Init+0xe>
 8002e58:	682a      	ldr	r2, [r5, #0]
 8002e5a:	2a00      	cmp	r2, #0
 8002e5c:	d0d9      	beq.n	8002e12 <LL_USART_Init+0xe>
 8002e5e:	69a9      	ldr	r1, [r5, #24]
 8002e60:	f5b1 4f00 	cmp.w	r1, #32768	; 0x8000
 8002e64:	ea4f 0352 	mov.w	r3, r2, lsr #1
 8002e68:	d116      	bne.n	8002e98 <LL_USART_Init+0x94>
 8002e6a:	eb03 0340 	add.w	r3, r3, r0, lsl #1
 8002e6e:	f64f 70f0 	movw	r0, #65520	; 0xfff0
 8002e72:	fbb3 f3f2 	udiv	r3, r3, r2
 8002e76:	4018      	ands	r0, r3
 8002e78:	f3c3 0342 	ubfx	r3, r3, #1, #3
 8002e7c:	4303      	orrs	r3, r0
 8002e7e:	60e3      	str	r3, [r4, #12]
 8002e80:	2000      	movs	r0, #0
 8002e82:	e7c7      	b.n	8002e14 <LL_USART_Init+0x10>
 8002e84:	4b08      	ldr	r3, [pc, #32]	; (8002ea8 <LL_USART_Init+0xa4>)
 8002e86:	429c      	cmp	r4, r3
 8002e88:	d101      	bne.n	8002e8e <LL_USART_Init+0x8a>
 8002e8a:	2010      	movs	r0, #16
 8002e8c:	e7e0      	b.n	8002e50 <LL_USART_Init+0x4c>
 8002e8e:	4b07      	ldr	r3, [pc, #28]	; (8002eac <LL_USART_Init+0xa8>)
 8002e90:	429c      	cmp	r4, r3
 8002e92:	d1be      	bne.n	8002e12 <LL_USART_Init+0xe>
 8002e94:	2012      	movs	r0, #18
 8002e96:	e7db      	b.n	8002e50 <LL_USART_Init+0x4c>
 8002e98:	4403      	add	r3, r0
 8002e9a:	fbb3 f3f2 	udiv	r3, r3, r2
 8002e9e:	b29b      	uxth	r3, r3
 8002ea0:	e7ed      	b.n	8002e7e <LL_USART_Init+0x7a>
 8002ea2:	bf00      	nop
 8002ea4:	40013800 	.word	0x40013800
 8002ea8:	40004400 	.word	0x40004400
 8002eac:	40004800 	.word	0x40004800

08002eb0 <LL_USART_StructInit>:
 8002eb0:	2300      	movs	r3, #0
 8002eb2:	f44f 5216 	mov.w	r2, #9600	; 0x2580
 8002eb6:	e9c0 2300 	strd	r2, r3, [r0]
 8002eba:	220c      	movs	r2, #12
 8002ebc:	e9c0 3302 	strd	r3, r3, [r0, #8]
 8002ec0:	e9c0 2304 	strd	r2, r3, [r0, #16]
 8002ec4:	6183      	str	r3, [r0, #24]
 8002ec6:	4770      	bx	lr

08002ec8 <u8toBCD>:
 8002ec8:	b510      	push	{r4, lr}
 8002eca:	2430      	movs	r4, #48	; 0x30
 8002ecc:	700c      	strb	r4, [r1, #0]
 8002ece:	2863      	cmp	r0, #99	; 0x63
 8002ed0:	d806      	bhi.n	8002ee0 <u8toBCD+0x18>
 8002ed2:	2130      	movs	r1, #48	; 0x30
 8002ed4:	7011      	strb	r1, [r2, #0]
 8002ed6:	2809      	cmp	r0, #9
 8002ed8:	d808      	bhi.n	8002eec <u8toBCD+0x24>
 8002eda:	3030      	adds	r0, #48	; 0x30
 8002edc:	7018      	strb	r0, [r3, #0]
 8002ede:	bd10      	pop	{r4, pc}
 8002ee0:	780c      	ldrb	r4, [r1, #0]
 8002ee2:	3864      	subs	r0, #100	; 0x64
 8002ee4:	3401      	adds	r4, #1
 8002ee6:	700c      	strb	r4, [r1, #0]
 8002ee8:	b2c0      	uxtb	r0, r0
 8002eea:	e7f0      	b.n	8002ece <u8toBCD+0x6>
 8002eec:	7811      	ldrb	r1, [r2, #0]
 8002eee:	380a      	subs	r0, #10
 8002ef0:	3101      	adds	r1, #1
 8002ef2:	7011      	strb	r1, [r2, #0]
 8002ef4:	b2c0      	uxtb	r0, r0
 8002ef6:	e7ee      	b.n	8002ed6 <u8toBCD+0xe>

08002ef8 <u8toBCDstr>:
 8002ef8:	b510      	push	{r4, lr}
 8002efa:	1c8b      	adds	r3, r1, #2
 8002efc:	460c      	mov	r4, r1
 8002efe:	1c4a      	adds	r2, r1, #1
 8002f00:	f7ff ffe2 	bl	8002ec8 <u8toBCD>
 8002f04:	2300      	movs	r3, #0
 8002f06:	70e3      	strb	r3, [r4, #3]
 8002f08:	bd10      	pop	{r4, pc}

08002f0a <s8toBCDstr>:
 8002f0a:	2800      	cmp	r0, #0
 8002f0c:	b510      	push	{r4, lr}
 8002f0e:	460b      	mov	r3, r1
 8002f10:	bfbb      	ittet	lt
 8002f12:	4240      	neglt	r0, r0
 8002f14:	222d      	movlt	r2, #45	; 0x2d
 8002f16:	2220      	movge	r2, #32
 8002f18:	b240      	sxtblt	r0, r0
 8002f1a:	f803 2b03 	strb.w	r2, [r3], #3
 8002f1e:	460c      	mov	r4, r1
 8002f20:	1c8a      	adds	r2, r1, #2
 8002f22:	b2c0      	uxtb	r0, r0
 8002f24:	3101      	adds	r1, #1
 8002f26:	f7ff ffcf 	bl	8002ec8 <u8toBCD>
 8002f2a:	2300      	movs	r3, #0
 8002f2c:	7123      	strb	r3, [r4, #4]
 8002f2e:	bd10      	pop	{r4, pc}

08002f30 <u8toHEXstr>:
 8002f30:	0903      	lsrs	r3, r0, #4
 8002f32:	289f      	cmp	r0, #159	; 0x9f
 8002f34:	f000 000f 	and.w	r0, r0, #15
 8002f38:	bf94      	ite	ls
 8002f3a:	3330      	addls	r3, #48	; 0x30
 8002f3c:	3337      	addhi	r3, #55	; 0x37
 8002f3e:	2809      	cmp	r0, #9
 8002f40:	700b      	strb	r3, [r1, #0]
 8002f42:	bf94      	ite	ls
 8002f44:	3030      	addls	r0, #48	; 0x30
 8002f46:	3037      	addhi	r0, #55	; 0x37
 8002f48:	2300      	movs	r3, #0
 8002f4a:	7048      	strb	r0, [r1, #1]
 8002f4c:	708b      	strb	r3, [r1, #2]
 8002f4e:	4770      	bx	lr

08002f50 <u16toHEXstr>:
 8002f50:	b513      	push	{r0, r1, r4, lr}
 8002f52:	460a      	mov	r2, r1
 8002f54:	4604      	mov	r4, r0
 8002f56:	a901      	add	r1, sp, #4
 8002f58:	b2c0      	uxtb	r0, r0
 8002f5a:	f7ff ffe9 	bl	8002f30 <u8toHEXstr>
 8002f5e:	0a20      	lsrs	r0, r4, #8
 8002f60:	4611      	mov	r1, r2
 8002f62:	f7ff ffe5 	bl	8002f30 <u8toHEXstr>
 8002f66:	f89d 3004 	ldrb.w	r3, [sp, #4]
 8002f6a:	7093      	strb	r3, [r2, #2]
 8002f6c:	f89d 3005 	ldrb.w	r3, [sp, #5]
 8002f70:	70d3      	strb	r3, [r2, #3]
 8002f72:	f89d 3006 	ldrb.w	r3, [sp, #6]
 8002f76:	7113      	strb	r3, [r2, #4]
 8002f78:	b002      	add	sp, #8
 8002f7a:	bd10      	pop	{r4, pc}

08002f7c <u8toBCD_s>:
 8002f7c:	b510      	push	{r4, lr}
 8002f7e:	4c03      	ldr	r4, [pc, #12]	; (8002f8c <u8toBCD_s+0x10>)
 8002f80:	4621      	mov	r1, r4
 8002f82:	f7ff ffb9 	bl	8002ef8 <u8toBCDstr>
 8002f86:	4620      	mov	r0, r4
 8002f88:	bd10      	pop	{r4, pc}
 8002f8a:	bf00      	nop
 8002f8c:	200018a0 	.word	0x200018a0

08002f90 <s8toBCD_s>:
 8002f90:	b510      	push	{r4, lr}
 8002f92:	4c03      	ldr	r4, [pc, #12]	; (8002fa0 <s8toBCD_s+0x10>)
 8002f94:	4621      	mov	r1, r4
 8002f96:	f7ff ffb8 	bl	8002f0a <s8toBCDstr>
 8002f9a:	4620      	mov	r0, r4
 8002f9c:	bd10      	pop	{r4, pc}
 8002f9e:	bf00      	nop
 8002fa0:	200018a0 	.word	0x200018a0

08002fa4 <u8toHEX_s>:
 8002fa4:	b508      	push	{r3, lr}
 8002fa6:	4902      	ldr	r1, [pc, #8]	; (8002fb0 <u8toHEX_s+0xc>)
 8002fa8:	f7ff ffc2 	bl	8002f30 <u8toHEXstr>
 8002fac:	4608      	mov	r0, r1
 8002fae:	bd08      	pop	{r3, pc}
 8002fb0:	200018a0 	.word	0x200018a0

08002fb4 <u16toHEX_s>:
 8002fb4:	b510      	push	{r4, lr}
 8002fb6:	4c03      	ldr	r4, [pc, #12]	; (8002fc4 <u16toHEX_s+0x10>)
 8002fb8:	4621      	mov	r1, r4
 8002fba:	f7ff ffc9 	bl	8002f50 <u16toHEXstr>
 8002fbe:	4620      	mov	r0, r4
 8002fc0:	bd10      	pop	{r4, pc}
 8002fc2:	bf00      	nop
 8002fc4:	200018a0 	.word	0x200018a0

08002fc8 <_ZN12SxDriverBase11SpiTransferEhPh>:
 8002fc8:	b513      	push	{r0, r1, r4, lr}
 8002fca:	6803      	ldr	r3, [r0, #0]
 8002fcc:	f88d 1007 	strb.w	r1, [sp, #7]
 8002fd0:	689c      	ldr	r4, [r3, #8]
 8002fd2:	f10d 0107 	add.w	r1, sp, #7
 8002fd6:	2301      	movs	r3, #1
 8002fd8:	47a0      	blx	r4
 8002fda:	b002      	add	sp, #8
 8002fdc:	bd10      	pop	{r4, pc}

08002fde <_ZN12SxDriverBase11SpiTransferEh>:
 8002fde:	b51f      	push	{r0, r1, r2, r3, r4, lr}
 8002fe0:	6803      	ldr	r3, [r0, #0]
 8002fe2:	f88d 1007 	strb.w	r1, [sp, #7]
 8002fe6:	689c      	ldr	r4, [r3, #8]
 8002fe8:	f10d 020f 	add.w	r2, sp, #15
 8002fec:	2301      	movs	r3, #1
 8002fee:	f10d 0107 	add.w	r1, sp, #7
 8002ff2:	47a0      	blx	r4
 8002ff4:	b004      	add	sp, #16
 8002ff6:	bd10      	pop	{r4, pc}

08002ff8 <_ZN12SxDriverBase12WriteCommandEhPhh>:
 8002ff8:	b5f0      	push	{r4, r5, r6, r7, lr}
 8002ffa:	461d      	mov	r5, r3
 8002ffc:	b0c3      	sub	sp, #268	; 0x10c
 8002ffe:	6803      	ldr	r3, [r0, #0]
 8003000:	9101      	str	r1, [sp, #4]
 8003002:	4604      	mov	r4, r0
 8003004:	68db      	ldr	r3, [r3, #12]
 8003006:	4616      	mov	r6, r2
 8003008:	4798      	blx	r3
 800300a:	6823      	ldr	r3, [r4, #0]
 800300c:	4620      	mov	r0, r4
 800300e:	681b      	ldr	r3, [r3, #0]
 8003010:	4798      	blx	r3
 8003012:	9901      	ldr	r1, [sp, #4]
 8003014:	1d22      	adds	r2, r4, #4
 8003016:	4620      	mov	r0, r4
 8003018:	f7ff ffd6 	bl	8002fc8 <_ZN12SxDriverBase11SpiTransferEhPh>
 800301c:	b135      	cbz	r5, 800302c <_ZN12SxDriverBase12WriteCommandEhPhh+0x34>
 800301e:	6823      	ldr	r3, [r4, #0]
 8003020:	aa02      	add	r2, sp, #8
 8003022:	689f      	ldr	r7, [r3, #8]
 8003024:	4631      	mov	r1, r6
 8003026:	462b      	mov	r3, r5
 8003028:	4620      	mov	r0, r4
 800302a:	47b8      	blx	r7
 800302c:	6823      	ldr	r3, [r4, #0]
 800302e:	4620      	mov	r0, r4
 8003030:	685b      	ldr	r3, [r3, #4]
 8003032:	4798      	blx	r3
 8003034:	6823      	ldr	r3, [r4, #0]
 8003036:	210c      	movs	r1, #12
 8003038:	691b      	ldr	r3, [r3, #16]
 800303a:	4620      	mov	r0, r4
 800303c:	4798      	blx	r3
 800303e:	b043      	add	sp, #268	; 0x10c
 8003040:	bdf0      	pop	{r4, r5, r6, r7, pc}

08003042 <_ZN12SxDriverBase11ReadCommandEhPhh>:
 8003042:	b5f0      	push	{r4, r5, r6, r7, lr}
 8003044:	4604      	mov	r4, r0
 8003046:	2000      	movs	r0, #0
 8003048:	461d      	mov	r5, r3
 800304a:	b0c3      	sub	sp, #268	; 0x10c
 800304c:	4616      	mov	r6, r2
 800304e:	4603      	mov	r3, r0
 8003050:	b2c2      	uxtb	r2, r0
 8003052:	4295      	cmp	r5, r2
 8003054:	d903      	bls.n	800305e <_ZN12SxDriverBase11ReadCommandEhPhh+0x1c>
 8003056:	aa02      	add	r2, sp, #8
 8003058:	5413      	strb	r3, [r2, r0]
 800305a:	3001      	adds	r0, #1
 800305c:	e7f8      	b.n	8003050 <_ZN12SxDriverBase11ReadCommandEhPhh+0xe>
 800305e:	6823      	ldr	r3, [r4, #0]
 8003060:	9101      	str	r1, [sp, #4]
 8003062:	4620      	mov	r0, r4
 8003064:	68db      	ldr	r3, [r3, #12]
 8003066:	4798      	blx	r3
 8003068:	6823      	ldr	r3, [r4, #0]
 800306a:	4620      	mov	r0, r4
 800306c:	681b      	ldr	r3, [r3, #0]
 800306e:	4798      	blx	r3
 8003070:	1d22      	adds	r2, r4, #4
 8003072:	9901      	ldr	r1, [sp, #4]
 8003074:	4620      	mov	r0, r4
 8003076:	f7ff ffa7 	bl	8002fc8 <_ZN12SxDriverBase11SpiTransferEhPh>
 800307a:	4620      	mov	r0, r4
 800307c:	2100      	movs	r1, #0
 800307e:	f7ff ffae 	bl	8002fde <_ZN12SxDriverBase11SpiTransferEh>
 8003082:	6823      	ldr	r3, [r4, #0]
 8003084:	4632      	mov	r2, r6
 8003086:	689f      	ldr	r7, [r3, #8]
 8003088:	a902      	add	r1, sp, #8
 800308a:	462b      	mov	r3, r5
 800308c:	4620      	mov	r0, r4
 800308e:	47b8      	blx	r7
 8003090:	6823      	ldr	r3, [r4, #0]
 8003092:	4620      	mov	r0, r4
 8003094:	685b      	ldr	r3, [r3, #4]
 8003096:	4798      	blx	r3
 8003098:	b043      	add	sp, #268	; 0x10c
 800309a:	bdf0      	pop	{r4, r5, r6, r7, pc}

0800309c <_ZN12SxDriverBase13WriteRegisterEtPhh>:
 800309c:	b570      	push	{r4, r5, r6, lr}
 800309e:	4616      	mov	r6, r2
 80030a0:	b0c2      	sub	sp, #264	; 0x108
 80030a2:	6802      	ldr	r2, [r0, #0]
 80030a4:	9301      	str	r3, [sp, #4]
 80030a6:	4604      	mov	r4, r0
 80030a8:	68d2      	ldr	r2, [r2, #12]
 80030aa:	460d      	mov	r5, r1
 80030ac:	4790      	blx	r2
 80030ae:	6822      	ldr	r2, [r4, #0]
 80030b0:	4620      	mov	r0, r4
 80030b2:	6812      	ldr	r2, [r2, #0]
 80030b4:	4790      	blx	r2
 80030b6:	1d22      	adds	r2, r4, #4
 80030b8:	4620      	mov	r0, r4
 80030ba:	2118      	movs	r1, #24
 80030bc:	f7ff ff84 	bl	8002fc8 <_ZN12SxDriverBase11SpiTransferEhPh>
 80030c0:	0a29      	lsrs	r1, r5, #8
 80030c2:	4620      	mov	r0, r4
 80030c4:	f7ff ff8b 	bl	8002fde <_ZN12SxDriverBase11SpiTransferEh>
 80030c8:	b2e9      	uxtb	r1, r5
 80030ca:	4620      	mov	r0, r4
 80030cc:	f7ff ff87 	bl	8002fde <_ZN12SxDriverBase11SpiTransferEh>
 80030d0:	6822      	ldr	r2, [r4, #0]
 80030d2:	9b01      	ldr	r3, [sp, #4]
 80030d4:	6895      	ldr	r5, [r2, #8]
 80030d6:	4631      	mov	r1, r6
 80030d8:	aa02      	add	r2, sp, #8
 80030da:	4620      	mov	r0, r4
 80030dc:	47a8      	blx	r5
 80030de:	6823      	ldr	r3, [r4, #0]
 80030e0:	4620      	mov	r0, r4
 80030e2:	685b      	ldr	r3, [r3, #4]
 80030e4:	4798      	blx	r3
 80030e6:	6823      	ldr	r3, [r4, #0]
 80030e8:	210c      	movs	r1, #12
 80030ea:	691b      	ldr	r3, [r3, #16]
 80030ec:	4620      	mov	r0, r4
 80030ee:	4798      	blx	r3
 80030f0:	b042      	add	sp, #264	; 0x108
 80030f2:	bd70      	pop	{r4, r5, r6, pc}

080030f4 <_ZN12SxDriverBase12ReadRegisterEtPhh>:
 80030f4:	b5f0      	push	{r4, r5, r6, r7, lr}
 80030f6:	4604      	mov	r4, r0
 80030f8:	2000      	movs	r0, #0
 80030fa:	461d      	mov	r5, r3
 80030fc:	b0c1      	sub	sp, #260	; 0x104
 80030fe:	460e      	mov	r6, r1
 8003100:	4617      	mov	r7, r2
 8003102:	4603      	mov	r3, r0
 8003104:	b2c2      	uxtb	r2, r0
 8003106:	4295      	cmp	r5, r2
 8003108:	d903      	bls.n	8003112 <_ZN12SxDriverBase12ReadRegisterEtPhh+0x1e>
 800310a:	f80d 3000 	strb.w	r3, [sp, r0]
 800310e:	3001      	adds	r0, #1
 8003110:	e7f8      	b.n	8003104 <_ZN12SxDriverBase12ReadRegisterEtPhh+0x10>
 8003112:	6823      	ldr	r3, [r4, #0]
 8003114:	4620      	mov	r0, r4
 8003116:	68db      	ldr	r3, [r3, #12]
 8003118:	4798      	blx	r3
 800311a:	6823      	ldr	r3, [r4, #0]
 800311c:	4620      	mov	r0, r4
 800311e:	681b      	ldr	r3, [r3, #0]
 8003120:	4798      	blx	r3
 8003122:	1d22      	adds	r2, r4, #4
 8003124:	4620      	mov	r0, r4
 8003126:	2119      	movs	r1, #25
 8003128:	f7ff ff4e 	bl	8002fc8 <_ZN12SxDriverBase11SpiTransferEhPh>
 800312c:	0a31      	lsrs	r1, r6, #8
 800312e:	4620      	mov	r0, r4
 8003130:	f7ff ff55 	bl	8002fde <_ZN12SxDriverBase11SpiTransferEh>
 8003134:	b2f1      	uxtb	r1, r6
 8003136:	4620      	mov	r0, r4
 8003138:	f7ff ff51 	bl	8002fde <_ZN12SxDriverBase11SpiTransferEh>
 800313c:	4620      	mov	r0, r4
 800313e:	2100      	movs	r1, #0
 8003140:	f7ff ff4d 	bl	8002fde <_ZN12SxDriverBase11SpiTransferEh>
 8003144:	6823      	ldr	r3, [r4, #0]
 8003146:	463a      	mov	r2, r7
 8003148:	689e      	ldr	r6, [r3, #8]
 800314a:	4669      	mov	r1, sp
 800314c:	462b      	mov	r3, r5
 800314e:	4620      	mov	r0, r4
 8003150:	47b0      	blx	r6
 8003152:	6823      	ldr	r3, [r4, #0]
 8003154:	4620      	mov	r0, r4
 8003156:	685b      	ldr	r3, [r3, #4]
 8003158:	4798      	blx	r3
 800315a:	b041      	add	sp, #260	; 0x104
 800315c:	bdf0      	pop	{r4, r5, r6, r7, pc}

0800315e <_ZN12SxDriverBase12ReadRegisterEt>:
 800315e:	b507      	push	{r0, r1, r2, lr}
 8003160:	2301      	movs	r3, #1
 8003162:	f10d 0207 	add.w	r2, sp, #7
 8003166:	f7ff ffc5 	bl	80030f4 <_ZN12SxDriverBase12ReadRegisterEtPhh>
 800316a:	f89d 0007 	ldrb.w	r0, [sp, #7]
 800316e:	b003      	add	sp, #12
 8003170:	f85d fb04 	ldr.w	pc, [sp], #4

08003174 <_ZN12SxDriverBase11WriteBufferEhPhh>:
 8003174:	b570      	push	{r4, r5, r6, lr}
 8003176:	4615      	mov	r5, r2
 8003178:	b0c2      	sub	sp, #264	; 0x108
 800317a:	6802      	ldr	r2, [r0, #0]
 800317c:	9301      	str	r3, [sp, #4]
 800317e:	4604      	mov	r4, r0
 8003180:	68d2      	ldr	r2, [r2, #12]
 8003182:	460e      	mov	r6, r1
 8003184:	4790      	blx	r2
 8003186:	6822      	ldr	r2, [r4, #0]
 8003188:	4620      	mov	r0, r4
 800318a:	6812      	ldr	r2, [r2, #0]
 800318c:	4790      	blx	r2
 800318e:	1d22      	adds	r2, r4, #4
 8003190:	4620      	mov	r0, r4
 8003192:	211a      	movs	r1, #26
 8003194:	f7ff ff18 	bl	8002fc8 <_ZN12SxDriverBase11SpiTransferEhPh>
 8003198:	4631      	mov	r1, r6
 800319a:	4620      	mov	r0, r4
 800319c:	f7ff ff1f 	bl	8002fde <_ZN12SxDriverBase11SpiTransferEh>
 80031a0:	6822      	ldr	r2, [r4, #0]
 80031a2:	9b01      	ldr	r3, [sp, #4]
 80031a4:	6896      	ldr	r6, [r2, #8]
 80031a6:	4629      	mov	r1, r5
 80031a8:	aa02      	add	r2, sp, #8
 80031aa:	4620      	mov	r0, r4
 80031ac:	47b0      	blx	r6
 80031ae:	6823      	ldr	r3, [r4, #0]
 80031b0:	4620      	mov	r0, r4
 80031b2:	685b      	ldr	r3, [r3, #4]
 80031b4:	4798      	blx	r3
 80031b6:	6823      	ldr	r3, [r4, #0]
 80031b8:	210c      	movs	r1, #12
 80031ba:	691b      	ldr	r3, [r3, #16]
 80031bc:	4620      	mov	r0, r4
 80031be:	4798      	blx	r3
 80031c0:	b042      	add	sp, #264	; 0x108
 80031c2:	bd70      	pop	{r4, r5, r6, pc}

080031c4 <_ZN12SxDriverBase10ReadBufferEhPhh>:
 80031c4:	b5f0      	push	{r4, r5, r6, r7, lr}
 80031c6:	4604      	mov	r4, r0
 80031c8:	2000      	movs	r0, #0
 80031ca:	461d      	mov	r5, r3
 80031cc:	b0c1      	sub	sp, #260	; 0x104
 80031ce:	460f      	mov	r7, r1
 80031d0:	4616      	mov	r6, r2
 80031d2:	4603      	mov	r3, r0
 80031d4:	b2c2      	uxtb	r2, r0
 80031d6:	4295      	cmp	r5, r2
 80031d8:	d903      	bls.n	80031e2 <_ZN12SxDriverBase10ReadBufferEhPhh+0x1e>
 80031da:	f80d 3000 	strb.w	r3, [sp, r0]
 80031de:	3001      	adds	r0, #1
 80031e0:	e7f8      	b.n	80031d4 <_ZN12SxDriverBase10ReadBufferEhPhh+0x10>
 80031e2:	6823      	ldr	r3, [r4, #0]
 80031e4:	4620      	mov	r0, r4
 80031e6:	68db      	ldr	r3, [r3, #12]
 80031e8:	4798      	blx	r3
 80031ea:	6823      	ldr	r3, [r4, #0]
 80031ec:	4620      	mov	r0, r4
 80031ee:	681b      	ldr	r3, [r3, #0]
 80031f0:	4798      	blx	r3
 80031f2:	1d22      	adds	r2, r4, #4
 80031f4:	4620      	mov	r0, r4
 80031f6:	211b      	movs	r1, #27
 80031f8:	f7ff fee6 	bl	8002fc8 <_ZN12SxDriverBase11SpiTransferEhPh>
 80031fc:	4639      	mov	r1, r7
 80031fe:	4620      	mov	r0, r4
 8003200:	f7ff feed 	bl	8002fde <_ZN12SxDriverBase11SpiTransferEh>
 8003204:	4620      	mov	r0, r4
 8003206:	2100      	movs	r1, #0
 8003208:	f7ff fee9 	bl	8002fde <_ZN12SxDriverBase11SpiTransferEh>
 800320c:	6823      	ldr	r3, [r4, #0]
 800320e:	4632      	mov	r2, r6
 8003210:	689f      	ldr	r7, [r3, #8]
 8003212:	4669      	mov	r1, sp
 8003214:	462b      	mov	r3, r5
 8003216:	4620      	mov	r0, r4
 8003218:	47b8      	blx	r7
 800321a:	6823      	ldr	r3, [r4, #0]
 800321c:	4620      	mov	r0, r4
 800321e:	685b      	ldr	r3, [r3, #4]
 8003220:	4798      	blx	r3
 8003222:	b041      	add	sp, #260	; 0x104
 8003224:	bdf0      	pop	{r4, r5, r6, r7, pc}

08003226 <_ZN12SxDriverBase9GetStatusEv>:
 8003226:	b510      	push	{r4, lr}
 8003228:	2300      	movs	r3, #0
 800322a:	4604      	mov	r4, r0
 800322c:	461a      	mov	r2, r3
 800322e:	21c0      	movs	r1, #192	; 0xc0
 8003230:	f7ff fee2 	bl	8002ff8 <_ZN12SxDriverBase12WriteCommandEhPhh>
 8003234:	7920      	ldrb	r0, [r4, #4]
 8003236:	bd10      	pop	{r4, pc}

08003238 <_ZN12SxDriverBase10SetStandbyEh>:
 8003238:	b537      	push	{r0, r1, r2, r4, r5, lr}
 800323a:	4604      	mov	r4, r0
 800323c:	460d      	mov	r5, r1
 800323e:	f88d 1007 	strb.w	r1, [sp, #7]
 8003242:	f10d 0207 	add.w	r2, sp, #7
 8003246:	2180      	movs	r1, #128	; 0x80
 8003248:	2301      	movs	r3, #1
 800324a:	f7ff fed5 	bl	8002ff8 <_ZN12SxDriverBase12WriteCommandEhPhh>
 800324e:	6823      	ldr	r3, [r4, #0]
 8003250:	2d01      	cmp	r5, #1
 8003252:	691b      	ldr	r3, [r3, #16]
 8003254:	bf0c      	ite	eq
 8003256:	2132      	moveq	r1, #50	; 0x32
 8003258:	f240 51dc 	movwne	r1, #1500	; 0x5dc
 800325c:	4620      	mov	r0, r4
 800325e:	4798      	blx	r3
 8003260:	b003      	add	sp, #12
 8003262:	bd30      	pop	{r4, r5, pc}

08003264 <_ZN12SxDriverBase13SetPacketTypeEh>:
 8003264:	b507      	push	{r0, r1, r2, lr}
 8003266:	2301      	movs	r3, #1
 8003268:	f88d 1007 	strb.w	r1, [sp, #7]
 800326c:	f10d 0207 	add.w	r2, sp, #7
 8003270:	218a      	movs	r1, #138	; 0x8a
 8003272:	f7ff fec1 	bl	8002ff8 <_ZN12SxDriverBase12WriteCommandEhPhh>
 8003276:	b003      	add	sp, #12
 8003278:	f85d fb04 	ldr.w	pc, [sp], #4

0800327c <_ZN12SxDriverBase14SetRfFrequencyEm>:
 800327c:	b507      	push	{r0, r1, r2, lr}
 800327e:	0c0b      	lsrs	r3, r1, #16
 8003280:	f88d 3004 	strb.w	r3, [sp, #4]
 8003284:	0a0b      	lsrs	r3, r1, #8
 8003286:	f88d 3005 	strb.w	r3, [sp, #5]
 800328a:	f88d 1006 	strb.w	r1, [sp, #6]
 800328e:	2303      	movs	r3, #3
 8003290:	aa01      	add	r2, sp, #4
 8003292:	2186      	movs	r1, #134	; 0x86
 8003294:	f7ff feb0 	bl	8002ff8 <_ZN12SxDriverBase12WriteCommandEhPhh>
 8003298:	b003      	add	sp, #12
 800329a:	f85d fb04 	ldr.w	pc, [sp], #4

0800329e <_ZN12SxDriverBase20SetBufferBaseAddressEhh>:
 800329e:	b507      	push	{r0, r1, r2, lr}
 80032a0:	2302      	movs	r3, #2
 80032a2:	f88d 1004 	strb.w	r1, [sp, #4]
 80032a6:	f88d 2005 	strb.w	r2, [sp, #5]
 80032aa:	218f      	movs	r1, #143	; 0x8f
 80032ac:	aa01      	add	r2, sp, #4
 80032ae:	f7ff fea3 	bl	8002ff8 <_ZN12SxDriverBase12WriteCommandEhPhh>
 80032b2:	b003      	add	sp, #12
 80032b4:	f85d fb04 	ldr.w	pc, [sp], #4

080032b8 <_ZN12SxDriverBase19SetModulationParamsEhhh>:
 80032b8:	b537      	push	{r0, r1, r2, r4, r5, lr}
 80032ba:	460c      	mov	r4, r1
 80032bc:	f88d 1004 	strb.w	r1, [sp, #4]
 80032c0:	f88d 2005 	strb.w	r2, [sp, #5]
 80032c4:	f88d 3006 	strb.w	r3, [sp, #6]
 80032c8:	aa01      	add	r2, sp, #4
 80032ca:	2303      	movs	r3, #3
 80032cc:	218b      	movs	r1, #139	; 0x8b
 80032ce:	4605      	mov	r5, r0
 80032d0:	f7ff fe92 	bl	8002ff8 <_ZN12SxDriverBase12WriteCommandEhPhh>
 80032d4:	2c70      	cmp	r4, #112	; 0x70
 80032d6:	d008      	beq.n	80032ea <_ZN12SxDriverBase19SetModulationParamsEhhh+0x32>
 80032d8:	d805      	bhi.n	80032e6 <_ZN12SxDriverBase19SetModulationParamsEhhh+0x2e>
 80032da:	2c50      	cmp	r4, #80	; 0x50
 80032dc:	d007      	beq.n	80032ee <_ZN12SxDriverBase19SetModulationParamsEhhh+0x36>
 80032de:	2c60      	cmp	r4, #96	; 0x60
 80032e0:	d005      	beq.n	80032ee <_ZN12SxDriverBase19SetModulationParamsEhhh+0x36>
 80032e2:	2332      	movs	r3, #50	; 0x32
 80032e4:	e004      	b.n	80032f0 <_ZN12SxDriverBase19SetModulationParamsEhhh+0x38>
 80032e6:	2c80      	cmp	r4, #128	; 0x80
 80032e8:	d1fb      	bne.n	80032e2 <_ZN12SxDriverBase19SetModulationParamsEhhh+0x2a>
 80032ea:	2337      	movs	r3, #55	; 0x37
 80032ec:	e000      	b.n	80032f0 <_ZN12SxDriverBase19SetModulationParamsEhhh+0x38>
 80032ee:	231e      	movs	r3, #30
 80032f0:	f88d 3003 	strb.w	r3, [sp, #3]
 80032f4:	f10d 0203 	add.w	r2, sp, #3
 80032f8:	4628      	mov	r0, r5
 80032fa:	2301      	movs	r3, #1
 80032fc:	f640 1125 	movw	r1, #2341	; 0x925
 8003300:	f7ff fecc 	bl	800309c <_ZN12SxDriverBase13WriteRegisterEtPhh>
 8003304:	2301      	movs	r3, #1
 8003306:	f10d 0203 	add.w	r2, sp, #3
 800330a:	f640 113c 	movw	r1, #2364	; 0x93c
 800330e:	4628      	mov	r0, r5
 8003310:	f88d 3003 	strb.w	r3, [sp, #3]
 8003314:	f7ff fec2 	bl	800309c <_ZN12SxDriverBase13WriteRegisterEtPhh>
 8003318:	b003      	add	sp, #12
 800331a:	bd30      	pop	{r4, r5, pc}

0800331c <_ZN12SxDriverBase15SetPacketParamsEhhhhh>:
 800331c:	b507      	push	{r0, r1, r2, lr}
 800331e:	f88d 3002 	strb.w	r3, [sp, #2]
 8003322:	f89d 3010 	ldrb.w	r3, [sp, #16]
 8003326:	f88d 3003 	strb.w	r3, [sp, #3]
 800332a:	f89d 3014 	ldrb.w	r3, [sp, #20]
 800332e:	f88d 3004 	strb.w	r3, [sp, #4]
 8003332:	2300      	movs	r3, #0
 8003334:	f88d 1000 	strb.w	r1, [sp]
 8003338:	f88d 2001 	strb.w	r2, [sp, #1]
 800333c:	f88d 3005 	strb.w	r3, [sp, #5]
 8003340:	f88d 3006 	strb.w	r3, [sp, #6]
 8003344:	466a      	mov	r2, sp
 8003346:	2307      	movs	r3, #7
 8003348:	218c      	movs	r1, #140	; 0x8c
 800334a:	f7ff fe55 	bl	8002ff8 <_ZN12SxDriverBase12WriteCommandEhPhh>
 800334e:	b003      	add	sp, #12
 8003350:	f85d fb04 	ldr.w	pc, [sp], #4

08003354 <_ZN12SxDriverBase15SetDioIrqParamsEtttt>:
 8003354:	b507      	push	{r0, r1, r2, lr}
 8003356:	ba5b      	rev16	r3, r3
 8003358:	f8ad 3004 	strh.w	r3, [sp, #4]
 800335c:	f8bd 3010 	ldrh.w	r3, [sp, #16]
 8003360:	ba49      	rev16	r1, r1
 8003362:	ba52      	rev16	r2, r2
 8003364:	ba5b      	rev16	r3, r3
 8003366:	f8ad 1000 	strh.w	r1, [sp]
 800336a:	f8ad 2002 	strh.w	r2, [sp, #2]
 800336e:	f8ad 3006 	strh.w	r3, [sp, #6]
 8003372:	466a      	mov	r2, sp
 8003374:	2308      	movs	r3, #8
 8003376:	218d      	movs	r1, #141	; 0x8d
 8003378:	f7ff fe3e 	bl	8002ff8 <_ZN12SxDriverBase12WriteCommandEhPhh>
 800337c:	b003      	add	sp, #12
 800337e:	f85d fb04 	ldr.w	pc, [sp], #4

08003382 <_ZN12SxDriverBase12GetIrqStatusEv>:
 8003382:	b507      	push	{r0, r1, r2, lr}
 8003384:	2302      	movs	r3, #2
 8003386:	aa01      	add	r2, sp, #4
 8003388:	2115      	movs	r1, #21
 800338a:	f7ff fe5a 	bl	8003042 <_ZN12SxDriverBase11ReadCommandEhPhh>
 800338e:	f89d 3004 	ldrb.w	r3, [sp, #4]
 8003392:	f89d 0005 	ldrb.w	r0, [sp, #5]
 8003396:	eb00 2003 	add.w	r0, r0, r3, lsl #8
 800339a:	b280      	uxth	r0, r0
 800339c:	b003      	add	sp, #12
 800339e:	f85d fb04 	ldr.w	pc, [sp], #4

080033a2 <_ZN12SxDriverBase14ClearIrqStatusEt>:
 80033a2:	b507      	push	{r0, r1, r2, lr}
 80033a4:	ba49      	rev16	r1, r1
 80033a6:	f8ad 1004 	strh.w	r1, [sp, #4]
 80033aa:	2302      	movs	r3, #2
 80033ac:	aa01      	add	r2, sp, #4
 80033ae:	2197      	movs	r1, #151	; 0x97
 80033b0:	f7ff fe22 	bl	8002ff8 <_ZN12SxDriverBase12WriteCommandEhPhh>
 80033b4:	b003      	add	sp, #12
 80033b6:	f85d fb04 	ldr.w	pc, [sp], #4

080033ba <_ZN12SxDriverBase11SetTxParamsEhh>:
 80033ba:	b507      	push	{r0, r1, r2, lr}
 80033bc:	291f      	cmp	r1, #31
 80033be:	bf28      	it	cs
 80033c0:	211f      	movcs	r1, #31
 80033c2:	f88d 1004 	strb.w	r1, [sp, #4]
 80033c6:	f88d 2005 	strb.w	r2, [sp, #5]
 80033ca:	2302      	movs	r3, #2
 80033cc:	aa01      	add	r2, sp, #4
 80033ce:	218e      	movs	r1, #142	; 0x8e
 80033d0:	f7ff fe12 	bl	8002ff8 <_ZN12SxDriverBase12WriteCommandEhPhh>
 80033d4:	b003      	add	sp, #12
 80033d6:	f85d fb04 	ldr.w	pc, [sp], #4

080033da <_ZN12SxDriverBase5SetTxEht>:
 80033da:	b513      	push	{r0, r1, r4, lr}
 80033dc:	0a13      	lsrs	r3, r2, #8
 80033de:	4604      	mov	r4, r0
 80033e0:	f88d 1004 	strb.w	r1, [sp, #4]
 80033e4:	f88d 3005 	strb.w	r3, [sp, #5]
 80033e8:	f88d 2006 	strb.w	r2, [sp, #6]
 80033ec:	2303      	movs	r3, #3
 80033ee:	aa01      	add	r2, sp, #4
 80033f0:	2183      	movs	r1, #131	; 0x83
 80033f2:	f7ff fe01 	bl	8002ff8 <_ZN12SxDriverBase12WriteCommandEhPhh>
 80033f6:	6823      	ldr	r3, [r4, #0]
 80033f8:	2164      	movs	r1, #100	; 0x64
 80033fa:	691b      	ldr	r3, [r3, #16]
 80033fc:	4620      	mov	r0, r4
 80033fe:	4798      	blx	r3
 8003400:	b002      	add	sp, #8
 8003402:	bd10      	pop	{r4, pc}

08003404 <_ZN12SxDriverBase5SetRxEht>:
 8003404:	b513      	push	{r0, r1, r4, lr}
 8003406:	0a13      	lsrs	r3, r2, #8
 8003408:	4604      	mov	r4, r0
 800340a:	f88d 1004 	strb.w	r1, [sp, #4]
 800340e:	f88d 3005 	strb.w	r3, [sp, #5]
 8003412:	f88d 2006 	strb.w	r2, [sp, #6]
 8003416:	2303      	movs	r3, #3
 8003418:	aa01      	add	r2, sp, #4
 800341a:	2182      	movs	r1, #130	; 0x82
 800341c:	f7ff fdec 	bl	8002ff8 <_ZN12SxDriverBase12WriteCommandEhPhh>
 8003420:	6823      	ldr	r3, [r4, #0]
 8003422:	2164      	movs	r1, #100	; 0x64
 8003424:	691b      	ldr	r3, [r3, #16]
 8003426:	4620      	mov	r0, r4
 8003428:	4798      	blx	r3
 800342a:	b002      	add	sp, #8
 800342c:	bd10      	pop	{r4, pc}

0800342e <_ZN12SxDriverBase15GetPacketStatusEPaS0_>:
 800342e:	b537      	push	{r0, r1, r2, r4, r5, lr}
 8003430:	2305      	movs	r3, #5
 8003432:	460d      	mov	r5, r1
 8003434:	4614      	mov	r4, r2
 8003436:	211d      	movs	r1, #29
 8003438:	466a      	mov	r2, sp
 800343a:	f7ff fe02 	bl	8003042 <_ZN12SxDriverBase11ReadCommandEhPhh>
 800343e:	f89d 3000 	ldrb.w	r3, [sp]
 8003442:	085b      	lsrs	r3, r3, #1
 8003444:	425b      	negs	r3, r3
 8003446:	702b      	strb	r3, [r5, #0]
 8003448:	f89d 3001 	ldrb.w	r3, [sp, #1]
 800344c:	089b      	lsrs	r3, r3, #2
 800344e:	7023      	strb	r3, [r4, #0]
 8003450:	b003      	add	sp, #12
 8003452:	bd30      	pop	{r4, r5, pc}

08003454 <_ZN12SxDriverBase17GetRxBufferStatusEPhS0_>:
 8003454:	b537      	push	{r0, r1, r2, r4, r5, lr}
 8003456:	2302      	movs	r3, #2
 8003458:	460d      	mov	r5, r1
 800345a:	4614      	mov	r4, r2
 800345c:	2117      	movs	r1, #23
 800345e:	aa01      	add	r2, sp, #4
 8003460:	f7ff fdef 	bl	8003042 <_ZN12SxDriverBase11ReadCommandEhPhh>
 8003464:	f89d 3004 	ldrb.w	r3, [sp, #4]
 8003468:	702b      	strb	r3, [r5, #0]
 800346a:	f89d 3005 	ldrb.w	r3, [sp, #5]
 800346e:	7023      	strb	r3, [r4, #0]
 8003470:	b003      	add	sp, #12
 8003472:	bd30      	pop	{r4, r5, pc}

08003474 <_ZN12SxDriverBase16SetRegulatorModeEh>:
 8003474:	b507      	push	{r0, r1, r2, lr}
 8003476:	2301      	movs	r3, #1
 8003478:	f88d 1007 	strb.w	r1, [sp, #7]
 800347c:	f10d 0207 	add.w	r2, sp, #7
 8003480:	2196      	movs	r1, #150	; 0x96
 8003482:	f7ff fdb9 	bl	8002ff8 <_ZN12SxDriverBase12WriteCommandEhPhh>
 8003486:	b003      	add	sp, #12
 8003488:	f85d fb04 	ldr.w	pc, [sp], #4

0800348c <_ZN12SxDriverBase9SetAutoFsEh>:
 800348c:	b507      	push	{r0, r1, r2, lr}
 800348e:	2301      	movs	r3, #1
 8003490:	f88d 1007 	strb.w	r1, [sp, #7]
 8003494:	f10d 0207 	add.w	r2, sp, #7
 8003498:	219e      	movs	r1, #158	; 0x9e
 800349a:	f7ff fdad 	bl	8002ff8 <_ZN12SxDriverBase12WriteCommandEhPhh>
 800349e:	b003      	add	sp, #12
 80034a0:	f85d fb04 	ldr.w	pc, [sp], #4

080034a4 <_ZN12SxDriverBase5SetFsEv>:
 80034a4:	b510      	push	{r4, lr}
 80034a6:	2300      	movs	r3, #0
 80034a8:	4604      	mov	r4, r0
 80034aa:	461a      	mov	r2, r3
 80034ac:	21c1      	movs	r1, #193	; 0xc1
 80034ae:	f7ff fda3 	bl	8002ff8 <_ZN12SxDriverBase12WriteCommandEhPhh>
 80034b2:	6823      	ldr	r3, [r4, #0]
 80034b4:	4620      	mov	r0, r4
 80034b6:	691b      	ldr	r3, [r3, #16]
 80034b8:	e8bd 4010 	ldmia.w	sp!, {r4, lr}
 80034bc:	2146      	movs	r1, #70	; 0x46
 80034be:	4718      	bx	r3

080034c0 <_ZN12SxDriverBase14SetLnaGainModeEh>:
 80034c0:	b537      	push	{r0, r1, r2, r4, r5, lr}
 80034c2:	460d      	mov	r5, r1
 80034c4:	f640 0191 	movw	r1, #2193	; 0x891
 80034c8:	4604      	mov	r4, r0
 80034ca:	f7ff fe48 	bl	800315e <_ZN12SxDriverBase12ReadRegisterEt>
 80034ce:	2d01      	cmp	r5, #1
 80034d0:	bf0b      	itete	eq
 80034d2:	f060 023f 	orneq	r2, r0, #63	; 0x3f
 80034d6:	f000 033f 	andne.w	r3, r0, #63	; 0x3f
 80034da:	f88d 2007 	strbeq.w	r2, [sp, #7]
 80034de:	f88d 3007 	strbne.w	r3, [sp, #7]
 80034e2:	f10d 0207 	add.w	r2, sp, #7
 80034e6:	2301      	movs	r3, #1
 80034e8:	f640 0191 	movw	r1, #2193	; 0x891
 80034ec:	4620      	mov	r0, r4
 80034ee:	f7ff fdd5 	bl	800309c <_ZN12SxDriverBase13WriteRegisterEtPhh>
 80034f2:	b003      	add	sp, #12
 80034f4:	bd30      	pop	{r4, r5, pc}

080034f6 <_ZN12SxDriverBase14GetFirmwareRevEv>:
 80034f6:	b538      	push	{r3, r4, r5, lr}
 80034f8:	f240 1153 	movw	r1, #339	; 0x153
 80034fc:	4605      	mov	r5, r0
 80034fe:	f7ff fe2e 	bl	800315e <_ZN12SxDriverBase12ReadRegisterEt>
 8003502:	f44f 71aa 	mov.w	r1, #340	; 0x154
 8003506:	4604      	mov	r4, r0
 8003508:	4628      	mov	r0, r5
 800350a:	f7ff fe28 	bl	800315e <_ZN12SxDriverBase12ReadRegisterEt>
 800350e:	ea40 2004 	orr.w	r0, r0, r4, lsl #8
 8003512:	b280      	uxth	r0, r0
 8003514:	bd38      	pop	{r3, r4, r5, pc}

08003516 <__cxa_pure_virtual>:
 8003516:	b508      	push	{r3, lr}
 8003518:	f000 f80c 	bl	8003534 <_ZSt9terminatev>

0800351c <_ZN10__cxxabiv111__terminateEPFvvE>:
 800351c:	b508      	push	{r3, lr}
 800351e:	4780      	blx	r0
 8003520:	f000 f80d 	bl	800353e <abort>

08003524 <_ZSt13get_terminatev>:
 8003524:	4b02      	ldr	r3, [pc, #8]	; (8003530 <_ZSt13get_terminatev+0xc>)
 8003526:	6818      	ldr	r0, [r3, #0]
 8003528:	f3bf 8f5b 	dmb	ish
 800352c:	4770      	bx	lr
 800352e:	bf00      	nop
 8003530:	2000000c 	.word	0x2000000c

08003534 <_ZSt9terminatev>:
 8003534:	b508      	push	{r3, lr}
 8003536:	f7ff fff5 	bl	8003524 <_ZSt13get_terminatev>
 800353a:	f7ff ffef 	bl	800351c <_ZN10__cxxabiv111__terminateEPFvvE>

0800353e <abort>:
 800353e:	b508      	push	{r3, lr}
 8003540:	2006      	movs	r0, #6
 8003542:	f000 f85d 	bl	8003600 <raise>
 8003546:	2001      	movs	r0, #1
 8003548:	f7fe fd4e 	bl	8001fe8 <_exit>

0800354c <__errno>:
 800354c:	4b01      	ldr	r3, [pc, #4]	; (8003554 <__errno+0x8>)
 800354e:	6818      	ldr	r0, [r3, #0]
 8003550:	4770      	bx	lr
 8003552:	bf00      	nop
 8003554:	20000010 	.word	0x20000010

08003558 <__libc_init_array>:
 8003558:	b570      	push	{r4, r5, r6, lr}
 800355a:	4d0d      	ldr	r5, [pc, #52]	; (8003590 <__libc_init_array+0x38>)
 800355c:	4c0d      	ldr	r4, [pc, #52]	; (8003594 <__libc_init_array+0x3c>)
 800355e:	1b64      	subs	r4, r4, r5
 8003560:	10a4      	asrs	r4, r4, #2
 8003562:	2600      	movs	r6, #0
 8003564:	42a6      	cmp	r6, r4
 8003566:	d109      	bne.n	800357c <__libc_init_array+0x24>
 8003568:	4d0b      	ldr	r5, [pc, #44]	; (8003598 <__libc_init_array+0x40>)
 800356a:	4c0c      	ldr	r4, [pc, #48]	; (800359c <__libc_init_array+0x44>)
 800356c:	f000 f864 	bl	8003638 <_init>
 8003570:	1b64      	subs	r4, r4, r5
 8003572:	10a4      	asrs	r4, r4, #2
 8003574:	2600      	movs	r6, #0
 8003576:	42a6      	cmp	r6, r4
 8003578:	d105      	bne.n	8003586 <__libc_init_array+0x2e>
 800357a:	bd70      	pop	{r4, r5, r6, pc}
 800357c:	f855 3b04 	ldr.w	r3, [r5], #4
 8003580:	4798      	blx	r3
 8003582:	3601      	adds	r6, #1
 8003584:	e7ee      	b.n	8003564 <__libc_init_array+0xc>
 8003586:	f855 3b04 	ldr.w	r3, [r5], #4
 800358a:	4798      	blx	r3
 800358c:	3601      	adds	r6, #1
 800358e:	e7f2      	b.n	8003576 <__libc_init_array+0x1e>
 8003590:	0800380c 	.word	0x0800380c
 8003594:	0800380c 	.word	0x0800380c
 8003598:	0800380c 	.word	0x0800380c
 800359c:	08003814 	.word	0x08003814

080035a0 <memset>:
 80035a0:	4402      	add	r2, r0
 80035a2:	4603      	mov	r3, r0
 80035a4:	4293      	cmp	r3, r2
 80035a6:	d100      	bne.n	80035aa <memset+0xa>
 80035a8:	4770      	bx	lr
 80035aa:	f803 1b01 	strb.w	r1, [r3], #1
 80035ae:	e7f9      	b.n	80035a4 <memset+0x4>

080035b0 <_raise_r>:
 80035b0:	291f      	cmp	r1, #31
 80035b2:	b538      	push	{r3, r4, r5, lr}
 80035b4:	4604      	mov	r4, r0
 80035b6:	460d      	mov	r5, r1
 80035b8:	d904      	bls.n	80035c4 <_raise_r+0x14>
 80035ba:	2316      	movs	r3, #22
 80035bc:	6003      	str	r3, [r0, #0]
 80035be:	f04f 30ff 	mov.w	r0, #4294967295
 80035c2:	bd38      	pop	{r3, r4, r5, pc}
 80035c4:	6c42      	ldr	r2, [r0, #68]	; 0x44
 80035c6:	b112      	cbz	r2, 80035ce <_raise_r+0x1e>
 80035c8:	f852 3021 	ldr.w	r3, [r2, r1, lsl #2]
 80035cc:	b94b      	cbnz	r3, 80035e2 <_raise_r+0x32>
 80035ce:	4620      	mov	r0, r4
 80035d0:	f000 f830 	bl	8003634 <_getpid_r>
 80035d4:	462a      	mov	r2, r5
 80035d6:	4601      	mov	r1, r0
 80035d8:	4620      	mov	r0, r4
 80035da:	e8bd 4038 	ldmia.w	sp!, {r3, r4, r5, lr}
 80035de:	f000 b817 	b.w	8003610 <_kill_r>
 80035e2:	2b01      	cmp	r3, #1
 80035e4:	d00a      	beq.n	80035fc <_raise_r+0x4c>
 80035e6:	1c59      	adds	r1, r3, #1
 80035e8:	d103      	bne.n	80035f2 <_raise_r+0x42>
 80035ea:	2316      	movs	r3, #22
 80035ec:	6003      	str	r3, [r0, #0]
 80035ee:	2001      	movs	r0, #1
 80035f0:	e7e7      	b.n	80035c2 <_raise_r+0x12>
 80035f2:	2400      	movs	r4, #0
 80035f4:	f842 4025 	str.w	r4, [r2, r5, lsl #2]
 80035f8:	4628      	mov	r0, r5
 80035fa:	4798      	blx	r3
 80035fc:	2000      	movs	r0, #0
 80035fe:	e7e0      	b.n	80035c2 <_raise_r+0x12>

08003600 <raise>:
 8003600:	4b02      	ldr	r3, [pc, #8]	; (800360c <raise+0xc>)
 8003602:	4601      	mov	r1, r0
 8003604:	6818      	ldr	r0, [r3, #0]
 8003606:	f7ff bfd3 	b.w	80035b0 <_raise_r>
 800360a:	bf00      	nop
 800360c:	20000010 	.word	0x20000010

08003610 <_kill_r>:
 8003610:	b538      	push	{r3, r4, r5, lr}
 8003612:	4d07      	ldr	r5, [pc, #28]	; (8003630 <_kill_r+0x20>)
 8003614:	2300      	movs	r3, #0
 8003616:	4604      	mov	r4, r0
 8003618:	4608      	mov	r0, r1
 800361a:	4611      	mov	r1, r2
 800361c:	602b      	str	r3, [r5, #0]
 800361e:	f7fe fcdb 	bl	8001fd8 <_kill>
 8003622:	1c43      	adds	r3, r0, #1
 8003624:	d102      	bne.n	800362c <_kill_r+0x1c>
 8003626:	682b      	ldr	r3, [r5, #0]
 8003628:	b103      	cbz	r3, 800362c <_kill_r+0x1c>
 800362a:	6023      	str	r3, [r4, #0]
 800362c:	bd38      	pop	{r3, r4, r5, pc}
 800362e:	bf00      	nop
 8003630:	200018c0 	.word	0x200018c0

08003634 <_getpid_r>:
 8003634:	f7fe bcce 	b.w	8001fd4 <_getpid>

08003638 <_init>:
 8003638:	b5f8      	push	{r3, r4, r5, r6, r7, lr}
 800363a:	bf00      	nop
 800363c:	bcf8      	pop	{r3, r4, r5, r6, r7}
 800363e:	bc08      	pop	{r3}
 8003640:	469e      	mov	lr, r3
 8003642:	4770      	bx	lr

08003644 <_fini>:
 8003644:	b5f8      	push	{r3, r4, r5, r6, r7, lr}
 8003646:	bf00      	nop
 8003648:	bcf8      	pop	{r3, r4, r5, r6, r7}
 800364a:	bc08      	pop	{r3}
 800364c:	469e      	mov	lr, r3
 800364e:	4770      	bx	lr
